******************************************************************************
                  TI ARM Linker PC v20.2.2                     
******************************************************************************
>> Linked Fri Aug 27 15:31:43 2021

OUTPUT FILE NAME:   <MicroMasterTM4C123G.out>
ENTRY POINT SYMBOL: "_c_int00_noargs"  address: 00016c8d


MEMORY CONFIGURATION

         name            origin    length      used     unused   attr    fill
----------------------  --------  ---------  --------  --------  ----  --------
  FLASH                 00000000   00040000  0001a104  00025efc  R  X
  SRAM                  20000000   00008000  00006d6c  00001294  RW X


SEGMENT ALLOCATION MAP

run origin  load origin   length   init length attrs members
----------  ----------- ---------- ----------- ----- -------
00000000    00000000    0001a108   0001a108    r-x
  00000000    00000000    0000026c   0000026c    r-- .intvecs
  0000026c    0000026c    00018ad8   00018ad8    r-x .text
  00018d44    00018d44    000010a8   000010a8    r-- .const
  00019df0    00019df0    00000318   00000318    r-- .cinit
20000000    20000000    00006d70   00000000    rw-
  20000000    20000000    0000026c   00000000    rw- .vtable
  2000026c    2000026c    00005b88   00000000    rw- .bss
  20005df8    20005df8    00000800   00000000    rw- .stack
  200065f8    200065f8    00000768   00000000    rw- .data
  20006d60    20006d60    00000010   00000000    rw- .sysmem


SECTION ALLOCATION MAP

 output                                  attributes/
section   page    origin      length       input sections
--------  ----  ----------  ----------   ----------------
.intvecs   0    00000000    0000026c     
                  00000000    0000026c     tm4c123gh6pm_startup_ccs.obj (.intvecs)

.text      0    0000026c    00018ad8     
                  0000026c    00001ddc     tasks.obj (.text)
                  00002048    000015ba     usb.obj (.text)
                  00003602    00000002     rtsv7M4_T_le_v4SPD16_eabi.lib : vector.cpp.obj (.text:_ZNSt3__220__vector_base_commonILb1EEC2Ev)
                  00003604    000012ac     I2C_task.obj (.text)
                  000048b0    00001238     SPI_command.obj (.text)
                  00005ae8    00000fa8     queue.obj (.text)
                  00006a90    00000ef4     sysctl.obj (.text)
                  00007984    00000b88     gpio.obj (.text)
                  0000850c    00000a7e     one_wire_command.obj (.text)
                  00008f8a    00000002     rtsv7M4_T_le_v4SPD16_eabi.lib : stdlib_typeinfo.cpp.obj (.text:_ZNSt9type_infoD1Ev)
                  00008f8c    00000a4e                                   : _printfi.c.obj (.text:__TI_printfi)
                  000099da    00000002                                   : _lock.c.obj (.text:_nop)
                  000099dc    000007c2     adc.obj (.text)
                  0000a19e    00000002     usblib.lib : usbdma.obj (.text:iDMAUSBArbSizeSet)
                  0000a1a0    00000718     pwm.obj (.text)
                  0000a8b8    0000069c     i2c.obj (.text)
                  0000af54    00000696     console_task.obj (.text)
                  0000b5ea    00000002     usblib.lib : usbdma.obj (.text:iDMAUSBUnitSizeSet)
                  0000b5ec    0000065b     I2C_monitor.obj (.text)
                  0000bc47    00000001     --HOLE-- [fill = 0]
                  0000bc48    00000653     SPI_monitor.obj (.text)
                  0000c29b    00000001     --HOLE-- [fill = 0]
                  0000c29c    00000642     timer.obj (.text)
                  0000c8de    00000002     rtsv7M4_T_le_v4SPD16_eabi.lib : div0.asm.obj (.text)
                  0000c8e0    00000620     UART_command.obj (.text)
                  0000cf00    00000618     uart.obj (.text)
                  0000d518    000005a8     UART_to_USB.obj (.text)
                  0000dac0    000005a4     I2C_scripter.obj (.text)
                  0000e064    000004f0     uartstdio.obj (.text)
                  0000e554    000004e0     udma.obj (.text)
                  0000ea34    0000046b     PWM_page.obj (.text)
                  0000ee9f    00000001     --HOLE-- [fill = 0]
                  0000eea0    00000464     GPOs.obj (.text)
                  0000f304    00000464     no_booster_board.obj (.text)
                  0000f768    00000454     heap_4.obj (.text)
                  0000fbbc    00000402     menu_page.obj (.text)
                  0000ffbe    00000002     usblib.lib : usbdma.obj (.text:uDMAUSBChannelIntDisable)
                  0000ffc0    000003c0     interrupt.obj (.text)
                  00010380    000003b4     io_control_page.obj (.text)
                  00010734    00000346     ssi.obj (.text)
                  00010a7a    00000002     usblib.lib : usbdma.obj (.text:uDMAUSBChannelIntEnable)
                  00010a7c    000002e8     UART_streamer.obj (.text)
                  00010d64    000002a4     task_manager.obj (.text)
                  00011008    000002a0     error_logger.obj (.text)
                  000112a8    0000029c     I2C_sniffer.obj (.text)
                  00011544    0000028c     ADC_task.obj (.text)
                  000117d0    0000028c     port.obj (.text)
                  00011a5c    00000270     rtsv7M4_T_le_v4SPD16_eabi.lib : _printfi.c.obj (.text:_pconv_a)
                  00011ccc    00000214     GPIs.obj (.text)
                  00011ee0    000001d0     rtsv7M4_T_le_v4SPD16_eabi.lib : _printfi.c.obj (.text:_pconv_g)
                  000120b0    000001b6                                   : fd_add_t2.asm.obj (.text)
                  00012266    00000002     --HOLE-- [fill = 0]
                  00012268    00000164     usblib.lib : usbdma.obj (.text:USBLibDMAInit)
                  000123cc    00000150                : usbdenum.obj (.text:USBDCDInit)
                  0001251c    00000150                : usbdenum.obj (.text:USBDEP0StateTxConfig)
                  0001266c    00000150                : usbdenum.obj (.text:USBDeviceIntHandlerInternal)
                  000127bc    00000148                : usbdconfig.obj (.text:USBDeviceConfig)
                  00012904    0000013c     rtsv7M4_T_le_v4SPD16_eabi.lib : _printfi.c.obj (.text:_pconv_e)
                  00012a40    00000136                                   : fd_div_t2.asm.obj (.text)
                  00012b76    0000012a     list.obj (.text)
                  00012ca0    00000124     rtsv7M4_T_le_v4SPD16_eabi.lib : _printfi.c.obj (.text:fcvt)
                  00012dc4    00000114                                   : fputs.c.obj (.text:fputs)
                  00012ed8    00000110                                   : s_scalbn.c.obj (.text:scalbn)
                  00012fe8    00000100                                   : memory.c.obj (.text:aligned_alloc)
                  000130e8    000000fc                                   : fd_mul_t2.asm.obj (.text)
                  000131e4    000000f4     usblib.lib : usbdma.obj (.text:iDMAUSBTransfer)
                  000132d8    000000e4                : usbdenum.obj (.text:USBDGetDescriptor)
                  000133bc    000000e4     rtsv7M4_T_le_v4SPD16_eabi.lib : memory.c.obj (.text:free)
                  000134a0    000000dc     usblib.lib : usbdcdc.obj (.text:USBDCDCCompositeInit)
                  0001357c    000000dc     rtsv7M4_T_le_v4SPD16_eabi.lib : setvbuf.c.obj (.text:setvbuf)
                  00013658    000000da     portasm.obj (.text)
                  00013732    00000002     --HOLE-- [fill = 0]
                  00013734    000000d8     usblib.lib : usbdenum.obj (.text:USBDeviceEnumHandler)
                  0001380c    000000d4                : usbdcdc.obj (.text:HandleRequests)
                  000138e0    000000d2     text_controls.obj (.text)
                  000139b2    00000002     --HOLE-- [fill = 0]
                  000139b4    000000d0     usblib.lib : usbdma.obj (.text:uDMAUSBChannelAllocate)
                  00013a84    000000c0                : usbbuffer.obj (.text:HandleRxAvailable)
                  00013b44    000000c0     fpu.obj (.text)
                  00013c04    000000bc     usblib.lib : usbdma.obj (.text:uDMAUSBTransfer)
                  00013cc0    000000b4                : usbdcdc.obj (.text:HandleDevice)
                  00013d74    000000b1     rtsv7M4_T_le_v4SPD16_eabi.lib : _printfi.c.obj (.text:_ltostr)
                  00013e25    00000001     --HOLE-- [fill = 0]
                  00013e26    000000b0     I2C_monitor.obj (.text:_ZNSt3__26vectorIP6I2cMsgNS_9allocatorIS2_EEE6assignIPS2_EENS_9enable_ifIXaasr3std3__221__is_forward_iteratorIT_EE5valuesr3std3__216is_constructibleIS2_JNS_15iterator_traitsIS9_E9referenceEEEE5valueEvE4typeES9_S9_)
                  00013ed6    000000b0     SPI_monitor.obj (.text:_ZNSt3__26vectorIP6SpiMsgNS_9allocatorIS2_EEE6assignIPS2_EENS_9enable_ifIXaasr3std3__221__is_forward_iteratorIT_EE5valuesr3std3__216is_constructibleIS2_JNS_15iterator_traitsIS9_E9referenceEEEE5valueEvE4typeES9_S9_)
                  00013f86    0000009c     rtsv7M4_T_le_v4SPD16_eabi.lib : memcpy_t2.asm.obj (.text)
                  00014022    00000002     --HOLE-- [fill = 0]
                  00014024    00000098     usblib.lib : usbdenum.obj (.text:USBDSetInterface)
                  000140bc    00000096                : usbdcdc.obj (.text:CDCTickHandler)
                  00014152    00000096     rtsv7M4_T_le_v4SPD16_eabi.lib : ull_div_t2.asm.obj (.text)
                  000141e8    00000094     usblib.lib : usbdcdc.obj (.text:SendSerialState)
                  0001427c    00000092                : usbbuffer.obj (.text:ScheduleNextTransmission)
                  0001430e    00000090                : usbdcdc.obj (.text:USBDCDCPacketRead)
                  0001439e    00000002     --HOLE-- [fill = 0]
                  000143a0    00000090                : usbdenum.obj (.text:USBDSetConfiguration)
                  00014430    0000008c                : usbdconfig.obj (.text:USBDeviceConfigAlternate)
                  000144bc    00000088                : usbdma.obj (.text:iDMAUSBChannelAllocate)
                  00014544    00000086     rtsv7M4_T_le_v4SPD16_eabi.lib : fd_cmp_t2.asm.obj (.text:__aeabi_cdcmple)
                  000145ca    00000086                                   : fd_cmp_t2.asm.obj (.text:__aeabi_cdrcmple)
                  00014650    0000007c     usblib.lib : usbdenum.obj (.text:USBDClearFeature)
                  000146cc    0000007c     rtsv7M4_T_le_v4SPD16_eabi.lib : fflush.c.obj (.text:fflush)
                  00014748    0000007a                                   : memset_t2.asm.obj (.text)
                  000147c2    00000002     --HOLE-- [fill = 0]
                  000147c4    00000078     usblib.lib : usbdenum.obj (.text:USBDGetStatus)
                  0001483c    00000074     rtsv7M4_T_le_v4SPD16_eabi.lib : fclose.c.obj (.text:__TI_closefile)
                  000148b0    00000072     usblib.lib : usbdcdc.obj (.text:ProcessDataFromHost)
                  00014922    00000072                : usbdma.obj (.text:uDMAUSBUnitSizeSet)
                  00014994    00000070                : usbdenum.obj (.text:USBDEP0StateTx)
                  00014a04    00000070                : usbdenum.obj (.text:USBDSetFeature)
                  00014a74    00000070     rtsv7M4_T_le_v4SPD16_eabi.lib : memory.c.obj (.text:split)
                  00014ae4    00000070     usblib.lib : usbdma.obj (.text:uDMAUSBArbSizeSet)
                  00014b54    0000006e     rtsv7M4_T_le_v4SPD16_eabi.lib : _printfi.c.obj (.text:_mcpy)
                  00014bc2    00000002     --HOLE-- [fill = 0]
                  00014bc4    0000006c                                   : hostrename.c.obj (.text:HOSTrename)
                  00014c30    0000006c     usblib.lib : usbdcdc.obj (.text:ProcessDataToHost)
                  00014c9c    0000006c     console_task.obj (.text:_ZNSt3__26vectorIP11ConsolePageNS_9allocatorIS2_EEE26__swap_out_circular_bufferERNS_14__split_bufferIS2_RS4_EE)
                  00014d08    0000006c     I2C_task.obj (.text:_ZNSt3__26vectorIP6I2cMsgNS_9allocatorIS2_EEE26__swap_out_circular_bufferERNS_14__split_bufferIS2_RS4_EE)
                  00014d74    0000006c     SPI_command.obj (.text:_ZNSt3__26vectorIP6SpiMsgNS_9allocatorIS2_EEE26__swap_out_circular_bufferERNS_14__split_bufferIS2_RS4_EE)
                  00014de0    0000006c     menu_page.obj (.text:_ZNSt3__26vectorIP7MenuRowNS_9allocatorIS2_EEE26__swap_out_circular_bufferERNS_14__split_bufferIS2_RS4_EE)
                  00014e4c    00000068     rtsv7M4_T_le_v4SPD16_eabi.lib : hostlseek.c.obj (.text:HOSTlseek)
                  00014eb4    00000068                                   : copy_decompress_lzss.c.obj (.text:decompress:lzss:__TI_decompress_lzss)
                  00014f1c    00000064     usblib.lib : usbbuffer.obj (.text:USBBufferEventCallback)
                  00014f80    00000064     console_task.obj (.text:_ZNSt3__26vectorIP11ConsolePageNS_9allocatorIS2_EEE21__push_back_slow_pathIRKS2_EEvOT_)
                  00014fe4    00000064     I2C_task.obj (.text:_ZNSt3__26vectorIP6I2cMsgNS_9allocatorIS2_EEE21__push_back_slow_pathIS2_EEvOT_)
                  00015048    00000064     SPI_command.obj (.text:_ZNSt3__26vectorIP6SpiMsgNS_9allocatorIS2_EEE21__push_back_slow_pathIS2_EEvOT_)
                  000150ac    00000064     menu_page.obj (.text:_ZNSt3__26vectorIP7MenuRowNS_9allocatorIS2_EEE21__push_back_slow_pathIRKS2_EEvOT_)
                  00015110    00000064     rtsv7M4_T_le_v4SPD16_eabi.lib : s_frexp.c.obj (.text:frexp)
                  00015174    00000064                                   : fseek.c.obj (.text:fseek)
                  000151d8    00000064     usblib.lib : usbdma.obj (.text:uDMAUSBChannelEnable)
                  0001523c    00000062     I2C_task.obj (.text:_ZNSt3__26vectorIP6I2cMsgNS_9allocatorIS2_EEE9push_backEOS2_)
                  0001529e    00000062     SPI_command.obj (.text:_ZNSt3__26vectorIP6SpiMsgNS_9allocatorIS2_EEE9push_backEOS2_)
                  00015300    00000062     rtsv7M4_T_le_v4SPD16_eabi.lib : _io_perm.c.obj (.text:__TI_wrt_ok)
                  00015362    00000002     --HOLE-- [fill = 0]
                  00015364    00000060                                   : hostopen.c.obj (.text:HOSTopen)
                  000153c4    00000060     usblib.lib : usbdcdc.obj (.text:USBDCDCPacketWrite)
                  00015424    00000060                : usbdenum.obj (.text:USBDReadAndDispatchRequest)
                  00015484    00000060     console_task.obj (.text:_ZNSt3__214__split_bufferIP11ConsolePageRNS_9allocatorIS2_EEEC1EjjS5_)
                  000154e4    00000060     I2C_task.obj (.text:_ZNSt3__214__split_bufferIP6I2cMsgRNS_9allocatorIS2_EEEC1EjjS5_)
                  00015544    00000060     SPI_command.obj (.text:_ZNSt3__214__split_bufferIP6SpiMsgRNS_9allocatorIS2_EEEC1EjjS5_)
                  000155a4    00000060     menu_page.obj (.text:_ZNSt3__214__split_bufferIP7MenuRowRNS_9allocatorIS2_EEEC1EjjS5_)
                  00015604    00000060     utils.obj (.text)
                  00015664    0000005c     rtsv7M4_T_le_v4SPD16_eabi.lib : close.c.obj (.text:close)
                  000156c0    00000058                                   : hostread.c.obj (.text:HOSTread)
                  00015718    00000058                                   : hostwrite.c.obj (.text:HOSTwrite)
                  00015770    00000056     console_task.obj (.text:_ZNKSt3__26vectorIP11ConsolePageNS_9allocatorIS2_EEE17__annotate_deleteEv)
                  000157c6    00000056     I2C_task.obj (.text:_ZNKSt3__26vectorIP6I2cMsgNS_9allocatorIS2_EEE17__annotate_deleteEv)
                  0001581c    00000056     SPI_command.obj (.text:_ZNKSt3__26vectorIP6SpiMsgNS_9allocatorIS2_EEE17__annotate_deleteEv)
                  00015872    00000056     menu_page.obj (.text:_ZNKSt3__26vectorIP7MenuRowNS_9allocatorIS2_EEE17__annotate_deleteEv)
                  000158c8    00000056     console_task.obj (.text:_ZNSt3__26vectorIP11ConsolePageNS_9allocatorIS2_EEE9push_backERKS2_)
                  0001591e    00000056     menu_page.obj (.text:_ZNSt3__26vectorIP7MenuRowNS_9allocatorIS2_EEE9push_backERKS2_)
                  00015974    00000056     rtsv7M4_T_le_v4SPD16_eabi.lib : _printfi.c.obj (.text:_pconv_f)
                  000159ca    00000056     usblib.lib : usbdma.obj (.text:uDMAUSBChannelRelease)
                  00015a20    00000054     console_task.obj (.text:_ZNKSt3__26vectorIP11ConsolePageNS_9allocatorIS2_EEE14__annotate_newEj)
                  00015a74    00000054     I2C_monitor.obj (.text:_ZNKSt3__26vectorIP6I2cMsgNS_9allocatorIS2_EEE14__annotate_newEj)
                  00015ac8    00000054     SPI_command.obj (.text:_ZNKSt3__26vectorIP6SpiMsgNS_9allocatorIS2_EEE14__annotate_newEj)
                  00015b1c    00000054     menu_page.obj (.text:_ZNKSt3__26vectorIP7MenuRowNS_9allocatorIS2_EEE14__annotate_newEj)
                  00015b70    00000054     rtsv7M4_T_le_v4SPD16_eabi.lib : _ltoa.c.obj (.text:__TI_ltoa)
                  00015bc4    00000052     usblib.lib : usbulpi.obj (.text:ULPIConfigSet)
                  00015c16    00000052     I2C_monitor.obj (.text:_ZNKSt3__26vectorIP6I2cMsgNS_9allocatorIS2_EEE17__annotate_shrinkEj)
                  00015c68    00000052     SPI_monitor.obj (.text:_ZNKSt3__26vectorIP6SpiMsgNS_9allocatorIS2_EEE17__annotate_shrinkEj)
                  00015cba    00000052     rtsv7M4_T_le_v4SPD16_eabi.lib : _printfi.c.obj (.text:_ecpy)
                  00015d0c    00000050     usblib.lib : usbdcdc.obj (.text:USBDCDCInit)
                  00015d5c    00000050                : usbdcdesc.obj (.text:USBDCDConfigDescGet)
                  00015dac    00000050                : usbdenum.obj (.text:USBDeviceResumeTickHandler)
                  00015dfc    0000004c                : usbdconfig.obj (.text:GetEPDescriptorType)
                  00015e48    0000004c                : usbdenum.obj (.text:USBDStringIndexFromRequest)
                  00015e94    0000004c     rtsv7M4_T_le_v4SPD16_eabi.lib : fflush.c.obj (.text:__TI_doflush)
                  00015ee0    0000004c                                   : atoi.c.obj (.text:atoi)
                  00015f2c    0000004c     usblib.lib : usbdma.obj (.text:iDMAUSBChannelEnable)
                  00015f78    0000004a                : usbdcdesc.obj (.text:ConfigAlternateInterfaceGet)
                  00015fc2    0000004a                : usbdcdc.obj (.text:HandleEP0Data)
                  0001600c    0000004a                : usbdcdc.obj (.text:HandleEndpoints)
                  00016056    0000004a     console_task.obj (.text:_ZNKSt3__26vectorIP11ConsolePageNS_9allocatorIS2_EEE11__recommendEj)
                  000160a0    0000004a     I2C_monitor.obj (.text:_ZNKSt3__26vectorIP6I2cMsgNS_9allocatorIS2_EEE11__recommendEj)
                  000160ea    0000004a     SPI_command.obj (.text:_ZNKSt3__26vectorIP6SpiMsgNS_9allocatorIS2_EEE11__recommendEj)
                  00016134    0000004a     menu_page.obj (.text:_ZNKSt3__26vectorIP7MenuRowNS_9allocatorIS2_EEE11__recommendEj)
                  0001617e    0000004a     usblib.lib : usbdma.obj (.text:uDMAUSBChannelDisable)
                  000161c8    00000048                : usbdenum.obj (.text:USBDCDDeviceInfoInit)
                  00016210    00000048                : usbdenum.obj (.text:USBDeviceEnumResetHandler)
                  00016258    00000048     I2C_monitor.obj (.text:_ZNSt3__26vectorIP6I2cMsgNS_9allocatorIS2_EEE8allocateEj)
                  000162a0    00000048     SPI_monitor.obj (.text:_ZNSt3__26vectorIP6SpiMsgNS_9allocatorIS2_EEE8allocateEj)
                  000162e8    00000048     rtsv7M4_T_le_v4SPD16_eabi.lib : exit.c.obj (.text:exit)
                  00016330    00000048                                   : fd_toi_t2.asm.obj (.text)
                  00016378    00000044                                   : hostclose.c.obj (.text:HOSTclose)
                  000163bc    00000044                                   : hostunlink.c.obj (.text:HOSTunlink)
                  00016400    00000044     usblib.lib : usbdenum.obj (.text:USBDGetInterface)
                  00016444    00000044     rtsv7M4_T_le_v4SPD16_eabi.lib : autoinit.c.obj (.text:__TI_auto_init_nobinit_nopinit:__TI_auto_init_nobinit_nopinit)
                  00016488    00000044                                   : getdevice.c.obj (.text:getdevice)
                  000164cc    00000044                                   : fd_tou_t2.asm.obj (.text)
                  00016510    00000040     I2C_monitor.obj (.text:_ZNSt3__213__vector_baseIP6I2cMsgNS_9allocatorIS2_EEE17__destruct_at_endEPS2_)
                  00016550    00000040     SPI_monitor.obj (.text:_ZNSt3__213__vector_baseIP6SpiMsgNS_9allocatorIS2_EEE17__destruct_at_endEPS2_)
                  00016590    00000040     I2C_monitor.obj (.text:_ZNSt3__26vectorIP6I2cMsgNS_9allocatorIS2_EEE10deallocateEv)
                  000165d0    00000040     SPI_monitor.obj (.text:_ZNSt3__26vectorIP6SpiMsgNS_9allocatorIS2_EEE10deallocateEv)
                  00016610    00000040     rtsv7M4_T_le_v4SPD16_eabi.lib : u_divt2.asm.obj (.text)
                  00016650    00000040                                   : sprintf.c.obj (.text:sprintf)
                  00016690    0000003e                                   : _printfi.c.obj (.text:_fcpy)
                  000166ce    0000003e     cpu.obj (.text)
                  0001670c    0000003c     console_task.obj (.text:_ZNSt3__216allocator_traitsINS_9allocatorIP11ConsolePageEEE20__construct_backwardIS3_EENS_9enable_ifIXaaoosr3std3__27is_sameIS4_NS1_IT_EEEE5valuentsr3std3__215__has_constructIS4_PS8_JS8_EEE5valuesr3std3__231is_trivially_move_constructibleIS8_EE5valueEvE4typeERS4_SA_SA_RSA_)
                  00016748    0000003c     I2C_task.obj (.text:_ZNSt3__216allocator_traitsINS_9allocatorIP6I2cMsgEEE20__construct_backwardIS3_EENS_9enable_ifIXaaoosr3std3__27is_sameIS4_NS1_IT_EEEE5valuentsr3std3__215__has_constructIS4_PS8_JS8_EEE5valuesr3std3__231is_trivially_move_constructibleIS8_EE5valueEvE4typeERS4_SA_SA_RSA_)
                  00016784    0000003c     I2C_monitor.obj (.text:_ZNSt3__216allocator_traitsINS_9allocatorIP6I2cMsgEEE25__construct_range_forwardIS3_EENS_9enable_ifIXaaoosr3std3__27is_sameIS4_NS1_IT_EEEE5valuentsr3std3__215__has_constructIS4_PS8_JS8_EEE5valuesr3std3__231is_trivially_move_constructibleIS8_EE5valueEvE4typeERS4_SA_SA_RSA_)
                  000167c0    0000003c     SPI_command.obj (.text:_ZNSt3__216allocator_traitsINS_9allocatorIP6SpiMsgEEE20__construct_backwardIS3_EENS_9enable_ifIXaaoosr3std3__27is_sameIS4_NS1_IT_EEEE5valuentsr3std3__215__has_constructIS4_PS8_JS8_EEE5valuesr3std3__231is_trivially_move_constructibleIS8_EE5valueEvE4typeERS4_SA_SA_RSA_)
                  000167fc    0000003c     SPI_monitor.obj (.text:_ZNSt3__216allocator_traitsINS_9allocatorIP6SpiMsgEEE25__construct_range_forwardIS3_EENS_9enable_ifIXaaoosr3std3__27is_sameIS4_NS1_IT_EEEE5valuentsr3std3__215__has_constructIS4_PS8_JS8_EEE5valuesr3std3__231is_trivially_move_constructibleIS8_EE5valueEvE4typeERS4_SA_SA_RSA_)
                  00016838    0000003c     menu_page.obj (.text:_ZNSt3__216allocator_traitsINS_9allocatorIP7MenuRowEEE20__construct_backwardIS3_EENS_9enable_ifIXaaoosr3std3__27is_sameIS4_NS1_IT_EEEE5valuentsr3std3__215__has_constructIS4_PS8_JS8_EEE5valuesr3std3__231is_trivially_move_constructibleIS8_EE5valueEvE4typeERS4_SA_SA_RSA_)
                  00016874    0000003c     usblib.lib : usbdma.obj (.text:iDMAUSBChannelRelease)
                  000168b0    0000003c     main.obj (.text)
                  000168ec    00000038     usblib.lib : usbtick.obj (.text:InternalUSBRegisterTickHandler)
                  00016924    00000038                : usbtick.obj (.text:InternalUSBStartOfFrameTick)
                  0001695c    00000038                : usbdcdc.obj (.text:SendBreak)
                  00016994    00000038                : usbdcdesc.obj (.text:USBDCDConfigGetInterfaceEndpoint)
                  000169cc    00000038                : usbringbuf.obj (.text:USBRingBufAdvanceWrite)
                  00016a04    00000038     I2C_monitor.obj (.text:_ZNSt3__26vectorIP6I2cMsgNS_9allocatorIS2_EEE18__construct_at_endIPS2_EENS_9enable_ifIXsr3std3__221__is_forward_iteratorIT_EE5valueEvE4typeES9_S9_j)
                  00016a3c    00000038     SPI_monitor.obj (.text:_ZNSt3__26vectorIP6SpiMsgNS_9allocatorIS2_EEE18__construct_at_endIPS2_EENS_9enable_ifIXsr3std3__221__is_forward_iteratorIT_EE5valueEvE4typeES9_S9_j)
                  00016a74    00000038     rtsv7M4_T_le_v4SPD16_eabi.lib : trgmsg.c.obj (.text:__TI_writemsg)
                  00016aac    00000036     console_task.obj (.text:_ZNSt3__214__split_bufferIP11ConsolePageRNS_9allocatorIS2_EEE17__destruct_at_endEPS2_NS_17integral_constantIbLb0EEE)
                  00016ae2    00000036     I2C_task.obj (.text:_ZNSt3__214__split_bufferIP6I2cMsgRNS_9allocatorIS2_EEE17__destruct_at_endEPS2_NS_17integral_constantIbLb0EEE)
                  00016b18    00000036     SPI_command.obj (.text:_ZNSt3__214__split_bufferIP6SpiMsgRNS_9allocatorIS2_EEE17__destruct_at_endEPS2_NS_17integral_constantIbLb0EEE)
                  00016b4e    00000036     menu_page.obj (.text:_ZNSt3__214__split_bufferIP7MenuRowRNS_9allocatorIS2_EEE17__destruct_at_endEPS2_NS_17integral_constantIbLb0EEE)
                  00016b84    00000036     rtsv7M4_T_le_v4SPD16_eabi.lib : strncpy.c.obj (.text:strncpy)
                  00016bba    00000034     usblib.lib : usbdcdc.obj (.text:HandleConfigChange)
                  00016bee    00000034                : usbdcdesc.obj (.text:NextConfigDescGet)
                  00016c22    00000002     --HOLE-- [fill = 0]
                  00016c24    00000034     rtsv7M4_T_le_v4SPD16_eabi.lib : fopen.c.obj (.text:__TI_cleanup)
                  00016c58    00000034                                   : trgmsg.c.obj (.text:__TI_readmsg)
                  00016c8c    00000034                                   : boot_cortex_m.c.obj (.text:_c_int00_noargs:_c_int00_noargs)
                  00016cc0    00000034     usblib.lib : usbdma.obj (.text:iDMAUSBChannelStatus)
                  00016cf4    00000032                : usbdcdc.obj (.text:ProcessNotificationToHost)
                  00016d26    00000032     I2C_monitor.obj (.text:_ZNSt3__26__copyIP6I2cMsgS2_EENS_9enable_ifIXaasr3std3__27is_sameINS_12remove_constIT_E4typeET0_EE5valuesr3std3__228is_trivially_copy_assignableIS8_EE5valueEPS8_E4typeEPS5_SC_S9_)
                  00016d58    00000032     SPI_monitor.obj (.text:_ZNSt3__26__copyIP6SpiMsgS2_EENS_9enable_ifIXaasr3std3__27is_sameINS_12remove_constIT_E4typeET0_EE5valuesr3std3__228is_trivially_copy_assignableIS8_EE5valueEPS8_E4typeEPS5_SC_S9_)
                  00016d8a    00000032     usblib.lib : usbdma.obj (.text:iDMAUSBChannelDisable)
                  00016dbc    00000030                : usbdma.obj (.text:DMAUSBIntHandler)
                  00016dec    00000030                : usbtick.obj (.text:InternalUSBTickInit)
                  00016e1c    00000030                : usbdenum.obj (.text:USBDGetConfiguration)
                  00016e4c    00000030     rtsv7M4_T_le_v4SPD16_eabi.lib : getdevice.c.obj (.text:finddevice)
                  00016e7c    00000030     memory_functions.obj (.text)
                  00016eac    0000002e     usblib.lib : usbbuffer.obj (.text:USBBufferWrite)
                  00016eda    0000002e                : usbdcdc.obj (.text:USBDCDCRxPacketAvailable)
                  00016f08    0000002e                : usbringbuf.obj (.text:UpdateIndexAtomic)
                  00016f36    0000002e     console_task.obj (.text:_ZNSt3__214__split_bufferIP11ConsolePageRNS_9allocatorIS2_EEED1Ev)
                  00016f64    0000002e     I2C_task.obj (.text:_ZNSt3__214__split_bufferIP6I2cMsgRNS_9allocatorIS2_EEED1Ev)
                  00016f92    0000002e     SPI_command.obj (.text:_ZNSt3__214__split_bufferIP6SpiMsgRNS_9allocatorIS2_EEED1Ev)
                  00016fc0    0000002e     menu_page.obj (.text:_ZNSt3__214__split_bufferIP7MenuRowRNS_9allocatorIS2_EEED1Ev)
                  00016fee    0000002e     console_task.obj (.text:_ZNSt3__29allocatorIP11ConsolePageE9constructIS2_JRKS2_EEEvPT_DpOT0_)
                  0001701c    0000002e     I2C_task.obj (.text:_ZNSt3__29allocatorIP6I2cMsgE9constructIS2_JS2_EEEvPT_DpOT0_)
                  0001704a    0000002e     SPI_command.obj (.text:_ZNSt3__29allocatorIP6SpiMsgE9constructIS2_JS2_EEEvPT_DpOT0_)
                  00017078    0000002e     menu_page.obj (.text:_ZNSt3__29allocatorIP7MenuRowE9constructIS2_JRKS2_EEEvPT_DpOT0_)
                  000170a6    0000002e     rtsv7M4_T_le_v4SPD16_eabi.lib : i_tofd_t2.asm.obj (.text)
                  000170d4    0000002c     usblib.lib : usbdcdesc.obj (.text:USBDCDConfigDescGetNum)
                  00017100    0000002c                : usbdesc.obj (.text:USBDescGet)
                  0001712c    0000002c                : usbdma.obj (.text:uDMAUSBIntStatus)
                  00017158    0000002c     rtsv7M4_T_le_v4SPD16_eabi.lib : unlink.c.obj (.text:unlink)
                  00017184    0000002a     usblib.lib : usbbuffer.obj (.text:HandleRequestBuffer)
                  000171ae    0000002a                : usbdcdc.obj (.text:USBDCDCSerialStateChange)
                  000171d8    0000002a                : usbdesc.obj (.text:USBDescGetNum)
                  00017202    0000002a     console_task.obj (.text:_ZNSt3__217__compressed_pairIPP11ConsolePageRNS_9allocatorIS2_EEEC1IDnS6_EEOT_OT0_)
                  0001722c    0000002a     I2C_task.obj (.text:_ZNSt3__217__compressed_pairIPP6I2cMsgRNS_9allocatorIS2_EEEC1IDnS6_EEOT_OT0_)
                  00017256    0000002a     SPI_command.obj (.text:_ZNSt3__217__compressed_pairIPP6SpiMsgRNS_9allocatorIS2_EEEC1IDnS6_EEOT_OT0_)
                  00017280    0000002a     menu_page.obj (.text:_ZNSt3__217__compressed_pairIPP7MenuRowRNS_9allocatorIS2_EEEC1IDnS6_EEOT_OT0_)
                  000172aa    0000002a     I2C_monitor.obj (.text:_ZNSt3__24copyIPP6I2cMsgS3_EET0_T_S5_S4_)
                  000172d4    0000002a     SPI_monitor.obj (.text:_ZNSt3__24copyIPP6SpiMsgS3_EET0_T_S5_S4_)
                  000172fe    0000002a     console_task.obj (.text:_ZNSt3__24swapIPP11ConsolePageEENS_9enable_ifIXaasr3std3__221is_move_constructibleIT_EE5valuesr3std3__218is_move_assignableIS5_EE5valueEvE4typeERS5_S8_)
                  00017328    0000002a     I2C_task.obj (.text:_ZNSt3__24swapIPP6I2cMsgEENS_9enable_ifIXaasr3std3__221is_move_constructibleIT_EE5valuesr3std3__218is_move_assignableIS5_EE5valueEvE4typeERS5_S8_)
                  00017352    0000002a     SPI_command.obj (.text:_ZNSt3__24swapIPP6SpiMsgEENS_9enable_ifIXaasr3std3__221is_move_constructibleIT_EE5valuesr3std3__218is_move_assignableIS5_EE5valueEvE4typeERS5_S8_)
                  0001737c    0000002a     menu_page.obj (.text:_ZNSt3__24swapIPP7MenuRowEENS_9enable_ifIXaasr3std3__221is_move_constructibleIT_EE5valuesr3std3__218is_move_assignableIS5_EE5valueEvE4typeERS5_S8_)
                  000173a6    0000002a     hooks.obj (.text)
                  000173d0    00000028     usblib.lib : usbbuffer.obj (.text:USBBufferRead)
                  000173f8    00000028                : usbdenum.obj (.text:USBDSetAddress)
                  00017420    00000028     console_task.obj (.text:_ZNSt3__213__vector_baseIP11ConsolePageNS_9allocatorIS2_EEEC1Ev)
                  00017448    00000028     I2C_monitor.obj (.text:_ZNSt3__213__vector_baseIP6I2cMsgNS_9allocatorIS2_EEEC1Ev)
                  00017470    00000028     SPI_command.obj (.text:_ZNSt3__213__vector_baseIP6SpiMsgNS_9allocatorIS2_EEEC1Ev)
                  00017498    00000028     menu_page.obj (.text:_ZNSt3__213__vector_baseIP7MenuRowNS_9allocatorIS2_EEEC1Ev)
                  000174c0    00000028     I2C_monitor.obj (.text:_ZNSt3__26vectorIP6I2cMsgNS_9allocatorIS2_EEE17__destruct_at_endEPS2_)
                  000174e8    00000028     I2C_monitor.obj (.text:_ZNSt3__26vectorIP6I2cMsgNS_9allocatorIS2_EEEaSERKS5_)
                  00017510    00000028     SPI_monitor.obj (.text:_ZNSt3__26vectorIP6SpiMsgNS_9allocatorIS2_EEE17__destruct_at_endEPS2_)
                  00017538    00000028     SPI_monitor.obj (.text:_ZNSt3__26vectorIP6SpiMsgNS_9allocatorIS2_EEEaSERKS5_)
                  00017560    00000028     console_task.obj (.text:_ZNSt3__29allocatorIP11ConsolePageE8allocateEjPKv)
                  00017588    00000028     I2C_monitor.obj (.text:_ZNSt3__29allocatorIP6I2cMsgE8allocateEjPKv)
                  000175b0    00000028     SPI_command.obj (.text:_ZNSt3__29allocatorIP6SpiMsgE8allocateEjPKv)
                  000175d8    00000028     menu_page.obj (.text:_ZNSt3__29allocatorIP7MenuRowE8allocateEjPKv)
                  00017600    00000028     rtsv7M4_T_le_v4SPD16_eabi.lib : memory.c.obj (.text:free_list_insert)
                  00017628    00000028                                   : lseek.c.obj (.text:lseek)
                  00017650    00000028                                   : memmov.c.obj (.text:memmove)
                  00017678    00000028                                   : write.c.obj (.text:write)
                  000176a0    00000024     usblib.lib : usbdcdc.obj (.text:HandleDisconnect)
                  000176c4    00000024                : usbdcdc.obj (.text:SendLineStateChange)
                  000176e8    00000024                : usbmode.obj (.text:USBStackModeSet)
                  0001770c    00000024     console_task.obj (.text:_ZNKSt3__26vectorIP11ConsolePageNS_9allocatorIS2_EEE8max_sizeEv)
                  00017730    00000024     I2C_monitor.obj (.text:_ZNKSt3__26vectorIP6I2cMsgNS_9allocatorIS2_EEE8max_sizeEv)
                  00017754    00000024     SPI_command.obj (.text:_ZNKSt3__26vectorIP6SpiMsgNS_9allocatorIS2_EEE8max_sizeEv)
                  00017778    00000024     menu_page.obj (.text:_ZNKSt3__26vectorIP7MenuRowNS_9allocatorIS2_EEE8max_sizeEv)
                  0001779c    00000024     console_task.obj (.text:_ZNSt3__216allocator_traitsINS_9allocatorIP11ConsolePageEEE11__constructIS3_JRKS3_EEEvNS_17integral_constantIbLb1EEERS4_PT_DpOT0_)
                  000177c0    00000024     console_task.obj (.text:_ZNSt3__216allocator_traitsINS_9allocatorIP11ConsolePageEEE9constructIS3_JRKS3_EEEvRS4_PT_DpOT0_)
                  000177e4    00000024     I2C_task.obj (.text:_ZNSt3__216allocator_traitsINS_9allocatorIP6I2cMsgEEE11__constructIS3_JS3_EEEvNS_17integral_constantIbLb1EEERS4_PT_DpOT0_)
                  00017808    00000024     I2C_task.obj (.text:_ZNSt3__216allocator_traitsINS_9allocatorIP6I2cMsgEEE9constructIS3_JS3_EEEvRS4_PT_DpOT0_)
                  0001782c    00000024     SPI_command.obj (.text:_ZNSt3__216allocator_traitsINS_9allocatorIP6SpiMsgEEE11__constructIS3_JS3_EEEvNS_17integral_constantIbLb1EEERS4_PT_DpOT0_)
                  00017850    00000024     SPI_command.obj (.text:_ZNSt3__216allocator_traitsINS_9allocatorIP6SpiMsgEEE9constructIS3_JS3_EEEvRS4_PT_DpOT0_)
                  00017874    00000024     menu_page.obj (.text:_ZNSt3__216allocator_traitsINS_9allocatorIP7MenuRowEEE11__constructIS3_JRKS3_EEEvNS_17integral_constantIbLb1EEERS4_PT_DpOT0_)
                  00017898    00000024     menu_page.obj (.text:_ZNSt3__216allocator_traitsINS_9allocatorIP7MenuRowEEE9constructIS3_JRKS3_EEEvRS4_PT_DpOT0_)
                  000178bc    00000022     usblib.lib : usbdcdc.obj (.text:SendLineCodingChange)
                  000178de    00000022     I2C_monitor.obj (.text:_ZNSt3__26vectorIP6I2cMsgNS_9allocatorIS2_EEE5clearEv)
                  00017900    00000022     SPI_monitor.obj (.text:_ZNSt3__26vectorIP6SpiMsgNS_9allocatorIS2_EEE5clearEv)
                  00017922    00000022     usblib.lib : usbdma.obj (.text:uDMAUSBChannelStatus)
                  00017944    00000020                : usbdcdc.obj (.text:CheckAndSendBreak)
                  00017964    00000020                : usbdconfig.obj (.text:GetEndpointFIFOSize)
                  00017984    00000020                : usbbuffer.obj (.text:HandleDataRemaining)
                  000179a4    00000020                : usbringbuf.obj (.text:USBRingBufAdvanceRead)
                  000179c4    00000020     rtsv7M4_T_le_v4SPD16_eabi.lib : memchr.c.obj (.text:memchr)
                  000179e4    00000020                                   : u_tofd_t2.asm.obj (.text)
                  00017a04    0000001e     usblib.lib : usbringbuf.obj (.text:USBRingBufContigFree)
                  00017a22    0000001e     I2C_monitor.obj (.text:_ZNKSt3__26__lessIjjEclERKjS3_)
                  00017a40    0000001e     console_task.obj (.text:_ZNSt3__217__compressed_pairIPP11ConsolePageNS_9allocatorIS2_EEEC1IDnLb1EEEOT_)
                  00017a5e    0000001e     I2C_monitor.obj (.text:_ZNSt3__217__compressed_pairIPP6I2cMsgNS_9allocatorIS2_EEEC1IDnLb1EEEOT_)
                  00017a7c    0000001e     SPI_command.obj (.text:_ZNSt3__217__compressed_pairIPP6SpiMsgNS_9allocatorIS2_EEEC1IDnLb1EEEOT_)
                  00017a9a    0000001e     menu_page.obj (.text:_ZNSt3__217__compressed_pairIPP7MenuRowNS_9allocatorIS2_EEEC1IDnLb1EEEOT_)
                  00017ab8    0000001e     I2C_monitor.obj (.text:_ZNSt3__23maxIjNS_6__lessIjjEEEERKT_S5_S5_T0_)
                  00017ad6    0000001e     I2C_monitor.obj (.text:_ZNSt3__23minIjNS_6__lessIjjEEEERKT_S5_S5_T0_)
                  00017af4    0000001c     usblib.lib : usbdcdesc.obj (.text:USBDCDConfigGetInterface)
                  00017b10    0000001c                : usbdenum.obj (.text:USBDCDStallEP0)
                  00017b2c    0000001c                : usbringbuf.obj (.text:USBRingBufRead)
                  00017b48    0000001c                : usbringbuf.obj (.text:USBRingBufWrite)
                  00017b64    0000001c     I2C_monitor.obj (.text:_ZNSt3__29__advanceIPP6I2cMsgEEvRT_NS_15iterator_traitsIS4_E15difference_typeENS_26random_access_iterator_tagE)
                  00017b80    0000001c     SPI_monitor.obj (.text:_ZNSt3__29__advanceIPP6SpiMsgEEvRT_NS_15iterator_traitsIS4_E15difference_typeENS_26random_access_iterator_tagE)
                  00017b9c    0000001c     rtsv7M4_T_le_v4SPD16_eabi.lib : assert.c.obj (.text:_abort_msg)
                  00017bb8    0000001c                                   : memory.c.obj (.text:free_list_remove)
                  00017bd4    0000001c                                   : memccpy.c.obj (.text:memccpy)
                  00017bf0    0000001a     usblib.lib : usbdcdc.obj (.text:DeviceConsumedAllData)
                  00017c0a    0000001a                : usbdcdesc.obj (.text:USBDCDConfigDescGetSize)
                  00017c24    0000001a     rtsv7M4_T_le_v4SPD16_eabi.lib : s_copysign.c.obj (.text:copysign)
                  00017c3e    00000018     usblib.lib : usbdcdc.obj (.text:SetDeferredOpFlag)
                  00017c56    00000002     --HOLE-- [fill = 0]
                  00017c58    00000018                : usbdhandler.obj (.text:USB0DeviceIntHandler)
                  00017c70    00000018                : usbbuffer.obj (.text:USBBufferInit)
                  00017c88    00000018                : usbdenum.obj (.text:USBDCDFeatureGet)
                  00017ca0    00000018                : usbdenum.obj (.text:USBDSetDescriptor)
                  00017cb8    00000018                : usbdenum.obj (.text:USBDSyncFrame)
                  00017cd0    00000018     I2C_monitor.obj (.text:_ZNSt3__210__distanceIPP6I2cMsgEENS_15iterator_traitsIT_E15difference_typeES5_S5_NS_26random_access_iterator_tagE)
                  00017ce8    00000018     SPI_monitor.obj (.text:_ZNSt3__210__distanceIPP6SpiMsgEENS_15iterator_traitsIT_E15difference_typeES5_S5_NS_26random_access_iterator_tagE)
                  00017d00    00000018     rtsv7M4_T_le_v4SPD16_eabi.lib : sprintf.c.obj (.text:_outs)
                  00017d18    00000018                                   : strcmp.c.obj (.text:strcmp)
                  00017d30    00000016     usblib.lib : usbdcdc.obj (.text:CheckAndSendLineCodingChange)
                  00017d46    00000016                : usbdcdc.obj (.text:CheckAndSendLineStateChange)
                  00017d5c    00000016                : usbringbuf.obj (.text:USBRingBufFlush)
                  00017d72    00000016                : usbringbuf.obj (.text:USBRingBufReadOne)
                  00017d88    00000016                : usbringbuf.obj (.text:USBRingBufUsed)
                  00017d9e    00000016     console_task.obj (.text:_ZNKSt3__213__vector_baseIP11ConsolePageNS_9allocatorIS2_EEE8capacityEv)
                  00017db4    00000016     I2C_monitor.obj (.text:_ZNKSt3__213__vector_baseIP6I2cMsgNS_9allocatorIS2_EEE8capacityEv)
                  00017dca    00000016     SPI_command.obj (.text:_ZNKSt3__213__vector_baseIP6SpiMsgNS_9allocatorIS2_EEE8capacityEv)
                  00017de0    00000016     menu_page.obj (.text:_ZNKSt3__213__vector_baseIP7MenuRowNS_9allocatorIS2_EEE8capacityEv)
                  00017df6    00000016     console_task.obj (.text:_ZNKSt3__214__split_bufferIP11ConsolePageRNS_9allocatorIS2_EEE8capacityEv)
                  00017e0c    00000016     I2C_task.obj (.text:_ZNKSt3__214__split_bufferIP6I2cMsgRNS_9allocatorIS2_EEE8capacityEv)
                  00017e22    00000016     SPI_command.obj (.text:_ZNKSt3__214__split_bufferIP6SpiMsgRNS_9allocatorIS2_EEE8capacityEv)
                  00017e38    00000016     menu_page.obj (.text:_ZNKSt3__214__split_bufferIP7MenuRowRNS_9allocatorIS2_EEE8capacityEv)
                  00017e4e    00000016     console_task.obj (.text:_ZNKSt3__26vectorIP11ConsolePageNS_9allocatorIS2_EEE4sizeEv)
                  00017e64    00000016     I2C_monitor.obj (.text:_ZNKSt3__26vectorIP6I2cMsgNS_9allocatorIS2_EEE4sizeEv)
                  00017e7a    00000016     SPI_command.obj (.text:_ZNKSt3__26vectorIP6SpiMsgNS_9allocatorIS2_EEE4sizeEv)
                  00017e90    00000016     menu_page.obj (.text:_ZNKSt3__26vectorIP7MenuRowNS_9allocatorIS2_EEE4sizeEv)
                  00017ea6    00000016     console_task.obj (.text:_ZNSt3__222__compressed_pair_elemIPP11ConsolePageLi0ELb0EEC1IDnvEEOT_)
                  00017ebc    00000016     I2C_monitor.obj (.text:_ZNSt3__222__compressed_pair_elemIPP6I2cMsgLi0ELb0EEC1IDnvEEOT_)
                  00017ed2    00000016     SPI_command.obj (.text:_ZNSt3__222__compressed_pair_elemIPP6SpiMsgLi0ELb0EEC1IDnvEEOT_)
                  00017ee8    00000016     menu_page.obj (.text:_ZNSt3__222__compressed_pair_elemIPP7MenuRowLi0ELb0EEC1IDnvEEOT_)
                  00017efe    00000016     console_task.obj (.text:_ZNSt3__26vectorIP11ConsolePageNS_9allocatorIS2_EEEixEj)
                  00017f14    00000016     I2C_monitor.obj (.text:_ZNSt3__26vectorIP6I2cMsgNS_9allocatorIS2_EEEixEj)
                  00017f2a    00000016     SPI_command.obj (.text:_ZNSt3__26vectorIP6SpiMsgNS_9allocatorIS2_EEEixEj)
                  00017f40    00000016     menu_page.obj (.text:_ZNSt3__26vectorIP7MenuRowNS_9allocatorIS2_EEEixEj)
                  00017f56    00000016     rtsv7M4_T_le_v4SPD16_eabi.lib : strchr.c.obj (.text:strchr)
                  00017f6c    00000014     usblib.lib : usbbuffer.obj (.text:HandleTxComplete)
                  00017f80    00000014                : usbdcdc.obj (.text:USBDCDCTxPacketAvailable)
                  00017f94    00000014                : usbdenum.obj (.text:USBDCDRequestDataEP0)
                  00017fa8    00000014                : usbdenum.obj (.text:USBDCDSendDataEP0)
                  00017fbc    00000014     I2C_monitor.obj (.text:_ZNSt3__213__vector_baseIP6I2cMsgNS_9allocatorIS2_EEE19__copy_assign_allocERKS5_)
                  00017fd0    00000014     SPI_monitor.obj (.text:_ZNSt3__213__vector_baseIP6SpiMsgNS_9allocatorIS2_EEE19__copy_assign_allocERKS5_)
                  00017fe4    00000014     console_task.obj (.text:_ZNSt3__214__split_bufferIP11ConsolePageRNS_9allocatorIS2_EEE17__destruct_at_endEPS2_)
                  00017ff8    00000014     I2C_task.obj (.text:_ZNSt3__214__split_bufferIP6I2cMsgRNS_9allocatorIS2_EEE17__destruct_at_endEPS2_)
                  0001800c    00000014     SPI_command.obj (.text:_ZNSt3__214__split_bufferIP6SpiMsgRNS_9allocatorIS2_EEE17__destruct_at_endEPS2_)
                  00018020    00000014     menu_page.obj (.text:_ZNSt3__214__split_bufferIP7MenuRowRNS_9allocatorIS2_EEE17__destruct_at_endEPS2_)
                  00018034    00000014     console_task.obj (.text:_ZNSt3__216allocator_traitsINS_9allocatorIP11ConsolePageEEE10deallocateERS4_PS3_j)
                  00018048    00000014     console_task.obj (.text:_ZNSt3__216allocator_traitsINS_9allocatorIP11ConsolePageEEE7destroyIS3_EEvRS4_PT_)
                  0001805c    00000014     console_task.obj (.text:_ZNSt3__216allocator_traitsINS_9allocatorIP11ConsolePageEEE9__destroyIS3_EEvNS_17integral_constantIbLb1EEERS4_PT_)
                  00018070    00000014     I2C_monitor.obj (.text:_ZNSt3__216allocator_traitsINS_9allocatorIP6I2cMsgEEE10deallocateERS4_PS3_j)
                  00018084    00000014     I2C_monitor.obj (.text:_ZNSt3__216allocator_traitsINS_9allocatorIP6I2cMsgEEE7destroyIS3_EEvRS4_PT_)
                  00018098    00000014     I2C_monitor.obj (.text:_ZNSt3__216allocator_traitsINS_9allocatorIP6I2cMsgEEE9__destroyIS3_EEvNS_17integral_constantIbLb1EEERS4_PT_)
                  000180ac    00000014     SPI_command.obj (.text:_ZNSt3__216allocator_traitsINS_9allocatorIP6SpiMsgEEE10deallocateERS4_PS3_j)
                  000180c0    00000014     SPI_command.obj (.text:_ZNSt3__216allocator_traitsINS_9allocatorIP6SpiMsgEEE7destroyIS3_EEvRS4_PT_)
                  000180d4    00000014     SPI_command.obj (.text:_ZNSt3__216allocator_traitsINS_9allocatorIP6SpiMsgEEE9__destroyIS3_EEvNS_17integral_constantIbLb1EEERS4_PT_)
                  000180e8    00000014     menu_page.obj (.text:_ZNSt3__216allocator_traitsINS_9allocatorIP7MenuRowEEE10deallocateERS4_PS3_j)
                  000180fc    00000014     menu_page.obj (.text:_ZNSt3__216allocator_traitsINS_9allocatorIP7MenuRowEEE7destroyIS3_EEvRS4_PT_)
                  00018110    00000014     menu_page.obj (.text:_ZNSt3__216allocator_traitsINS_9allocatorIP7MenuRowEEE9__destroyIS3_EEvNS_17integral_constantIbLb1EEERS4_PT_)
                  00018124    00000014     console_task.obj (.text:_ZNSt3__222__compressed_pair_elemIRNS_9allocatorIP11ConsolePageEELi1ELb0EEC1IS5_vEEOT_)
                  00018138    00000014     I2C_task.obj (.text:_ZNSt3__222__compressed_pair_elemIRNS_9allocatorIP6I2cMsgEELi1ELb0EEC1IS5_vEEOT_)
                  0001814c    00000014     SPI_command.obj (.text:_ZNSt3__222__compressed_pair_elemIRNS_9allocatorIP6SpiMsgEELi1ELb0EEC1IS5_vEEOT_)
                  00018160    00000014     menu_page.obj (.text:_ZNSt3__222__compressed_pair_elemIRNS_9allocatorIP7MenuRowEELi1ELb0EEC1IS5_vEEOT_)
                  00018174    00000014     I2C_monitor.obj (.text:_ZNSt3__23maxIjEERKT_S3_S3_)
                  00018188    00000014     I2C_monitor.obj (.text:_ZNSt3__23minIjEERKT_S3_S3_)
                  0001819c    00000014     I2C_monitor.obj (.text:_ZNSt3__27advanceIPP6I2cMsgEEvRT_NS_15iterator_traitsIS4_E15difference_typeE)
                  000181b0    00000014     SPI_monitor.obj (.text:_ZNSt3__27advanceIPP6SpiMsgEEvRT_NS_15iterator_traitsIS4_E15difference_typeE)
                  000181c4    00000014     I2C_monitor.obj (.text:_ZNSt3__28distanceIPP6I2cMsgEENS_15iterator_traitsIT_E15difference_typeES5_S5_)
                  000181d8    00000014     SPI_monitor.obj (.text:_ZNSt3__28distanceIPP6SpiMsgEENS_15iterator_traitsIT_E15difference_typeES5_S5_)
                  000181ec    00000014     rtsv7M4_T_le_v4SPD16_eabi.lib : strcpy.c.obj (.text:strcpy)
                  00018200    00000014                                   : strlen.c.obj (.text:strlen)
                  00018214    00000012     usblib.lib : usbdcdc.obj (.text:HandleResume)
                  00018226    00000012                : usbdcdc.obj (.text:HandleSuspend)
                  00018238    00000012                : usbringbuf.obj (.text:USBRingBufFree)
                  0001824a    00000012     console_task.obj (.text:_ZNSt3__216allocator_traitsINS_9allocatorIP11ConsolePageEEE8allocateERS4_j)
                  0001825c    00000012     I2C_monitor.obj (.text:_ZNSt3__216allocator_traitsINS_9allocatorIP6I2cMsgEEE8allocateERS4_j)
                  0001826e    00000012     SPI_command.obj (.text:_ZNSt3__216allocator_traitsINS_9allocatorIP6SpiMsgEEE8allocateERS4_j)
                  00018280    00000012     menu_page.obj (.text:_ZNSt3__216allocator_traitsINS_9allocatorIP7MenuRowEEE8allocateERS4_j)
                  00018292    00000012     rtsv7M4_T_le_v4SPD16_eabi.lib : wcslen.c.obj (.text:wcslen)
                  000182a4    00000010     usblib.lib : usbringbuf.obj (.text:USBRingBufContigUsed)
                  000182b4    00000010                : usbringbuf.obj (.text:USBRingBufWriteOne)
                  000182c4    00000010     console_task.obj (.text:_ZNKSt3__26vectorIP11ConsolePageNS_9allocatorIS2_EEE31__annotate_contiguous_containerEPKvS7_S7_S7_)
                  000182d4    00000010     I2C_monitor.obj (.text:_ZNKSt3__26vectorIP6I2cMsgNS_9allocatorIS2_EEE31__annotate_contiguous_containerEPKvS7_S7_S7_)
                  000182e4    00000010     SPI_command.obj (.text:_ZNKSt3__26vectorIP6SpiMsgNS_9allocatorIS2_EEE31__annotate_contiguous_containerEPKvS7_S7_S7_)
                  000182f4    00000010     menu_page.obj (.text:_ZNKSt3__26vectorIP7MenuRowNS_9allocatorIS2_EEE31__annotate_contiguous_containerEPKvS7_S7_S7_)
                  00018304    00000010     I2C_monitor.obj (.text:_ZNSt3__213__vector_baseIP6I2cMsgNS_9allocatorIS2_EEE19__copy_assign_allocERKS5_NS_17integral_constantIbLb0EEE)
                  00018314    00000010     I2C_monitor.obj (.text:_ZNSt3__213__vector_baseIP6I2cMsgNS_9allocatorIS2_EEE5clearEv)
                  00018324    00000010     SPI_monitor.obj (.text:_ZNSt3__213__vector_baseIP6SpiMsgNS_9allocatorIS2_EEE19__copy_assign_allocERKS5_NS_17integral_constantIbLb0EEE)
                  00018334    00000010     SPI_monitor.obj (.text:_ZNSt3__213__vector_baseIP6SpiMsgNS_9allocatorIS2_EEE5clearEv)
                  00018344    00000010     console_task.obj (.text:_ZNSt3__214__split_bufferIP11ConsolePageRNS_9allocatorIS2_EEE5clearEv)
                  00018354    00000010     I2C_task.obj (.text:_ZNSt3__214__split_bufferIP6I2cMsgRNS_9allocatorIS2_EEE5clearEv)
                  00018364    00000010     SPI_command.obj (.text:_ZNSt3__214__split_bufferIP6SpiMsgRNS_9allocatorIS2_EEE5clearEv)
                  00018374    00000010     menu_page.obj (.text:_ZNSt3__214__split_bufferIP7MenuRowRNS_9allocatorIS2_EEE5clearEv)
                  00018384    00000010     console_task.obj (.text:_ZNSt3__216allocator_traitsINS_9allocatorIP11ConsolePageEEE10__max_sizeENS_17integral_constantIbLb1EEERKS4_)
                  00018394    00000010     console_task.obj (.text:_ZNSt3__216allocator_traitsINS_9allocatorIP11ConsolePageEEE8max_sizeERKS4_)
                  000183a4    00000010     I2C_monitor.obj (.text:_ZNSt3__216allocator_traitsINS_9allocatorIP6I2cMsgEEE10__max_sizeENS_17integral_constantIbLb1EEERKS4_)
                  000183b4    00000010     I2C_monitor.obj (.text:_ZNSt3__216allocator_traitsINS_9allocatorIP6I2cMsgEEE8max_sizeERKS4_)
                  000183c4    00000010     SPI_command.obj (.text:_ZNSt3__216allocator_traitsINS_9allocatorIP6SpiMsgEEE10__max_sizeENS_17integral_constantIbLb1EEERKS4_)
                  000183d4    00000010     SPI_command.obj (.text:_ZNSt3__216allocator_traitsINS_9allocatorIP6SpiMsgEEE8max_sizeERKS4_)
                  000183e4    00000010     menu_page.obj (.text:_ZNSt3__216allocator_traitsINS_9allocatorIP7MenuRowEEE10__max_sizeENS_17integral_constantIbLb1EEERKS4_)
                  000183f4    00000010     menu_page.obj (.text:_ZNSt3__216allocator_traitsINS_9allocatorIP7MenuRowEEE8max_sizeERKS4_)
                  00018404    00000010     console_task.obj (.text:_ZNSt3__222__compressed_pair_elemIPP11ConsolePageLi0ELb0EEC2IDnvEEOT_)
                  00018414    00000010     I2C_monitor.obj (.text:_ZNSt3__222__compressed_pair_elemIPP6I2cMsgLi0ELb0EEC2IDnvEEOT_)
                  00018424    00000010     SPI_command.obj (.text:_ZNSt3__222__compressed_pair_elemIPP6SpiMsgLi0ELb0EEC2IDnvEEOT_)
                  00018434    00000010     menu_page.obj (.text:_ZNSt3__222__compressed_pair_elemIPP7MenuRowLi0ELb0EEC2IDnvEEOT_)
                  00018444    00000010     console_task.obj (.text:_ZNSt3__222__compressed_pair_elemIRNS_9allocatorIP11ConsolePageEELi1ELb0EEC2IS5_vEEOT_)
                  00018454    00000010     I2C_task.obj (.text:_ZNSt3__222__compressed_pair_elemIRNS_9allocatorIP6I2cMsgEELi1ELb0EEC2IS5_vEEOT_)
                  00018464    00000010     SPI_command.obj (.text:_ZNSt3__222__compressed_pair_elemIRNS_9allocatorIP6SpiMsgEELi1ELb0EEC2IS5_vEEOT_)
                  00018474    00000010     menu_page.obj (.text:_ZNSt3__222__compressed_pair_elemIRNS_9allocatorIP7MenuRowEELi1ELb0EEC2IS5_vEEOT_)
                  00018484    00000010     console_task.obj (.text:_ZNSt3__26vectorIP11ConsolePageNS_9allocatorIS2_EEE24__RAII_IncreaseAnnotatorC1ERKS5_j)
                  00018494    00000010     I2C_monitor.obj (.text:_ZNSt3__26vectorIP6I2cMsgNS_9allocatorIS2_EEE24__RAII_IncreaseAnnotatorC1ERKS5_j)
                  000184a4    00000010     SPI_command.obj (.text:_ZNSt3__26vectorIP6SpiMsgNS_9allocatorIS2_EEE24__RAII_IncreaseAnnotatorC1ERKS5_j)
                  000184b4    00000010     menu_page.obj (.text:_ZNSt3__26vectorIP7MenuRowNS_9allocatorIS2_EEE24__RAII_IncreaseAnnotatorC1ERKS5_j)
                  000184c4    00000010     console_task.obj (.text:_ZNSt3__29allocatorIP11ConsolePageE10deallocateEPS2_j)
                  000184d4    00000010     I2C_monitor.obj (.text:_ZNSt3__29allocatorIP6I2cMsgE10deallocateEPS2_j)
                  000184e4    00000010     SPI_command.obj (.text:_ZNSt3__29allocatorIP6SpiMsgE10deallocateEPS2_j)
                  000184f4    00000010     menu_page.obj (.text:_ZNSt3__29allocatorIP7MenuRowE10deallocateEPS2_j)
                  00018504    0000000e     usblib.lib : usbdma.obj (.text:DMAUSBIntStatusClear)
                  00018512    0000000e     rtsv7M4_T_le_v4SPD16_eabi.lib : typeinfo.c.obj (.text:_ZN10__cxxabiv117__class_type_infoD0Ev)
                  00018520    0000000e                                   : typeinfo.c.obj (.text:_ZN10__cxxabiv120__si_class_type_infoD0Ev)
                  0001852e    0000000e     console_task.obj (.text:_ZNKSt3__213__vector_baseIP11ConsolePageNS_9allocatorIS2_EEE7__allocEv)
                  0001853c    0000000e     console_task.obj (.text:_ZNKSt3__213__vector_baseIP11ConsolePageNS_9allocatorIS2_EEE9__end_capEv)
                  0001854a    0000000e     I2C_monitor.obj (.text:_ZNKSt3__213__vector_baseIP6I2cMsgNS_9allocatorIS2_EEE7__allocEv)
                  00018558    0000000e     I2C_monitor.obj (.text:_ZNKSt3__213__vector_baseIP6I2cMsgNS_9allocatorIS2_EEE9__end_capEv)
                  00018566    0000000e     SPI_command.obj (.text:_ZNKSt3__213__vector_baseIP6SpiMsgNS_9allocatorIS2_EEE7__allocEv)
                  00018574    0000000e     SPI_command.obj (.text:_ZNKSt3__213__vector_baseIP6SpiMsgNS_9allocatorIS2_EEE9__end_capEv)
                  00018582    0000000e     menu_page.obj (.text:_ZNKSt3__213__vector_baseIP7MenuRowNS_9allocatorIS2_EEE7__allocEv)
                  00018590    0000000e     menu_page.obj (.text:_ZNKSt3__213__vector_baseIP7MenuRowNS_9allocatorIS2_EEE9__end_capEv)
                  0001859e    0000000e     console_task.obj (.text:_ZNKSt3__214__split_bufferIP11ConsolePageRNS_9allocatorIS2_EEE9__end_capEv)
                  000185ac    0000000e     I2C_task.obj (.text:_ZNKSt3__214__split_bufferIP6I2cMsgRNS_9allocatorIS2_EEE9__end_capEv)
                  000185ba    0000000e     SPI_command.obj (.text:_ZNKSt3__214__split_bufferIP6SpiMsgRNS_9allocatorIS2_EEE9__end_capEv)
                  000185c8    0000000e     menu_page.obj (.text:_ZNKSt3__214__split_bufferIP7MenuRowRNS_9allocatorIS2_EEE9__end_capEv)
                  000185d6    0000000e     console_task.obj (.text:_ZNKSt3__26vectorIP11ConsolePageNS_9allocatorIS2_EEE4dataEv)
                  000185e4    0000000e     I2C_monitor.obj (.text:_ZNKSt3__26vectorIP6I2cMsgNS_9allocatorIS2_EEE4dataEv)
                  000185f2    0000000e     SPI_command.obj (.text:_ZNKSt3__26vectorIP6SpiMsgNS_9allocatorIS2_EEE4dataEv)
                  00018600    0000000e     menu_page.obj (.text:_ZNKSt3__26vectorIP7MenuRowNS_9allocatorIS2_EEE4dataEv)
                  0001860e    0000000e     console_task.obj (.text:_ZNKSt3__29allocatorIP11ConsolePageE8max_sizeEv)
                  0001861c    0000000e     I2C_monitor.obj (.text:_ZNKSt3__29allocatorIP6I2cMsgE8max_sizeEv)
                  0001862a    0000000e     SPI_command.obj (.text:_ZNKSt3__29allocatorIP6SpiMsgE8max_sizeEv)
                  00018638    0000000e     menu_page.obj (.text:_ZNKSt3__29allocatorIP7MenuRowE8max_sizeEv)
                  00018646    0000000e     console_task.obj (.text:_ZNSt3__213__vector_baseIP11ConsolePageNS_9allocatorIS2_EEE7__allocEv)
                  00018654    0000000e     console_task.obj (.text:_ZNSt3__213__vector_baseIP11ConsolePageNS_9allocatorIS2_EEE9__end_capEv)
                  00018662    0000000e     I2C_monitor.obj (.text:_ZNSt3__213__vector_baseIP6I2cMsgNS_9allocatorIS2_EEE7__allocEv)
                  00018670    0000000e     I2C_monitor.obj (.text:_ZNSt3__213__vector_baseIP6I2cMsgNS_9allocatorIS2_EEE9__end_capEv)
                  0001867e    0000000e     SPI_command.obj (.text:_ZNSt3__213__vector_baseIP6SpiMsgNS_9allocatorIS2_EEE7__allocEv)
                  0001868c    0000000e     SPI_command.obj (.text:_ZNSt3__213__vector_baseIP6SpiMsgNS_9allocatorIS2_EEE9__end_capEv)
                  0001869a    0000000e     menu_page.obj (.text:_ZNSt3__213__vector_baseIP7MenuRowNS_9allocatorIS2_EEE7__allocEv)
                  000186a8    0000000e     menu_page.obj (.text:_ZNSt3__213__vector_baseIP7MenuRowNS_9allocatorIS2_EEE9__end_capEv)
                  000186b6    0000000e     console_task.obj (.text:_ZNSt3__214__split_bufferIP11ConsolePageRNS_9allocatorIS2_EEE7__allocEv)
                  000186c4    0000000e     console_task.obj (.text:_ZNSt3__214__split_bufferIP11ConsolePageRNS_9allocatorIS2_EEE9__end_capEv)
                  000186d2    0000000e     I2C_task.obj (.text:_ZNSt3__214__split_bufferIP6I2cMsgRNS_9allocatorIS2_EEE7__allocEv)
                  000186e0    0000000e     I2C_task.obj (.text:_ZNSt3__214__split_bufferIP6I2cMsgRNS_9allocatorIS2_EEE9__end_capEv)
                  000186ee    0000000e     SPI_command.obj (.text:_ZNSt3__214__split_bufferIP6SpiMsgRNS_9allocatorIS2_EEE7__allocEv)
                  000186fc    0000000e     SPI_command.obj (.text:_ZNSt3__214__split_bufferIP6SpiMsgRNS_9allocatorIS2_EEE9__end_capEv)
                  0001870a    0000000e     menu_page.obj (.text:_ZNSt3__214__split_bufferIP7MenuRowRNS_9allocatorIS2_EEE7__allocEv)
                  00018718    0000000e     menu_page.obj (.text:_ZNSt3__214__split_bufferIP7MenuRowRNS_9allocatorIS2_EEE9__end_capEv)
                  00018726    0000000e     console_task.obj (.text:_ZNSt3__217__compressed_pairIPP11ConsolePageRNS_9allocatorIS2_EEE6secondEv)
                  00018734    0000000e     I2C_task.obj (.text:_ZNSt3__217__compressed_pairIPP6I2cMsgRNS_9allocatorIS2_EEE6secondEv)
                  00018742    0000000e     SPI_command.obj (.text:_ZNSt3__217__compressed_pairIPP6SpiMsgRNS_9allocatorIS2_EEE6secondEv)
                  00018750    0000000e     menu_page.obj (.text:_ZNSt3__217__compressed_pairIPP7MenuRowRNS_9allocatorIS2_EEE6secondEv)
                  0001875e    0000000e     console_task.obj (.text:_ZNSt3__222__compressed_pair_elemINS_9allocatorIP11ConsolePageEELi1ELb1EEC1Ev)
                  0001876c    0000000e     I2C_monitor.obj (.text:_ZNSt3__222__compressed_pair_elemINS_9allocatorIP6I2cMsgEELi1ELb1EEC1Ev)
                  0001877a    0000000e     SPI_command.obj (.text:_ZNSt3__222__compressed_pair_elemINS_9allocatorIP6SpiMsgEELi1ELb1EEC1Ev)
                  00018788    0000000e     menu_page.obj (.text:_ZNSt3__222__compressed_pair_elemINS_9allocatorIP7MenuRowEELi1ELb1EEC1Ev)
                  00018796    0000000e     console_task.obj (.text:_ZNSt3__222__compressed_pair_elemIRNS_9allocatorIP11ConsolePageEELi1ELb0EE5__getEv)
                  000187a4    0000000e     I2C_task.obj (.text:_ZNSt3__222__compressed_pair_elemIRNS_9allocatorIP6I2cMsgEELi1ELb0EE5__getEv)
                  000187b2    0000000e     SPI_command.obj (.text:_ZNSt3__222__compressed_pair_elemIRNS_9allocatorIP6SpiMsgEELi1ELb0EE5__getEv)
                  000187c0    0000000e     menu_page.obj (.text:_ZNSt3__222__compressed_pair_elemIRNS_9allocatorIP7MenuRowEELi1ELb0EE5__getEv)
                  000187ce    0000000e     console_task.obj (.text:_ZNSt3__26vectorIP11ConsolePageNS_9allocatorIS2_EEEC1Ev)
                  000187dc    0000000e     I2C_monitor.obj (.text:_ZNSt3__26vectorIP6I2cMsgNS_9allocatorIS2_EEEC1Ev)
                  000187ea    0000000e     SPI_command.obj (.text:_ZNSt3__26vectorIP6SpiMsgNS_9allocatorIS2_EEEC1Ev)
                  000187f8    0000000e     menu_page.obj (.text:_ZNSt3__26vectorIP7MenuRowNS_9allocatorIS2_EEEC1Ev)
                  00018806    0000000e     I2C_task.obj (.text:_ZnwjPv)
                  00018814    0000000e     rtsv7M4_T_le_v4SPD16_eabi.lib : copy_decompress_none.c.obj (.text:decompress:none:__TI_decompress_none)
                  00018822    0000000c     usblib.lib : usbringbuf.obj (.text:USBRingBufInit)
                  0001882e    0000000c     console_task.obj (.text:_ZNKSt3__217__compressed_pairIPP11ConsolePageNS_9allocatorIS2_EEE5firstEv)
                  0001883a    0000000c     console_task.obj (.text:_ZNKSt3__217__compressed_pairIPP11ConsolePageNS_9allocatorIS2_EEE6secondEv)
                  00018846    0000000c     console_task.obj (.text:_ZNKSt3__217__compressed_pairIPP11ConsolePageRNS_9allocatorIS2_EEE5firstEv)
                  00018852    0000000c     I2C_monitor.obj (.text:_ZNKSt3__217__compressed_pairIPP6I2cMsgNS_9allocatorIS2_EEE5firstEv)
                  0001885e    0000000c     I2C_monitor.obj (.text:_ZNKSt3__217__compressed_pairIPP6I2cMsgNS_9allocatorIS2_EEE6secondEv)
                  0001886a    0000000c     I2C_task.obj (.text:_ZNKSt3__217__compressed_pairIPP6I2cMsgRNS_9allocatorIS2_EEE5firstEv)
                  00018876    0000000c     SPI_command.obj (.text:_ZNKSt3__217__compressed_pairIPP6SpiMsgNS_9allocatorIS2_EEE5firstEv)
                  00018882    0000000c     SPI_command.obj (.text:_ZNKSt3__217__compressed_pairIPP6SpiMsgNS_9allocatorIS2_EEE6secondEv)
                  0001888e    0000000c     SPI_command.obj (.text:_ZNKSt3__217__compressed_pairIPP6SpiMsgRNS_9allocatorIS2_EEE5firstEv)
                  0001889a    0000000c     menu_page.obj (.text:_ZNKSt3__217__compressed_pairIPP7MenuRowNS_9allocatorIS2_EEE5firstEv)
                  000188a6    0000000c     menu_page.obj (.text:_ZNKSt3__217__compressed_pairIPP7MenuRowNS_9allocatorIS2_EEE6secondEv)
                  000188b2    0000000c     menu_page.obj (.text:_ZNKSt3__217__compressed_pairIPP7MenuRowRNS_9allocatorIS2_EEE5firstEv)
                  000188be    00000002     --HOLE-- [fill = 0]
                  000188c0    0000000c     rtsv7M4_T_le_v4SPD16_eabi.lib : vector.cpp.obj (.text:_ZNKSt3__220__vector_base_commonILb1EE20__throw_length_errorEv)
                  000188cc    0000000c     console_task.obj (.text:_ZNKSt3__222__compressed_pair_elemINS_9allocatorIP11ConsolePageEELi1ELb1EE5__getEv)
                  000188d8    0000000c     I2C_monitor.obj (.text:_ZNKSt3__222__compressed_pair_elemINS_9allocatorIP6I2cMsgEELi1ELb1EE5__getEv)
                  000188e4    0000000c     SPI_command.obj (.text:_ZNKSt3__222__compressed_pair_elemINS_9allocatorIP6SpiMsgEELi1ELb1EE5__getEv)
                  000188f0    0000000c     menu_page.obj (.text:_ZNKSt3__222__compressed_pair_elemINS_9allocatorIP7MenuRowEELi1ELb1EE5__getEv)
                  000188fc    0000000c     console_task.obj (.text:_ZNKSt3__222__compressed_pair_elemIPP11ConsolePageLi0ELb0EE5__getEv)
                  00018908    0000000c     I2C_monitor.obj (.text:_ZNKSt3__222__compressed_pair_elemIPP6I2cMsgLi0ELb0EE5__getEv)
                  00018914    0000000c     SPI_command.obj (.text:_ZNKSt3__222__compressed_pair_elemIPP6SpiMsgLi0ELb0EE5__getEv)
                  00018920    0000000c     menu_page.obj (.text:_ZNKSt3__222__compressed_pair_elemIPP7MenuRowLi0ELb0EE5__getEv)
                  0001892c    0000000c     console_task.obj (.text:_ZNKSt3__26vectorIP11ConsolePageNS_9allocatorIS2_EEE8capacityEv)
                  00018938    0000000c     I2C_monitor.obj (.text:_ZNKSt3__26vectorIP6I2cMsgNS_9allocatorIS2_EEE8capacityEv)
                  00018944    0000000c     SPI_command.obj (.text:_ZNKSt3__26vectorIP6SpiMsgNS_9allocatorIS2_EEE8capacityEv)
                  00018950    0000000c     menu_page.obj (.text:_ZNKSt3__26vectorIP7MenuRowNS_9allocatorIS2_EEE8capacityEv)
                  0001895c    0000000c     I2C_monitor.obj (.text:_ZNSt3__210__allocateEj)
                  00018968    0000000c     I2C_monitor.obj (.text:_ZNSt3__213__unwrap_iterIPP6I2cMsgEET_S4_)
                  00018974    0000000c     SPI_monitor.obj (.text:_ZNSt3__213__unwrap_iterIPP6SpiMsgEET_S4_)
                  00018980    0000000c     console_task.obj (.text:_ZNSt3__213__vector_baseIP11ConsolePageNS_9allocatorIS2_EEEC2Ev)
                  0001898c    0000000c     I2C_monitor.obj (.text:_ZNSt3__213__vector_baseIP6I2cMsgNS_9allocatorIS2_EEEC2Ev)
                  00018998    0000000c     SPI_command.obj (.text:_ZNSt3__213__vector_baseIP6SpiMsgNS_9allocatorIS2_EEEC2Ev)
                  000189a4    0000000c     menu_page.obj (.text:_ZNSt3__213__vector_baseIP7MenuRowNS_9allocatorIS2_EEEC2Ev)
                  000189b0    0000000c     console_task.obj (.text:_ZNSt3__216__to_raw_pointerIP11ConsolePageEEPT_S4_)
                  000189bc    0000000c     I2C_monitor.obj (.text:_ZNSt3__216__to_raw_pointerIP6I2cMsgEEPT_S4_)
                  000189c8    0000000c     SPI_command.obj (.text:_ZNSt3__216__to_raw_pointerIP6SpiMsgEEPT_S4_)
                  000189d4    0000000c     menu_page.obj (.text:_ZNSt3__216__to_raw_pointerIP7MenuRowEEPT_S4_)
                  000189e0    0000000c     console_task.obj (.text:_ZNSt3__217__compressed_pairIPP11ConsolePageNS_9allocatorIS2_EEE5firstEv)
                  000189ec    0000000c     console_task.obj (.text:_ZNSt3__217__compressed_pairIPP11ConsolePageNS_9allocatorIS2_EEE6secondEv)
                  000189f8    0000000c     console_task.obj (.text:_ZNSt3__217__compressed_pairIPP11ConsolePageRNS_9allocatorIS2_EEE5firstEv)
                  00018a04    0000000c     I2C_monitor.obj (.text:_ZNSt3__217__compressed_pairIPP6I2cMsgNS_9allocatorIS2_EEE5firstEv)
                  00018a10    0000000c     I2C_monitor.obj (.text:_ZNSt3__217__compressed_pairIPP6I2cMsgNS_9allocatorIS2_EEE6secondEv)
                  00018a1c    0000000c     I2C_task.obj (.text:_ZNSt3__217__compressed_pairIPP6I2cMsgRNS_9allocatorIS2_EEE5firstEv)
                  00018a28    0000000c     SPI_command.obj (.text:_ZNSt3__217__compressed_pairIPP6SpiMsgNS_9allocatorIS2_EEE5firstEv)
                  00018a34    0000000c     SPI_command.obj (.text:_ZNSt3__217__compressed_pairIPP6SpiMsgNS_9allocatorIS2_EEE6secondEv)
                  00018a40    0000000c     SPI_command.obj (.text:_ZNSt3__217__compressed_pairIPP6SpiMsgRNS_9allocatorIS2_EEE5firstEv)
                  00018a4c    0000000c     menu_page.obj (.text:_ZNSt3__217__compressed_pairIPP7MenuRowNS_9allocatorIS2_EEE5firstEv)
                  00018a58    0000000c     menu_page.obj (.text:_ZNSt3__217__compressed_pairIPP7MenuRowNS_9allocatorIS2_EEE6secondEv)
                  00018a64    0000000c     menu_page.obj (.text:_ZNSt3__217__compressed_pairIPP7MenuRowRNS_9allocatorIS2_EEE5firstEv)
                  00018a70    0000000c     I2C_monitor.obj (.text:_ZNSt3__219__libcpp_deallocateEPv)
                  00018a7c    0000000c     console_task.obj (.text:_ZNSt3__222__compressed_pair_elemINS_9allocatorIP11ConsolePageEELi1ELb1EE5__getEv)
                  00018a88    0000000c     console_task.obj (.text:_ZNSt3__222__compressed_pair_elemINS_9allocatorIP11ConsolePageEELi1ELb1EEC2Ev)
                  00018a94    0000000c     I2C_monitor.obj (.text:_ZNSt3__222__compressed_pair_elemINS_9allocatorIP6I2cMsgEELi1ELb1EE5__getEv)
                  00018aa0    0000000c     I2C_monitor.obj (.text:_ZNSt3__222__compressed_pair_elemINS_9allocatorIP6I2cMsgEELi1ELb1EEC2Ev)
                  00018aac    0000000c     SPI_command.obj (.text:_ZNSt3__222__compressed_pair_elemINS_9allocatorIP6SpiMsgEELi1ELb1EE5__getEv)
                  00018ab8    0000000c     SPI_command.obj (.text:_ZNSt3__222__compressed_pair_elemINS_9allocatorIP6SpiMsgEELi1ELb1EEC2Ev)
                  00018ac4    0000000c     menu_page.obj (.text:_ZNSt3__222__compressed_pair_elemINS_9allocatorIP7MenuRowEELi1ELb1EE5__getEv)
                  00018ad0    0000000c     menu_page.obj (.text:_ZNSt3__222__compressed_pair_elemINS_9allocatorIP7MenuRowEELi1ELb1EEC2Ev)
                  00018adc    0000000c     console_task.obj (.text:_ZNSt3__222__compressed_pair_elemIPP11ConsolePageLi0ELb0EE5__getEv)
                  00018ae8    0000000c     I2C_monitor.obj (.text:_ZNSt3__222__compressed_pair_elemIPP6I2cMsgLi0ELb0EE5__getEv)
                  00018af4    0000000c     SPI_command.obj (.text:_ZNSt3__222__compressed_pair_elemIPP6SpiMsgLi0ELb0EE5__getEv)
                  00018b00    0000000c     menu_page.obj (.text:_ZNSt3__222__compressed_pair_elemIPP7MenuRowLi0ELb0EE5__getEv)
                  00018b0c    0000000c     I2C_task.obj (.text:_ZNSt3__24moveIRP6I2cMsgEEONS_16remove_referenceIT_E4typeEOS5_)
                  00018b18    0000000c     SPI_command.obj (.text:_ZNSt3__24moveIRP6SpiMsgEEONS_16remove_referenceIT_E4typeEOS5_)
                  00018b24    0000000c     console_task.obj (.text:_ZNSt3__24moveIRPP11ConsolePageEEONS_16remove_referenceIT_E4typeEOS6_)
                  00018b30    0000000c     I2C_task.obj (.text:_ZNSt3__24moveIRPP6I2cMsgEEONS_16remove_referenceIT_E4typeEOS6_)
                  00018b3c    0000000c     SPI_command.obj (.text:_ZNSt3__24moveIRPP6SpiMsgEEONS_16remove_referenceIT_E4typeEOS6_)
                  00018b48    0000000c     menu_page.obj (.text:_ZNSt3__24moveIRPP7MenuRowEEONS_16remove_referenceIT_E4typeEOS6_)
                  00018b54    0000000c     I2C_monitor.obj (.text:_ZNSt3__26vectorIP6I2cMsgNS_9allocatorIS2_EEE27__invalidate_iterators_pastEPS2_)
                  00018b60    0000000c     SPI_monitor.obj (.text:_ZNSt3__26vectorIP6SpiMsgNS_9allocatorIS2_EEE27__invalidate_iterators_pastEPS2_)
                  00018b6c    0000000c     I2C_monitor.obj (.text:_ZNSt3__27forwardIDnEEOT_RNS_16remove_referenceIS1_E4typeE)
                  00018b78    0000000c     I2C_task.obj (.text:_ZNSt3__27forwardIP6I2cMsgEEOT_RNS_16remove_referenceIS3_E4typeE)
                  00018b84    0000000c     SPI_command.obj (.text:_ZNSt3__27forwardIP6SpiMsgEEOT_RNS_16remove_referenceIS3_E4typeE)
                  00018b90    0000000c     console_task.obj (.text:_ZNSt3__27forwardIRKP11ConsolePageEEOT_RNS_16remove_referenceIS5_E4typeE)
                  00018b9c    0000000c     menu_page.obj (.text:_ZNSt3__27forwardIRKP7MenuRowEEOT_RNS_16remove_referenceIS5_E4typeE)
                  00018ba8    0000000c     console_task.obj (.text:_ZNSt3__27forwardIRNS_9allocatorIP11ConsolePageEEEEOT_RNS_16remove_referenceIS6_E4typeE)
                  00018bb4    0000000c     I2C_task.obj (.text:_ZNSt3__27forwardIRNS_9allocatorIP6I2cMsgEEEEOT_RNS_16remove_referenceIS6_E4typeE)
                  00018bc0    0000000c     SPI_command.obj (.text:_ZNSt3__27forwardIRNS_9allocatorIP6SpiMsgEEEEOT_RNS_16remove_referenceIS6_E4typeE)
                  00018bcc    0000000c     menu_page.obj (.text:_ZNSt3__27forwardIRNS_9allocatorIP7MenuRowEEEEOT_RNS_16remove_referenceIS6_E4typeE)
                  00018bd8    0000000c     console_task.obj (.text:_ZNSt3__29allocatorIP11ConsolePageE7destroyEPS2_)
                  00018be4    0000000c     console_task.obj (.text:_ZNSt3__29allocatorIP11ConsolePageEC1Ev)
                  00018bf0    0000000c     console_task.obj (.text:_ZNSt3__29allocatorIP11ConsolePageEC2Ev)
                  00018bfc    0000000c     I2C_monitor.obj (.text:_ZNSt3__29allocatorIP6I2cMsgE7destroyEPS2_)
                  00018c08    0000000c     I2C_monitor.obj (.text:_ZNSt3__29allocatorIP6I2cMsgEC1Ev)
                  00018c14    0000000c     I2C_monitor.obj (.text:_ZNSt3__29allocatorIP6I2cMsgEC2Ev)
                  00018c20    0000000c     SPI_command.obj (.text:_ZNSt3__29allocatorIP6SpiMsgE7destroyEPS2_)
                  00018c2c    0000000c     SPI_command.obj (.text:_ZNSt3__29allocatorIP6SpiMsgEC1Ev)
                  00018c38    0000000c     SPI_command.obj (.text:_ZNSt3__29allocatorIP6SpiMsgEC2Ev)
                  00018c44    0000000c     menu_page.obj (.text:_ZNSt3__29allocatorIP7MenuRowE7destroyEPS2_)
                  00018c50    0000000c     menu_page.obj (.text:_ZNSt3__29allocatorIP7MenuRowEC1Ev)
                  00018c5c    0000000c     menu_page.obj (.text:_ZNSt3__29allocatorIP7MenuRowEC2Ev)
                  00018c68    0000000c     rtsv7M4_T_le_v4SPD16_eabi.lib : copy_zero_init.c.obj (.text:decompress:ZI:__TI_zero_init)
                  00018c74    0000000c     tm4c123gh6pm_startup_ccs.obj (.text)
                  00018c80    0000000a     I2C_monitor.obj (.text:_ZNSt3__220__throw_length_errorEPKc)
                  00018c8a    0000000a     console_task.obj (.text:_ZNSt3__26vectorIP11ConsolePageNS_9allocatorIS2_EEE24__RAII_IncreaseAnnotator6__doneEv)
                  00018c94    0000000a     console_task.obj (.text:_ZNSt3__26vectorIP11ConsolePageNS_9allocatorIS2_EEE26__invalidate_all_iteratorsEv)
                  00018c9e    0000000a     I2C_monitor.obj (.text:_ZNSt3__26vectorIP6I2cMsgNS_9allocatorIS2_EEE24__RAII_IncreaseAnnotator6__doneEv)
                  00018ca8    0000000a     I2C_monitor.obj (.text:_ZNSt3__26vectorIP6I2cMsgNS_9allocatorIS2_EEE26__invalidate_all_iteratorsEv)
                  00018cb2    0000000a     SPI_command.obj (.text:_ZNSt3__26vectorIP6SpiMsgNS_9allocatorIS2_EEE24__RAII_IncreaseAnnotator6__doneEv)
                  00018cbc    0000000a     SPI_command.obj (.text:_ZNSt3__26vectorIP6SpiMsgNS_9allocatorIS2_EEE26__invalidate_all_iteratorsEv)
                  00018cc6    0000000a     menu_page.obj (.text:_ZNSt3__26vectorIP7MenuRowNS_9allocatorIS2_EEE24__RAII_IncreaseAnnotator6__doneEv)
                  00018cd0    0000000a     menu_page.obj (.text:_ZNSt3__26vectorIP7MenuRowNS_9allocatorIS2_EEE26__invalidate_all_iteratorsEv)
                  00018cda    0000000a     rtsv7M4_T_le_v4SPD16_eabi.lib : sprintf.c.obj (.text:_outc)
                  00018ce4    00000008                                   : errno.c.obj (.text:__aeabi_errno_addr)
                  00018cec    00000008     usblib.lib : usbdma.obj (.text:iDMAUSBChannelIntDisable)
                  00018cf4    00000008                : usbdma.obj (.text:iDMAUSBChannelIntEnable)
                  00018cfc    00000008     rtsv7M4_T_le_v4SPD16_eabi.lib : memory.c.obj (.text:malloc)
                  00018d04    00000006     sysctl.obj (.text:SysCtlDelay)
                  00018d0a    00000006     usblib.lib : usbbuffer.obj (.text:USBBufferDataAvailable)
                  00018d10    00000006                : usbbuffer.obj (.text:USBBufferFlush)
                  00018d16    00000006                : usbbuffer.obj (.text:USBBufferSpaceAvailable)
                  00018d1c    00000006     rtsv7M4_T_le_v4SPD16_eabi.lib : pure_virt.c.obj (.text:__cxa_pure_virtual)
                  00018d22    00000006     usblib.lib : usbdma.obj (.text:iDMAUSBIntStatus)
                  00018d28    00000004                : usbdma.obj (.text:DMAUSBStatus)
                  00018d2c    00000004     rtsv7M4_T_le_v4SPD16_eabi.lib : typeinfo.c.obj (.text:_ZN10__cxxabiv117__class_type_infoD1Ev)
                  00018d30    00000004                                   : typeinfo.c.obj (.text:_ZN10__cxxabiv120__si_class_type_infoD1Ev)
                  00018d34    00000004                                   : new.cpp.obj (.text:_ZdlPvj)
                  00018d38    00000004                                   : error.c.obj (.text:__abort_execution)
                  00018d3c    00000004                                   : pre_init.c.obj (.text:_system_pre_init)
                  00018d40    00000004                                   : exit.c.obj (.text:abort:abort)

.const     0    00018d44    000010a8     
                  00018d44    00000120     sysctl.obj (.const:g_pppui32XTALtoVCO)
                  00018e64    00000101     rtsv7M4_T_le_v4SPD16_eabi.lib : ctype.c.obj (.const:.string:_ctypes_)
                  00018f65    00000003     --HOLE-- [fill = 0]
                  00018f68    000000ec     no_booster_board.obj (.const:.string)
                  00019054    000000c0     gpio.obj (.const:g_ppui32GPIOIntMapBlizzard)
                  00019114    000000c0     gpio.obj (.const:g_ppui32GPIOIntMapSnowflake)
                  000191d4    0000009c     interrupt.obj (.const:g_pui32Regs)
                  00019270    00000090     gpio.obj (.const:g_pui32GPIOBaseAddrs)
                  00019300    0000006c     sysctl.obj (.const:g_pui32Xtals)
                  0001936c    00000060     timer.obj (.const:g_ppui32TimerIntMap)
                  000193cc    00000052     GPOs.obj (.const:.string)
                  0001941e    00000002     --HOLE-- [fill = 0]
                  00019420    00000050     i2c.obj (.const:g_ppui32I2CIntMapSnowflake)
                  00019470    00000044     console_task.obj (.const:.string:_ZZNSt3__29allocatorIP11ConsolePageE8allocateEjPKvEs)
                  000194b4    00000044     I2C_monitor.obj (.const:.string:_ZZNSt3__29allocatorIP6I2cMsgE8allocateEjPKvEs)
                  000194f8    00000044     SPI_command.obj (.const:.string:_ZZNSt3__29allocatorIP6SpiMsgE8allocateEjPKvEs)
                  0001953c    00000044     menu_page.obj (.const:.string:_ZZNSt3__29allocatorIP7MenuRowE8allocateEjPKvEs)
                  00019580    00000040     timer.obj (.const:g_ppui32TimerIntMapSnowflake)
                  000195c0    00000040     uart.obj (.const:g_ppui32UARTIntMap)
                  00019600    00000040     uart.obj (.const:g_ppui32UARTIntMapSnowflake)
                  00019640    00000036     usb_serial_structs.obj (.const:.string:g_pui8ConfigString)
                  00019676    00000002     --HOLE-- [fill = 0]
                  00019678    00000034     usblib.lib : usbdenum.obj (.const:g_psUSBDStdRequests)
                  000196ac    00000030     i2c.obj (.const:g_ppui32I2CIntMap)
                  000196dc    00000030     usblib.lib : usbdcdc.obj (.const:g_sCDCHandlers)
                  0001970c    00000030     sysctl.obj (.const:g_sXTALtoMEMTIM)
                  0001973c    0000002c     usb_serial_structs.obj (.const:.string:g_pui8ControlInterfaceString)
                  00019768    00000025     rtsv7M4_T_le_v4SPD16_eabi.lib : typeinfo.c.obj (.const:.typeinfo:_ZTSN10__cxxabiv120__si_class_type_infoE)
                  0001978d    00000024     usb_serial_structs.obj (.const:.string:g_pui8ManufacturerString)
                  000197b1    00000023     usblib.lib : usbdcdc.obj (.const:.string:g_pui8CDCSerCommInterface)
                  000197d4    00000022     usb_serial_structs.obj (.const:.string:g_pui8ProductString)
                  000197f6    00000022     rtsv7M4_T_le_v4SPD16_eabi.lib : typeinfo.c.obj (.const:.typeinfo:_ZTSN10__cxxabiv117__class_type_infoE)
                  00019818    00000020     ssi.obj (.const:g_ppui32SSIIntMap)
                  00019838    00000020     ssi.obj (.const:g_ppui32SSIIntMapSnowflake)
                  00019858    00000020     interrupt.obj (.const:g_pui32Priority)
                  00019878    0000001e     ADC_task.obj (.const:.string)
                  00019896    00000002     --HOLE-- [fill = 0]
                  00019898    0000001e     GPIs.obj (.const:.string)
                  000198b6    00000002     --HOLE-- [fill = 0]
                  000198b8    0000001c     one_wire_command.obj (.const:_ZTV10OneWireCmd)
                  000198d4    0000001c     SPI_command.obj (.const:_ZTV10SpiCmdTask)
                  000198f0    0000001c     console_task.obj (.const:_ZTV11ConsolePage)
                  0001990c    0000001c     console_task.obj (.const:_ZTV11ConsoleTask)
                  00019928    0000001c     error_logger.obj (.const:_ZTV11ErrorLogger)
                  00019944    0000001c     menu_page.obj (.const:_ZTV11MenuOptions)
                  00019960    0000001c     task_manager.obj (.const:_ZTV11TaskManager)
                  0001997c    0000001c     UART_streamer.obj (.const:_ZTV12UartStreamer)
                  00019998    0000001c     I2C_monitor.obj (.const:_ZTV14I2cMonitorTask)
                  000199b4    0000001c     I2C_sniffer.obj (.const:_ZTV14I2cSnifferTask)
                  000199d0    0000001c     SPI_monitor.obj (.const:_ZTV14SpiMonitorTask)
                  000199ec    0000001c     I2C_scripter.obj (.const:_ZTV15I2cScripterTask)
                  00019a08    0000001c     I2C_task.obj (.const:_ZTV7I2cTask)
                  00019a24    0000001c     PWM_page.obj (.const:_ZTV7PWMpage)
                  00019a40    0000001c     UART_command.obj (.const:_ZTV7UartCmd)
                  00019a5c    0000001c     io_control_page.obj (.const:_ZTV9IoCtlPage)
                  00019a78    00000018     I2C_monitor.obj (.const:.string)
                  00019a90    00000018     SPI_monitor.obj (.const:.string)
                  00019aa8    00000018     usb_serial_structs.obj (.const:g_ppui8StringDescriptors)
                  00019ac0    00000017     usblib.lib : usbdcdc.obj (.const:.string:g_pui8CDCSerDataInterface)
                  00019ad7    00000017                : usbdcdc.obj (.const:.string:g_pui8CDCSerDataInterfaceHS)
                  00019aee    00000002     --HOLE-- [fill = 0]
                  00019af0    00000014     interrupt.obj (.const:g_pui32Dii16Regs)
                  00019b04    00000014     interrupt.obj (.const:g_pui32EnRegs)
                  00019b18    00000014     interrupt.obj (.const:g_pui32PendRegs)
                  00019b2c    00000014     interrupt.obj (.const:g_pui32UnpendRegs)
                  00019b40    00000012     usb_serial_structs.obj (.const:.string:g_pui8SerialNumberString)
                  00019b52    00000002     --HOLE-- [fill = 0]
                  00019b54    00000012     uartstdio.obj (.const:.string)
                  00019b66    00000012     I2C_scripter.obj (.const:.typeinfo:_ZTS15I2cScripterTask)
                  00019b78    00000011     I2C_monitor.obj (.const:.typeinfo:_ZTS14I2cMonitorTask)
                  00019b89    00000011     I2C_sniffer.obj (.const:.typeinfo:_ZTS14I2cSnifferTask)
                  00019b9a    00000011     SPI_monitor.obj (.const:.typeinfo:_ZTS14SpiMonitorTask)
                  00019bab    00000001     --HOLE-- [fill = 0]
                  00019bac    00000010     rtsv7M4_T_le_v4SPD16_eabi.lib : typeinfo.c.obj (.const:_ZTVN10__cxxabiv117__class_type_infoE)
                  00019bbc    00000010                                   : typeinfo.c.obj (.const:_ZTVN10__cxxabiv120__si_class_type_infoE)
                  00019bcc    0000000f     UART_streamer.obj (.const:.typeinfo:_ZTS12UartStreamer)
                  00019bdb    00000001     --HOLE-- [fill = 0]
                  00019bdc    0000000e     PWM_page.obj (.const:.string)
                  00019bea    0000000e     I2C_monitor.obj (.const:.typeinfo:_ZTS11ConsolePage)
                  00019bf8    0000000e     console_task.obj (.const:.typeinfo:_ZTS11ConsoleTask)
                  00019c06    0000000e     error_logger.obj (.const:.typeinfo:_ZTS11ErrorLogger)
                  00019c14    0000000e     menu_page.obj (.const:.typeinfo:_ZTS11MenuOptions)
                  00019c22    0000000e     task_manager.obj (.const:.typeinfo:_ZTS11TaskManager)
                  00019c30    0000000d     one_wire_command.obj (.const:.typeinfo:_ZTS10OneWireCmd)
                  00019c3d    0000000d     SPI_command.obj (.const:.typeinfo:_ZTS10SpiCmdTask)
                  00019c4a    0000000d     rtsv7M4_T_le_v4SPD16_eabi.lib : stdlib_typeinfo.cpp.obj (.const:.typeinfo:_ZTSSt9type_info)
                  00019c57    00000001     --HOLE-- [fill = 0]
                  00019c58    0000000c     one_wire_command.obj (.const:.typeinfo:_ZTI10OneWireCmd)
                  00019c64    0000000c     SPI_command.obj (.const:.typeinfo:_ZTI10SpiCmdTask)
                  00019c70    0000000c     console_task.obj (.const:.typeinfo:_ZTI11ConsoleTask)
                  00019c7c    0000000c     error_logger.obj (.const:.typeinfo:_ZTI11ErrorLogger)
                  00019c88    0000000c     menu_page.obj (.const:.typeinfo:_ZTI11MenuOptions)
                  00019c94    0000000c     task_manager.obj (.const:.typeinfo:_ZTI11TaskManager)
                  00019ca0    0000000c     UART_streamer.obj (.const:.typeinfo:_ZTI12UartStreamer)
                  00019cac    0000000c     I2C_monitor.obj (.const:.typeinfo:_ZTI14I2cMonitorTask)
                  00019cb8    0000000c     I2C_sniffer.obj (.const:.typeinfo:_ZTI14I2cSnifferTask)
                  00019cc4    0000000c     SPI_monitor.obj (.const:.typeinfo:_ZTI14SpiMonitorTask)
                  00019cd0    0000000c     I2C_scripter.obj (.const:.typeinfo:_ZTI15I2cScripterTask)
                  00019cdc    0000000c     I2C_task.obj (.const:.typeinfo:_ZTI7I2cTask)
                  00019ce8    0000000c     PWM_page.obj (.const:.typeinfo:_ZTI7PWMpage)
                  00019cf4    0000000c     UART_command.obj (.const:.typeinfo:_ZTI7UartCmd)
                  00019d00    0000000c     io_control_page.obj (.const:.typeinfo:_ZTI9IoCtlPage)
                  00019d0c    0000000c     rtsv7M4_T_le_v4SPD16_eabi.lib : typeinfo.c.obj (.const:.typeinfo:_ZTIN10__cxxabiv117__class_type_infoE)
                  00019d18    0000000c                                   : typeinfo.c.obj (.const:.typeinfo:_ZTIN10__cxxabiv120__si_class_type_infoE)
                  00019d24    0000000c     uartstdio.obj (.const:g_ui32UARTBase)
                  00019d30    0000000c     uartstdio.obj (.const:g_ui32UARTPeriph)
                  00019d3c    0000000b     io_control_page.obj (.const:.typeinfo:_ZTS9IoCtlPage)
                  00019d47    00000009     I2C_task.obj (.const:.typeinfo:_ZTS7I2cTask)
                  00019d50    00000009     PWM_page.obj (.const:.typeinfo:_ZTS7PWMpage)
                  00019d59    00000009     UART_command.obj (.const:.typeinfo:_ZTS7UartCmd)
                  00019d62    00000002     --HOLE-- [fill = 0]
                  00019d64    00000008     I2C_monitor.obj (.const:.typeinfo:_ZTI11ConsolePage)
                  00019d6c    00000008     rtsv7M4_T_le_v4SPD16_eabi.lib : stdlib_typeinfo.cpp.obj (.const:.typeinfo:_ZTISt9type_info)
                  00019d74    00000008     sysctl.obj (.const:g_pui32VCOFrequencies)
                  00019d7c    00000008     usblib.lib : usbdcdc.obj (.const:g_sCDCCompSerConfigHeader)
                  00019d84    00000008                : usbdcdc.obj (.const:g_sCDCCompSerConfigHeaderHS)
                  00019d8c    00000008                : usbdcdc.obj (.const:g_sCDCSerCommInterfaceSection)
                  00019d94    00000008                : usbdcdc.obj (.const:g_sCDCSerConfigHeader)
                  00019d9c    00000008                : usbdcdc.obj (.const:g_sCDCSerConfigHeaderHS)
                  00019da4    00000008                : usbdcdc.obj (.const:g_sCDCSerConfigSection)
                  00019dac    00000008                : usbdcdc.obj (.const:g_sCDCSerDataInterfaceSection)
                  00019db4    00000008                : usbdcdc.obj (.const:g_sCDCSerDataInterfaceSectionHS)
                  00019dbc    00000008                : usbdcdc.obj (.const:g_sIADSerConfigSection)
                  00019dc4    00000008     port.obj (.const)
                  00019dcc    00000007     rtsv7M4_T_le_v4SPD16_eabi.lib : vector.cpp.obj (.const:.string:_ZZNKSt3__220__vector_base_commonILb1EE20__throw_length_errorEvEs)
                  00019dd3    00000004     usb_serial_structs.obj (.const:.string:g_pui8LangDescriptor)
                  00019dd7    00000001     --HOLE-- [fill = 0]
                  00019dd8    00000004     usblib.lib : usbdcdc.obj (.const:g_pCDCCompSerConfigDescriptors)
                  00019ddc    00000004                : usbdcdc.obj (.const:g_pCDCCompSerConfigDescriptorsHS)
                  00019de0    00000004                : usbdcdc.obj (.const:g_ppCDCSerConfigDescriptors)
                  00019de4    00000004                : usbdcdc.obj (.const:g_ppCDCSerConfigDescriptorsHS)
                  00019de8    00000004     uartstdio.obj (.const)

.cinit     0    00019df0    00000318     
                  00019df0    000002e1     (.cinit..data.load) [load image, compression = lzss]
                  0001a0d1    00000003     --HOLE-- [fill = 0]
                  0001a0d4    0000000c     (__TI_handler_table)
                  0001a0e0    00000008     (.cinit..bss.load) [load image, compression = zero_init]
                  0001a0e8    00000008     (.cinit..vtable.load) [load image, compression = zero_init]
                  0001a0f0    00000018     (__TI_cinit_table)

.init_array 
*          0    00000000    00000000     UNINITIALIZED

.vtable    0    20000000    0000026c     UNINITIALIZED
                  20000000    0000026c     interrupt.obj (.vtable)

.bss       0    2000026c    00005b88     UNINITIALIZED
                  2000026c    00005000     (.common:ucHeap)
                  2000526c    000004b0     error_logger.obj (.bss:errors)
                  2000571c    00000120     rtsv7M4_T_le_v4SPD16_eabi.lib : trgmsg.c.obj (.bss:_CIOBUF_)
                  2000583c    00000110     usblib.lib : usbdma.obj (.bss:g_psUSBDMAInst)
                  2000594c    00000100     (.common:g_pui8USBRxBuffer)
                  20005a4c    00000100     (.common:g_pui8USBTxBuffer)
                  20005b4c    000000a0     (.common:__TI_tmpnams)
                  20005bec    00000064     tasks.obj (.bss:pxReadyTasksLists)
                  20005c50    00000050     (.common:g_psDCDInst)
                  20005ca0    00000040     usblib.lib : usbdenum.obj (.bss:g_pui8DataBufferIn)
                  20005ce0    00000040     (.common:xQueueRegistry)
                  20005d20    00000018     (.common:g_pfnTickHandlers)
                  20005d38    00000018     (.common:g_pvTickInstance)
                  20005d50    00000014     tasks.obj (.bss:xDelayedTaskList1)
                  20005d64    00000014     tasks.obj (.bss:xDelayedTaskList2)
                  20005d78    00000014     tasks.obj (.bss:xPendingReadyList)
                  20005d8c    00000014     tasks.obj (.bss:xSuspendedTaskList)
                  20005da0    00000014     tasks.obj (.bss:xTasksWaitingTermination)
                  20005db4    0000000c     I2C_monitor.obj (.bss:bin_string)
                  20005dc0    0000000c     SPI_monitor.obj (.bss:bin_string)
                  20005dcc    00000008     tasks.obj (.bss)
                  20005dd4    00000008     heap_4.obj (.bss:xStart)
                  20005ddc    00000008     (.common:parmbuf)
                  20005de4    00000004     adc.obj (.bss:g_pui8OversampleFactor)
                  20005de8    00000004     usblib.lib : usbdenum.obj (.bss)
                  20005dec    00000004                : usbmode.obj (.bss)
                  20005df0    00000004     (.common:g_ppsDevInfo)

.stack     0    20005df8    00000800     UNINITIALIZED
                  20005df8    00000004     rtsv7M4_T_le_v4SPD16_eabi.lib : boot_cortex_m.c.obj (.stack)
                  20005dfc    000007fc     --HOLE--

.data      0    200065f8    00000768     UNINITIALIZED
                  200065f8    000000f0     rtsv7M4_T_le_v4SPD16_eabi.lib : defs.c.obj (.data:_ftable)
                  200066e8    00000078                                   : host_device.c.obj (.data:_device)
                  20006760    00000060     usb_serial_structs.obj (.data:g_sCDCDevice)
                  200067c0    00000050     rtsv7M4_T_le_v4SPD16_eabi.lib : host_device.c.obj (.data:_stream)
                  20006810    00000038     usb_serial_structs.obj (.data:g_sRxBuffer)
                  20006848    00000038     usb_serial_structs.obj (.data:g_sTxBuffer)
                  20006880    00000034     tasks.obj (.data)
                  200068b4    00000028     PWM_page.obj (.data:pwm_0)
                  200068dc    00000028     PWM_page.obj (.data:pwm_1)
                  20006904    00000024     GPOs.obj (.data:gpos)
                  20006928    00000024     no_booster_board.obj (.data:i2c0)
                  2000694c    00000020     ADC_task.obj (.data:adc_0)
                  2000696c    00000020     ADC_task.obj (.data:adc_1)
                  2000698c    00000020     ADC_task.obj (.data:adc_2)
                  200069ac    00000020     ADC_task.obj (.data:adc_3)
                  200069cc    00000020     no_booster_board.obj (.data)
                  200069ec    0000001c     GPIs.obj (.data:gpi_0)
                  20006a08    0000001c     GPIs.obj (.data:gpi_1)
                  20006a24    0000001c     GPIs.obj (.data:gpi_2)
                  20006a40    0000001c     GPIs.obj (.data:gpi_3)
                  20006a5c    0000001c     GPOs.obj (.data:gpo_0)
                  20006a78    0000001c     GPOs.obj (.data:gpo_1)
                  20006a94    0000001c     GPOs.obj (.data:gpo_2)
                  20006ab0    0000001c     GPOs.obj (.data:gpo_3)
                  20006acc    0000001c     GPOs.obj (.data:psel_1v8)
                  20006ae8    0000001c     GPOs.obj (.data:psel_3v3)
                  20006b04    0000001c     GPOs.obj (.data:psel_5v)
                  20006b20    0000001c     GPOs.obj (.data:pullup_en)
                  20006b3c    0000001c     GPOs.obj (.data:pwr_on)
                  20006b58    00000019     UART_to_USB.obj (.data)
                  20006b71    00000001     I2C_sniffer.obj (.data)
                  20006b72    00000002     usblib.lib : usbdcdc.obj (.data)
                  20006b74    00000018     GPOs.obj (.data)
                  20006b8c    00000018     heap_4.obj (.data)
                  20006ba4    00000014     no_booster_board.obj (.data:uart_parity_menu)
                  20006bb8    00000012     usblib.lib : usbdcdc.obj (.data:g_pui8CDCSerDeviceDescriptor)
                  20006bca    00000002     --HOLE--
                  20006bcc    00000010     SPI_command.obj (.data)
                  20006bdc    00000010     ADC_task.obj (.data:board_adc_pins)
                  20006bec    00000010     GPIs.obj (.data:board_gpi_pins)
                  20006bfc    00000010     I2C_monitor.obj (.data:format_types)
                  20006c0c    00000010     SPI_monitor.obj (.data:format_types)
                  20006c1c    00000010     usblib.lib : usbdcdc.obj (.data:g_psCDCCompSerSections)
                  20006c2c    00000010                : usbdcdc.obj (.data:g_psCDCCompSerSectionsHS)
                  20006c3c    00000010     rtsv7M4_T_le_v4SPD16_eabi.lib : defs.c.obj (.data)
                  20006c4c    00000010     no_booster_board.obj (.data:spi_mode_menu)
                  20006c5c    0000000c     rtsv7M4_T_le_v4SPD16_eabi.lib : exit.c.obj (.data:$O1$$)
                  20006c68    0000000c     UART_command.obj (.data)
                  20006c74    0000000c     usblib.lib : usbdcdc.obj (.data:g_psCDCSerSections)
                  20006c80    0000000c                : usbdcdc.obj (.data:g_psCDCSerSectionsHS)
                  20006c8c    0000000c     port.obj (.data)
                  20006c98    0000000c     no_booster_board.obj (.data:power_select_menu)
                  20006ca4    0000000c     usblib.lib : usbtick.obj (.data)
                  20006cb0    00000009                : usbdcdc.obj (.data:g_pui8CDCSerDescriptor)
                  20006cb9    00000003     --HOLE--
                  20006cbc    00000009     uartstdio.obj (.data)
                  20006cc5    00000003     --HOLE--
                  20006cc8    00000009     usblib.lib : usbmode.obj (.data)
                  20006cd1    00000003     --HOLE--
                  20006cd4    00000008     rtsv7M4_T_le_v4SPD16_eabi.lib : _lock.c.obj (.data:$O1$$)
                  20006cdc    00000008                                   : memory.c.obj (.data:$O1$$)
                  20006ce4    00000008     ADC_task.obj (.data:adc_pin_struct)
                  20006cec    00000008     GPIs.obj (.data:board_gpi_info)
                  20006cf4    00000008     GPOs.obj (.data:board_gpo_info)
                  20006cfc    00000008     PWM_page.obj (.data:board_pwm_info)
                  20006d04    00000008     error_logger.obj (.data)
                  20006d0c    00000008     usblib.lib : usbdcdc.obj (.data:g_pui8IADSerDescriptor)
                  20006d14    00000008     no_booster_board.obj (.data:i2c_speed_menu)
                  20006d1c    00000008     no_booster_board.obj (.data:power_on_menu)
                  20006d24    00000008     no_booster_board.obj (.data:pullup_en_menu)
                  20006d2c    00000008     PWM_page.obj (.data:pwm_pins)
                  20006d34    00000008     no_booster_board.obj (.data:uart_mode_menu)
                  20006d3c    00000008     no_booster_board.obj (.data:uart_stop_bit_menu)
                  20006d44    00000008     usblib.lib : usbdenum.obj (.data)
                  20006d4c    00000005     UART_streamer.obj (.data)
                  20006d51    00000003     --HOLE--
                  20006d54    00000004     ADC_task.obj (.data)
                  20006d58    00000004     one_wire_command.obj (.data)
                  20006d5c    00000004     rtsv7M4_T_le_v4SPD16_eabi.lib : errno.c.obj (.data)

.sysmem    0    20006d60    00000010     UNINITIALIZED
                  20006d60    00000010     rtsv7M4_T_le_v4SPD16_eabi.lib : memory.c.obj (.sysmem)

__llvm_prf_cnts 
*          0    20000000    00000000     UNINITIALIZED

MODULE SUMMARY

       Module                         code     ro data   rw data
       ------                         ----     -------   -------
    .\
       ADC_task.obj                   652      30        20636  
       SPI_command.obj                6628     121       16     
       I2C_task.obj                   5880     49        0      
       I2C_monitor.obj                3629     171       28     
       console_task.obj               3626     150       0      
       menu_page.obj                  2966     122       0      
       one_wire_command.obj           2686     53        4      
       SPI_monitor.obj                2567     81        28     
       error_logger.obj               672      54        1208   
       UART_command.obj               1568     49        12     
       GPOs.obj                       1124     82        320    
       no_booster_board.obj           1124     236       156    
       I2C_scripter.obj               1444     58        0      
       UART_to_USB.obj                1448     0         25     
       PWM_page.obj                   1131     63        96     
       heap_4.obj                     1108     0         32     
       io_control_page.obj            948      51        0      
       usb_serial_structs.obj         0        214       720    
       UART_streamer.obj              744      55        5      
       task_manager.obj               676      54        0      
       I2C_sniffer.obj                668      57        1      
       GPIs.obj                       532      30        136    
       tm4c123gh6pm_startup_ccs.obj   12       620       0      
       text_controls.obj              210      0         0      
       utils.obj                      96       0         0      
       main.obj                       60       0         0      
       memory_functions.obj           48       0         0      
       hooks.obj                      42       0         0      
    +--+------------------------------+--------+---------+---------+
       Total:                         42289    2400      23423  
                                                                
    .\FreeRTOS\
       tasks.obj                      7644     0         260    
       queue.obj                      4008     0         64     
       list.obj                       298      0         0      
    +--+------------------------------+--------+---------+---------+
       Total:                         11950    0         324    
                                                                
    .\FreeRTOS\portable\CCS\ARM_CM4F\
       port.obj                       652      8         12     
       portasm.obj                    218      0         0      
    +--+------------------------------+--------+---------+---------+
       Total:                         870      8         12     
                                                                
    .\driverlib\
       usb.obj                        5562     0         0      
       sysctl.obj                     3834     452       0      
       gpio.obj                       2952     528       0      
       adc.obj                        1986     0         4      
       interrupt.obj                  960      268       620    
       i2c.obj                        1692     128       0      
       pwm.obj                        1816     0         0      
       timer.obj                      1602     160       0      
       uart.obj                       1560     128       0      
       udma.obj                       1248     0         0      
       ssi.obj                        838      64        0      
       fpu.obj                        192      0         0      
       cpu.obj                        62       0         0      
    +--+------------------------------+--------+---------+---------+
       Total:                         24304    1728      624    
                                                                
    .\utils\
       uartstdio.obj                  1264     46        9      
    +--+------------------------------+--------+---------+---------+
       Total:                         1264     46        9      
                                                                
    C:/ti/TivaWare_C_Series-2.2.0.295/usblib/ccs/Debug/usblib.lib
       usbdenum.obj                   2908     52        160    
       usbdcdc.obj                    2134     217       93     
       usbdma.obj                     2030     0         272    
       usbbuffer.obj                  660      0         0      
       usbdconfig.obj                 576      0         0      
       usbdcdesc.obj                  360      0         0      
       usbringbuf.obj                 348      0         0      
       usbtick.obj                    160      0         60     
       usbdesc.obj                    86       0         0      
       usbulpi.obj                    82       0         0      
       usbmode.obj                    36       0         13     
       usbdhandler.obj                24       0         0      
    +--+------------------------------+--------+---------+---------+
       Total:                         9404     269       598    
                                                                
    C:\ti\ccs1020\ccs\tools\compiler\ti-cgt-arm_20.2.2.LTS\lib\rtsv7M4_T_le_v4SPD16_eabi.lib
       _printfi.c.obj                 4851     0         0      
       memory.c.obj                   672      0         8      
       fd_add_t2.asm.obj              438      0         0      
       defs.c.obj                     0        0         416    
       trgmsg.c.obj                   108      0         288    
       fd_div_t2.asm.obj              310      0         0      
       fputs.c.obj                    276      0         0      
       s_scalbn.c.obj                 272      0         0      
       fd_cmp_t2.asm.obj              268      0         0      
       ctype.c.obj                    0        257       0      
       fd_mul_t2.asm.obj              252      0         0      
       setvbuf.c.obj                  220      0         0      
       fflush.c.obj                   200      0         0      
       host_device.c.obj              0        0         200    
       typeinfo.c.obj                 36       127       0      
       memcpy_t2.asm.obj              156      0         0      
       ull_div_t2.asm.obj             150      0         0      
       memset_t2.asm.obj              122      0         0      
       fclose.c.obj                   116      0         0      
       getdevice.c.obj                116      0         0      
       hostrename.c.obj               108      0         0      
       copy_decompress_lzss.c.obj     104      0         0      
       hostlseek.c.obj                104      0         0      
       hostopen.c.obj                 96       0         8      
       fseek.c.obj                    100      0         0      
       s_frexp.c.obj                  100      0         0      
       _io_perm.c.obj                 98       0         0      
       sprintf.c.obj                  98       0         0      
       close.c.obj                    92       0         0      
       exit.c.obj                     76       0         12     
       hostread.c.obj                 88       0         0      
       hostwrite.c.obj                88       0         0      
       _ltoa.c.obj                    84       0         0      
       atoi.c.obj                     76       0         0      
       fd_toi_t2.asm.obj              72       0         0      
       autoinit.c.obj                 68       0         0      
       fd_tou_t2.asm.obj              68       0         0      
       hostclose.c.obj                68       0         0      
       hostunlink.c.obj               68       0         0      
       u_divt2.asm.obj                64       0         0      
       strncpy.c.obj                  54       0         0      
       boot_cortex_m.c.obj            52       0         0      
       fopen.c.obj                    52       0         0      
       i_tofd_t2.asm.obj              46       0         0      
       unlink.c.obj                   44       0         0      
       lseek.c.obj                    40       0         0      
       memmov.c.obj                   40       0         0      
       write.c.obj                    40       0         0      
       memchr.c.obj                   32       0         0      
       u_tofd_t2.asm.obj              32       0         0      
       assert.c.obj                   28       0         0      
       memccpy.c.obj                  28       0         0      
       s_copysign.c.obj               26       0         0      
       strcmp.c.obj                   24       0         0      
       stdlib_typeinfo.cpp.obj        2        21        0      
       strchr.c.obj                   22       0         0      
       vector.cpp.obj                 14       7         0      
       strcpy.c.obj                   20       0         0      
       strlen.c.obj                   20       0         0      
       wcslen.c.obj                   18       0         0      
       copy_decompress_none.c.obj     14       0         0      
       copy_zero_init.c.obj           12       0         0      
       errno.c.obj                    8        0         4      
       _lock.c.obj                    2        0         8      
       pure_virt.c.obj                6        0         0      
       error.c.obj                    4        0         0      
       new.cpp.obj                    4        0         0      
       pre_init.c.obj                 4        0         0      
       div0.asm.obj                   2        0         0      
    +--+------------------------------+--------+---------+---------+
       Total:                         10973    412       944    
                                                                
       Heap:                          0        0         16     
       Stack:                         0        0         2048   
       Linker Generated:              0        789       0      
    +--+------------------------------+--------+---------+---------+
       Grand Total:                   101054   5652      27998  


LINKER GENERATED COPY TABLES

__TI_cinit_table @ 0001a0f0 records: 3, size/record: 8, table size: 24
	.data: load addr=00019df0, load size=000002e1 bytes, run addr=200065f8, run size=00000768 bytes, compression=lzss
	.bss: load addr=0001a0e0, load size=00000008 bytes, run addr=2000026c, run size=00005b88 bytes, compression=zero_init
	.vtable: load addr=0001a0e8, load size=00000008 bytes, run addr=20000000, run size=0000026c bytes, compression=zero_init


LINKER GENERATED HANDLER TABLE

__TI_handler_table @ 0001a0d4 records: 3, size/record: 4, table size: 12
	index: 0, handler: __TI_zero_init
	index: 1, handler: __TI_decompress_lzss
	index: 2, handler: __TI_decompress_none


GLOBAL SYMBOLS: SORTED ALPHABETICALLY BY Name 

address   name                                                                                                                                                                                                                                                                             
-------   ----                                                                                                                                                                                                                                                                             
0000a119  ADCBusy                                                                                                                                                                                                                                                                          
0000a161  ADCClockConfigGet                                                                                                                                                                                                                                                                
0000a137  ADCClockConfigSet                                                                                                                                                                                                                                                                
00009f33  ADCComparatorConfigure                                                                                                                                                                                                                                                           
0000a003  ADCComparatorIntClear                                                                                                                                                                                                                                                            
00009fb9  ADCComparatorIntDisable                                                                                                                                                                                                                                                          
00009fd7  ADCComparatorIntEnable                                                                                                                                                                                                                                                           
00009ff5  ADCComparatorIntStatus                                                                                                                                                                                                                                                           
00009f4f  ADCComparatorRegionSet                                                                                                                                                                                                                                                           
00009f73  ADCComparatorReset                                                                                                                                                                                                                                                               
00009f01  ADCHardwareOversampleConfigure                                                                                                                                                                                                                                                   
00009b17  ADCIntClear                                                                                                                                                                                                                                                                      
0000a07b  ADCIntClearEx                                                                                                                                                                                                                                                                    
00009a7d  ADCIntDisable                                                                                                                                                                                                                                                                    
0000a015  ADCIntDisableEx                                                                                                                                                                                                                                                                  
00009a99  ADCIntEnable                                                                                                                                                                                                                                                                     
0000a02d  ADCIntEnableEx                                                                                                                                                                                                                                                                   
00009a37  ADCIntRegister                                                                                                                                                                                                                                                                   
00009abf  ADCIntStatus                                                                                                                                                                                                                                                                     
0000a049  ADCIntStatusEx                                                                                                                                                                                                                                                                   
00009a5f  ADCIntUnregister                                                                                                                                                                                                                                                                 
0000a0d3  ADCPhaseDelayGet                                                                                                                                                                                                                                                                 
0000a0c1  ADCPhaseDelaySet                                                                                                                                                                                                                                                                 
00009d77  ADCProcessorTrigger                                                                                                                                                                                                                                                              
0000a0af  ADCReferenceGet                                                                                                                                                                                                                                                                  
0000a093  ADCReferenceSet                                                                                                                                                                                                                                                                  
00009b61  ADCSequenceConfigure                                                                                                                                                                                                                                                             
0000a0fd  ADCSequenceDMADisable                                                                                                                                                                                                                                                            
0000a0e1  ADCSequenceDMAEnable                                                                                                                                                                                                                                                             
00009d35  ADCSequenceDataGet                                                                                                                                                                                                                                                               
00009b47  ADCSequenceDisable                                                                                                                                                                                                                                                               
00009b2d  ADCSequenceEnable                                                                                                                                                                                                                                                                
00009cd9  ADCSequenceOverflow                                                                                                                                                                                                                                                              
00009cf1  ADCSequenceOverflowClear                                                                                                                                                                                                                                                         
00009be5  ADCSequenceStepConfigure                                                                                                                                                                                                                                                         
00009d07  ADCSequenceUnderflow                                                                                                                                                                                                                                                             
00009d1f  ADCSequenceUnderflowClear                                                                                                                                                                                                                                                        
00009d9b  ADCSoftwareOversampleConfigure                                                                                                                                                                                                                                                   
00009e93  ADCSoftwareOversampleDataGet                                                                                                                                                                                                                                                     
00009dd3  ADCSoftwareOversampleStepConfigure                                                                                                                                                                                                                                               
00018d41  C$$EXIT                                                                                                                                                                                                                                                                          
00016aa3  C$$IO$$                                                                                                                                                                                                                                                                          
00016703  CPUbasepriGet                                                                                                                                                                                                                                                                    
000166f5  CPUbasepriSet                                                                                                                                                                                                                                                                    
000166cf  CPUcpsid                                                                                                                                                                                                                                                                         
000166e5  CPUcpsie                                                                                                                                                                                                                                                                         
000166db  CPUprimask                                                                                                                                                                                                                                                                       
000166f1  CPUwfi                                                                                                                                                                                                                                                                           
0000d83d  ControlHandler                                                                                                                                                                                                                                                                   
00013b57  FPUDisable                                                                                                                                                                                                                                                                       
00013b45  FPUEnable                                                                                                                                                                                                                                                                        
00013bc3  FPUFlushToZeroModeSet                                                                                                                                                                                                                                                            
00013b8f  FPUHalfPrecisionModeSet                                                                                                                                                                                                                                                          
00013b77  FPULazyStackingEnable                                                                                                                                                                                                                                                            
00013ba9  FPUNaNModeSet                                                                                                                                                                                                                                                                    
00013bdd  FPURoundingModeSet                                                                                                                                                                                                                                                               
00013b83  FPUStackingDisable                                                                                                                                                                                                                                                               
00013b65  FPUStackingEnable                                                                                                                                                                                                                                                                
000084e7  GPIOADCTriggerDisable                                                                                                                                                                                                                                                            
000084c9  GPIOADCTriggerEnable                                                                                                                                                                                                                                                             
000084ab  GPIODMATriggerDisable                                                                                                                                                                                                                                                            
0000848d  GPIODMATriggerEnable                                                                                                                                                                                                                                                             
00007a3f  GPIODirModeGet                                                                                                                                                                                                                                                                   
000079e3  GPIODirModeSet                                                                                                                                                                                                                                                                   
00007fa7  GPIOIntClear                                                                                                                                                                                                                                                                     
00007f6b  GPIOIntDisable                                                                                                                                                                                                                                                                   
00007f51  GPIOIntEnable                                                                                                                                                                                                                                                                    
00007fbb  GPIOIntRegister                                                                                                                                                                                                                                                                  
00007f85  GPIOIntStatus                                                                                                                                                                                                                                                                    
00007b2f  GPIOIntTypeGet                                                                                                                                                                                                                                                                   
00007a8b  GPIOIntTypeSet                                                                                                                                                                                                                                                                   
00007fd9  GPIOIntUnregister                                                                                                                                                                                                                                                                
00007dff  GPIOPadConfigGet                                                                                                                                                                                                                                                                 
00007bc5  GPIOPadConfigSet                                                                                                                                                                                                                                                                 
0000842f  GPIOPinConfigure                                                                                                                                                                                                                                                                 
00007ff3  GPIOPinRead                                                                                                                                                                                                                                                                      
0000802b  GPIOPinTypeADC                                                                                                                                                                                                                                                                   
0000804f  GPIOPinTypeCAN                                                                                                                                                                                                                                                                   
000083fb  GPIOPinTypeCIR                                                                                                                                                                                                                                                                   
00008073  GPIOPinTypeComparator                                                                                                                                                                                                                                                            
00008097  GPIOPinTypeEPI                                                                                                                                                                                                                                                                   
000080bb  GPIOPinTypeEthernetLED                                                                                                                                                                                                                                                           
000080df  GPIOPinTypeEthernetMII                                                                                                                                                                                                                                                           
00008103  GPIOPinTypeGPIOInput                                                                                                                                                                                                                                                             
00008127  GPIOPinTypeGPIOOutput                                                                                                                                                                                                                                                            
0000814b  GPIOPinTypeGPIOOutputOD                                                                                                                                                                                                                                                          
0000816f  GPIOPinTypeI2C                                                                                                                                                                                                                                                                   
00008193  GPIOPinTypeI2CSCL                                                                                                                                                                                                                                                                
000083b3  GPIOPinTypeKBColumn                                                                                                                                                                                                                                                              
0000838f  GPIOPinTypeKBRow                                                                                                                                                                                                                                                                 
000081b7  GPIOPinTypeLCD                                                                                                                                                                                                                                                                   
000083d7  GPIOPinTypeLEDSeq                                                                                                                                                                                                                                                                
000081db  GPIOPinTypeLPC                                                                                                                                                                                                                                                                   
000081ff  GPIOPinTypePECIRx                                                                                                                                                                                                                                                                
00008223  GPIOPinTypePECITx                                                                                                                                                                                                                                                                
00008247  GPIOPinTypePWM                                                                                                                                                                                                                                                                   
0000826b  GPIOPinTypeQEI                                                                                                                                                                                                                                                                   
0000828f  GPIOPinTypeSSI                                                                                                                                                                                                                                                                   
000082b3  GPIOPinTypeTimer                                                                                                                                                                                                                                                                 
000082d7  GPIOPinTypeUART                                                                                                                                                                                                                                                                  
000082fb  GPIOPinTypeUSBAnalog                                                                                                                                                                                                                                                             
0000831f  GPIOPinTypeUSBDigital                                                                                                                                                                                                                                                            
00008343  GPIOPinTypeWakeHigh                                                                                                                                                                                                                                                              
00008369  GPIOPinTypeWakeLow                                                                                                                                                                                                                                                               
0000841f  GPIOPinWakeStatus                                                                                                                                                                                                                                                                
0000800b  GPIOPinWrite                                                                                                                                                                                                                                                                     
00016379  HOSTclose                                                                                                                                                                                                                                                                        
00014e4d  HOSTlseek                                                                                                                                                                                                                                                                        
00015365  HOSTopen                                                                                                                                                                                                                                                                         
000156c1  HOSTread                                                                                                                                                                                                                                                                         
00014bc5  HOSTrename                                                                                                                                                                                                                                                                       
000163bd  HOSTunlink                                                                                                                                                                                                                                                                       
00015719  HOSTwrite                                                                                                                                                                                                                                                                        
0000aeaf  I2CFIFODataGet                                                                                                                                                                                                                                                                   
0000aec9  I2CFIFODataGetNonBlocking                                                                                                                                                                                                                                                        
0000ae65  I2CFIFODataPut                                                                                                                                                                                                                                                                   
0000ae87  I2CFIFODataPutNonBlocking                                                                                                                                                                                                                                                        
0000ae55  I2CFIFOStatus                                                                                                                                                                                                                                                                    
0000aa49  I2CIntRegister                                                                                                                                                                                                                                                                   
0000aa67  I2CIntUnregister                                                                                                                                                                                                                                                                 
0000af05  I2CMasterBurstCountGet                                                                                                                                                                                                                                                           
0000aeef  I2CMasterBurstLengthSet                                                                                                                                                                                                                                                          
0000acad  I2CMasterBusBusy                                                                                                                                                                                                                                                                 
0000ac95  I2CMasterBusy                                                                                                                                                                                                                                                                    
0000acc5  I2CMasterControl                                                                                                                                                                                                                                                                 
0000ad19  I2CMasterDataGet                                                                                                                                                                                                                                                                 
0000ad03  I2CMasterDataPut                                                                                                                                                                                                                                                                 
0000aa15  I2CMasterDisable                                                                                                                                                                                                                                                                 
0000a9e1  I2CMasterEnable                                                                                                                                                                                                                                                                  
0000acd7  I2CMasterErr                                                                                                                                                                                                                                                                     
0000af13  I2CMasterGlitchFilterConfigSet                                                                                                                                                                                                                                                   
0000a917  I2CMasterInitExpClk                                                                                                                                                                                                                                                              
0000ac0f  I2CMasterIntClear                                                                                                                                                                                                                                                                
0000ac2d  I2CMasterIntClearEx                                                                                                                                                                                                                                                              
0000aadb  I2CMasterIntDisable                                                                                                                                                                                                                                                              
0000aaeb  I2CMasterIntDisableEx                                                                                                                                                                                                                                                            
0000aa81  I2CMasterIntEnable                                                                                                                                                                                                                                                               
0000aa91  I2CMasterIntEnableEx                                                                                                                                                                                                                                                             
0000ab35  I2CMasterIntStatus                                                                                                                                                                                                                                                               
0000ab79  I2CMasterIntStatusEx                                                                                                                                                                                                                                                             
0000ac87  I2CMasterLineStateGet                                                                                                                                                                                                                                                            
0000ac65  I2CMasterSlaveAddrSet                                                                                                                                                                                                                                                            
0000ad27  I2CMasterTimeoutSet                                                                                                                                                                                                                                                              
0000ae15  I2CRxFIFOConfigSet                                                                                                                                                                                                                                                               
0000ae3d  I2CRxFIFOFlush                                                                                                                                                                                                                                                                   
0000ad39  I2CSlaveACKOverride                                                                                                                                                                                                                                                              
0000ad6b  I2CSlaveACKValueSet                                                                                                                                                                                                                                                              
0000a9a3  I2CSlaveAddressSet                                                                                                                                                                                                                                                               
0000adc5  I2CSlaveDataGet                                                                                                                                                                                                                                                                  
0000adad  I2CSlaveDataPut                                                                                                                                                                                                                                                                  
0000aa2b  I2CSlaveDisable                                                                                                                                                                                                                                                                  
0000a9f7  I2CSlaveEnable                                                                                                                                                                                                                                                                   
0000af43  I2CSlaveFIFODisable                                                                                                                                                                                                                                                              
0000af2b  I2CSlaveFIFOEnable                                                                                                                                                                                                                                                               
0000a989  I2CSlaveInit                                                                                                                                                                                                                                                                     
0000ac3f  I2CSlaveIntClear                                                                                                                                                                                                                                                                 
0000ac51  I2CSlaveIntClearEx                                                                                                                                                                                                                                                               
0000ab03  I2CSlaveIntDisable                                                                                                                                                                                                                                                               
0000ab1b  I2CSlaveIntDisableEx                                                                                                                                                                                                                                                             
0000aaa9  I2CSlaveIntEnable                                                                                                                                                                                                                                                                
0000aac1  I2CSlaveIntEnableEx                                                                                                                                                                                                                                                              
0000aba5  I2CSlaveIntStatus                                                                                                                                                                                                                                                                
0000abed  I2CSlaveIntStatusEx                                                                                                                                                                                                                                                              
0000ad9d  I2CSlaveStatus                                                                                                                                                                                                                                                                   
0000add5  I2CTxFIFOConfigSet                                                                                                                                                                                                                                                               
0000adfd  I2CTxFIFOFlush                                                                                                                                                                                                                                                                   
00010181  IntDisable                                                                                                                                                                                                                                                                       
0001010f  IntEnable                                                                                                                                                                                                                                                                        
000101f3  IntIsEnabled                                                                                                                                                                                                                                                                     
0000ffd3  IntMasterDisable                                                                                                                                                                                                                                                                 
0000ffc3  IntMasterEnable                                                                                                                                                                                                                                                                  
000102e9  IntPendClear                                                                                                                                                                                                                                                                     
00010279  IntPendSet                                                                                                                                                                                                                                                                       
000100eb  IntPriorityGet                                                                                                                                                                                                                                                                   
00010063  IntPriorityGroupingGet                                                                                                                                                                                                                                                           
00010049  IntPriorityGroupingSet                                                                                                                                                                                                                                                           
00010343  IntPriorityMaskGet                                                                                                                                                                                                                                                               
00010337  IntPriorityMaskSet                                                                                                                                                                                                                                                               
0001009b  IntPrioritySet                                                                                                                                                                                                                                                                   
0000ffe3  IntRegister                                                                                                                                                                                                                                                                      
0001034b  IntTrigger                                                                                                                                                                                                                                                                       
00010035  IntUnregister                                                                                                                                                                                                                                                                    
000168ed  InternalUSBRegisterTickHandler                                                                                                                                                                                                                                                   
00016925  InternalUSBStartOfFrameTick                                                                                                                                                                                                                                                      
00016ded  InternalUSBTickInit                                                                                                                                                                                                                                                              
0000a81b  PWMClockGet                                                                                                                                                                                                                                                                      
0000a7fb  PWMClockSet                                                                                                                                                                                                                                                                      
0000a345  PWMDeadBandDisable                                                                                                                                                                                                                                                               
0000a30d  PWMDeadBandEnable                                                                                                                                                                                                                                                                
0000a6c1  PWMFaultIntClear                                                                                                                                                                                                                                                                 
0000a6f3  PWMFaultIntClearExt                                                                                                                                                                                                                                                              
0000a5db  PWMFaultIntRegister                                                                                                                                                                                                                                                              
0000a5f9  PWMFaultIntUnregister                                                                                                                                                                                                                                                            
0000a1a1  PWMGenConfigure                                                                                                                                                                                                                                                                  
0000a25f  PWMGenDisable                                                                                                                                                                                                                                                                    
0000a245  PWMGenEnable                                                                                                                                                                                                                                                                     
0000a7c5  PWMGenFaultClear                                                                                                                                                                                                                                                                 
0000a711  PWMGenFaultConfigure                                                                                                                                                                                                                                                             
0000a78f  PWMGenFaultStatus                                                                                                                                                                                                                                                                
0000a76b  PWMGenFaultTriggerGet                                                                                                                                                                                                                                                            
0000a741  PWMGenFaultTriggerSet                                                                                                                                                                                                                                                            
0000a679  PWMGenIntClear                                                                                                                                                                                                                                                                   
0000a54d  PWMGenIntRegister                                                                                                                                                                                                                                                                
0000a64f  PWMGenIntStatus                                                                                                                                                                                                                                                                  
0000a631  PWMGenIntTrigDisable                                                                                                                                                                                                                                                             
0000a613  PWMGenIntTrigEnable                                                                                                                                                                                                                                                              
0000a575  PWMGenIntUnregister                                                                                                                                                                                                                                                              
0000a21b  PWMGenPeriodGet                                                                                                                                                                                                                                                                  
0000a1eb  PWMGenPeriodSet                                                                                                                                                                                                                                                                  
0000a6a9  PWMIntDisable                                                                                                                                                                                                                                                                    
0000a691  PWMIntEnable                                                                                                                                                                                                                                                                     
0000a6d3  PWMIntStatus                                                                                                                                                                                                                                                                     
0000a41b  PWMOutputFault                                                                                                                                                                                                                                                                   
0000a3e9  PWMOutputFaultLevel                                                                                                                                                                                                                                                              
0000a3b7  PWMOutputInvert                                                                                                                                                                                                                                                                  
0000a385  PWMOutputState                                                                                                                                                                                                                                                                   
0000a845  PWMOutputUpdateMode                                                                                                                                                                                                                                                              
0000a2c3  PWMPulseWidthGet                                                                                                                                                                                                                                                                 
0000a279  PWMPulseWidthSet                                                                                                                                                                                                                                                                 
0000a373  PWMSyncTimeBase                                                                                                                                                                                                                                                                  
0000a361  PWMSyncUpdate                                                                                                                                                                                                                                                                    
000148b1  ProcessDataFromHost                                                                                                                                                                                                                                                              
00014c31  ProcessDataToHost                                                                                                                                                                                                                                                                
00016cf5  ProcessNotificationToHost                                                                                                                                                                                                                                                        
00018c75  ResetISR                                                                                                                                                                                                                                                                         
0000d921  RxHandler                                                                                                                                                                                                                                                                        
000109fd  SSIAdvDataPutFrameEnd                                                                                                                                                                                                                                                            
00010a23  SSIAdvDataPutFrameEndNonBlocking                                                                                                                                                                                                                                                 
00010a65  SSIAdvFrameHoldDisable                                                                                                                                                                                                                                                           
00010a4f  SSIAdvFrameHoldEnable                                                                                                                                                                                                                                                            
000109e1  SSIAdvModeSet                                                                                                                                                                                                                                                                    
0001098b  SSIBusy                                                                                                                                                                                                                                                                          
000109bd  SSIClockSourceGet                                                                                                                                                                                                                                                                
000109a9  SSIClockSourceSet                                                                                                                                                                                                                                                                
00010793  SSIConfigSetExpClk                                                                                                                                                                                                                                                               
00010973  SSIDMADisable                                                                                                                                                                                                                                                                    
0001095b  SSIDMAEnable                                                                                                                                                                                                                                                                     
0001091d  SSIDataGet                                                                                                                                                                                                                                                                       
00010939  SSIDataGetNonBlocking                                                                                                                                                                                                                                                            
000108e3  SSIDataPut                                                                                                                                                                                                                                                                       
000108fd  SSIDataPutNonBlocking                                                                                                                                                                                                                                                            
00010835  SSIDisable                                                                                                                                                                                                                                                                       
0001081f  SSIEnable                                                                                                                                                                                                                                                                        
000108d1  SSIIntClear                                                                                                                                                                                                                                                                      
0001089b  SSIIntDisable                                                                                                                                                                                                                                                                    
00010883  SSIIntEnable                                                                                                                                                                                                                                                                     
0001084b  SSIIntRegister                                                                                                                                                                                                                                                                   
000108b3  SSIIntStatus                                                                                                                                                                                                                                                                     
00010869  SSIIntUnregister                                                                                                                                                                                                                                                                 
00007923  SysCtlAltClkConfig                                                                                                                                                                                                                                                               
000070f9  SysCtlClockFreqSet                                                                                                                                                                                                                                                               
000075dd  SysCtlClockGet                                                                                                                                                                                                                                                                   
00007907  SysCtlClockOutConfig                                                                                                                                                                                                                                                             
00007411  SysCtlClockSet                                                                                                                                                                                                                                                                   
00006ff9  SysCtlDeepSleep                                                                                                                                                                                                                                                                  
000077a9  SysCtlDeepSleepClockConfigSet                                                                                                                                                                                                                                                    
0000778b  SysCtlDeepSleepClockSet                                                                                                                                                                                                                                                          
00006fd9  SysCtlDeepSleepPowerSet                                                                                                                                                                                                                                                          
00018d05  SysCtlDelay                                                                                                                                                                                                                                                                      
00006b87  SysCtlFlashSectorSizeGet                                                                                                                                                                                                                                                         
00006b5b  SysCtlFlashSizeGet                                                                                                                                                                                                                                                               
0000787f  SysCtlGPIOAHBDisable                                                                                                                                                                                                                                                             
00007863  SysCtlGPIOAHBEnable                                                                                                                                                                                                                                                              
00006f6d  SysCtlIntClear                                                                                                                                                                                                                                                                   
00006f55  SysCtlIntDisable                                                                                                                                                                                                                                                                 
00006f41  SysCtlIntEnable                                                                                                                                                                                                                                                                  
00006f19  SysCtlIntRegister                                                                                                                                                                                                                                                                
00006f7d  SysCtlIntStatus                                                                                                                                                                                                                                                                  
00006f31  SysCtlIntUnregister                                                                                                                                                                                                                                                              
00006fbf  SysCtlLDODeepSleepGet                                                                                                                                                                                                                                                            
00006faf  SysCtlLDODeepSleepSet                                                                                                                                                                                                                                                            
00006fa9  SysCtlLDOSleepGet                                                                                                                                                                                                                                                                
00006f99  SysCtlLDOSleepSet                                                                                                                                                                                                                                                                
0000702f  SysCtlMOSCConfigSet                                                                                                                                                                                                                                                              
000078f3  SysCtlNMIClear                                                                                                                                                                                                                                                                   
000078ed  SysCtlNMIStatus                                                                                                                                                                                                                                                                  
00007045  SysCtlPIOSCCalibrate                                                                                                                                                                                                                                                             
0000784d  SysCtlPWMClockGet                                                                                                                                                                                                                                                                
00007833  SysCtlPWMClockSet                                                                                                                                                                                                                                                                
00006ec5  SysCtlPeripheralClockGating                                                                                                                                                                                                                                                      
00006e7d  SysCtlPeripheralDeepSleepDisable                                                                                                                                                                                                                                                 
00006e2d  SysCtlPeripheralDeepSleepEnable                                                                                                                                                                                                                                                  
00006d69  SysCtlPeripheralDisable                                                                                                                                                                                                                                                          
00006d2d  SysCtlPeripheralEnable                                                                                                                                                                                                                                                           
00006c69  SysCtlPeripheralPowerOff                                                                                                                                                                                                                                                         
00006c2d  SysCtlPeripheralPowerOn                                                                                                                                                                                                                                                          
00006bad  SysCtlPeripheralPresent                                                                                                                                                                                                                                                          
00006bed  SysCtlPeripheralReady                                                                                                                                                                                                                                                            
00006ca5  SysCtlPeripheralReset                                                                                                                                                                                                                                                            
00006df1  SysCtlPeripheralSleepDisable                                                                                                                                                                                                                                                     
00006dad  SysCtlPeripheralSleepEnable                                                                                                                                                                                                                                                      
00006fe9  SysCtlReset                                                                                                                                                                                                                                                                      
000070a5  SysCtlResetBehaviorGet                                                                                                                                                                                                                                                           
00007095  SysCtlResetBehaviorSet                                                                                                                                                                                                                                                           
0000701b  SysCtlResetCauseClear                                                                                                                                                                                                                                                            
00007015  SysCtlResetCauseGet                                                                                                                                                                                                                                                              
00006b51  SysCtlSRAMSizeGet                                                                                                                                                                                                                                                                
00006ff1  SysCtlSleep                                                                                                                                                                                                                                                                      
00006fc5  SysCtlSleepPowerSet                                                                                                                                                                                                                                                              
000078ad  SysCtlUSBPLLDisable                                                                                                                                                                                                                                                              
0000789b  SysCtlUSBPLLEnable                                                                                                                                                                                                                                                               
000078d9  SysCtlVoltageEventClear                                                                                                                                                                                                                                                          
000078bd  SysCtlVoltageEventConfig                                                                                                                                                                                                                                                         
000078cd  SysCtlVoltageEventStatus                                                                                                                                                                                                                                                         
0000c85d  TimerADCEventGet                                                                                                                                                                                                                                                                 
0000c84b  TimerADCEventSet                                                                                                                                                                                                                                                                 
0000c581  TimerClockSourceGet                                                                                                                                                                                                                                                              
0000c557  TimerClockSourceSet                                                                                                                                                                                                                                                              
0000c34b  TimerConfigure                                                                                                                                                                                                                                                                   
0000c46b  TimerControlEvent                                                                                                                                                                                                                                                                
0000c3c7  TimerControlLevel                                                                                                                                                                                                                                                                
0000c495  TimerControlStall                                                                                                                                                                                                                                                                
0000c3fd  TimerControlTrigger                                                                                                                                                                                                                                                              
0000c4cb  TimerControlWaitOnTrigger                                                                                                                                                                                                                                                        
0000c87d  TimerDMAEventGet                                                                                                                                                                                                                                                                 
0000c86b  TimerDMAEventSet                                                                                                                                                                                                                                                                 
0000c32d  TimerDisable                                                                                                                                                                                                                                                                     
0000c30f  TimerEnable                                                                                                                                                                                                                                                                      
0000c827  TimerIntClear                                                                                                                                                                                                                                                                    
0000c7f1  TimerIntDisable                                                                                                                                                                                                                                                                  
0000c7d9  TimerIntEnable                                                                                                                                                                                                                                                                   
0000c793  TimerIntRegister                                                                                                                                                                                                                                                                 
0000c809  TimerIntStatus                                                                                                                                                                                                                                                                   
0000c7bb  TimerIntUnregister                                                                                                                                                                                                                                                               
0000c64b  TimerLoadGet                                                                                                                                                                                                                                                                     
0000c681  TimerLoadGet64                                                                                                                                                                                                                                                                   
0000c621  TimerLoadSet                                                                                                                                                                                                                                                                     
0000c667  TimerLoadSet64                                                                                                                                                                                                                                                                   
0000c72b  TimerMatchGet                                                                                                                                                                                                                                                                    
0000c761  TimerMatchGet64                                                                                                                                                                                                                                                                  
0000c701  TimerMatchSet                                                                                                                                                                                                                                                                    
0000c747  TimerMatchSet64                                                                                                                                                                                                                                                                  
0000c5bb  TimerPrescaleGet                                                                                                                                                                                                                                                                 
0000c605  TimerPrescaleMatchGet                                                                                                                                                                                                                                                            
0000c5d7  TimerPrescaleMatchSet                                                                                                                                                                                                                                                            
0000c591  TimerPrescaleSet                                                                                                                                                                                                                                                                 
0000c541  TimerRTCDisable                                                                                                                                                                                                                                                                  
0000c52b  TimerRTCEnable                                                                                                                                                                                                                                                                   
0000c839  TimerSynchronize                                                                                                                                                                                                                                                                 
0000c88b  TimerUpdateMode                                                                                                                                                                                                                                                                  
0000c6b3  TimerValueGet                                                                                                                                                                                                                                                                    
0000c6cf  TimerValueGet64                                                                                                                                                                                                                                                                  
0000d90d  TxHandler                                                                                                                                                                                                                                                                        
0000d4d1  UART9BitAddrSend                                                                                                                                                                                                                                                                 
0000d4ab  UART9BitAddrSet                                                                                                                                                                                                                                                                  
0000d495  UART9BitDisable                                                                                                                                                                                                                                                                  
0000d47f  UART9BitEnable                                                                                                                                                                                                                                                                   
0000d323  UARTBreakCtl                                                                                                                                                                                                                                                                     
0000d34d  UARTBusy                                                                                                                                                                                                                                                                         
0000d2cb  UARTCharGet                                                                                                                                                                                                                                                                      
0000d2af  UARTCharGetNonBlocking                                                                                                                                                                                                                                                           
0000d305  UARTCharPut                                                                                                                                                                                                                                                                      
0000d2e1  UARTCharPutNonBlocking                                                                                                                                                                                                                                                           
0000d273  UARTCharsAvail                                                                                                                                                                                                                                                                   
0000d46f  UARTClockSourceGet                                                                                                                                                                                                                                                               
0000d45b  UARTClockSourceSet                                                                                                                                                                                                                                                               
0000d043  UARTConfigGetExpClk                                                                                                                                                                                                                                                              
0000cfcd  UARTConfigSetExpClk                                                                                                                                                                                                                                                              
0000d421  UARTDMADisable                                                                                                                                                                                                                                                                   
0000d409  UARTDMAEnable                                                                                                                                                                                                                                                                    
0000d0b3  UARTDisable                                                                                                                                                                                                                                                                      
0000d137  UARTDisableSIR                                                                                                                                                                                                                                                                   
0000d08f  UARTEnable                                                                                                                                                                                                                                                                       
0000d109  UARTEnableSIR                                                                                                                                                                                                                                                                    
0000d0f3  UARTFIFODisable                                                                                                                                                                                                                                                                  
0000d0dd  UARTFIFOEnable                                                                                                                                                                                                                                                                   
0000cfa5  UARTFIFOLevelGet                                                                                                                                                                                                                                                                 
0000cf8d  UARTFIFOLevelSet                                                                                                                                                                                                                                                                 
0000d233  UARTFlowControlGet                                                                                                                                                                                                                                                               
0000d217  UARTFlowControlSet                                                                                                                                                                                                                                                               
0000d3f7  UARTIntClear                                                                                                                                                                                                                                                                     
0000d3c1  UARTIntDisable                                                                                                                                                                                                                                                                   
0000d3a9  UARTIntEnable                                                                                                                                                                                                                                                                    
0000d36b  UARTIntRegister                                                                                                                                                                                                                                                                  
0000d3d9  UARTIntStatus                                                                                                                                                                                                                                                                    
0000d389  UARTIntUnregister                                                                                                                                                                                                                                                                
0000d1cd  UARTModemControlClear                                                                                                                                                                                                                                                            
0000d1f1  UARTModemControlGet                                                                                                                                                                                                                                                              
0000d195  UARTModemControlSet                                                                                                                                                                                                                                                              
0000d203  UARTModemStatusGet                                                                                                                                                                                                                                                               
0000cf7b  UARTParityModeGet                                                                                                                                                                                                                                                                
0000cf5f  UARTParityModeSet                                                                                                                                                                                                                                                                
0000d44b  UARTRxErrorClear                                                                                                                                                                                                                                                                 
0000d439  UARTRxErrorGet                                                                                                                                                                                                                                                                   
0000d17f  UARTSmartCardDisable                                                                                                                                                                                                                                                             
0000d14d  UARTSmartCardEnable                                                                                                                                                                                                                                                              
0000d291  UARTSpaceAvail                                                                                                                                                                                                                                                                   
0000e065  UARTStdioConfig                                                                                                                                                                                                                                                                  
0000d261  UARTTxIntModeGet                                                                                                                                                                                                                                                                 
0000d245  UARTTxIntModeSet                                                                                                                                                                                                                                                                 
0000e1e5  UARTgetc                                                                                                                                                                                                                                                                         
0000e12b  UARTgets                                                                                                                                                                                                                                                                         
0000e50b  UARTprintf                                                                                                                                                                                                                                                                       
0000e211  UARTvprintf                                                                                                                                                                                                                                                                      
0000e0ab  UARTwrite                                                                                                                                                                                                                                                                        
00015bc5  ULPIConfigSet                                                                                                                                                                                                                                                                    
00017c59  USB0DeviceIntHandler                                                                                                                                                                                                                                                             
00018d0b  USBBufferDataAvailable                                                                                                                                                                                                                                                           
00014f1d  USBBufferEventCallback                                                                                                                                                                                                                                                           
00018d11  USBBufferFlush                                                                                                                                                                                                                                                                   
00017c71  USBBufferInit                                                                                                                                                                                                                                                                    
000173d1  USBBufferRead                                                                                                                                                                                                                                                                    
00018d17  USBBufferSpaceAvailable                                                                                                                                                                                                                                                          
00016ead  USBBufferWrite                                                                                                                                                                                                                                                                   
0000323f  USBClockDisable                                                                                                                                                                                                                                                                  
00003223  USBClockEnable                                                                                                                                                                                                                                                                   
0000320f  USBControllerVersion                                                                                                                                                                                                                                                             
000134a1  USBDCDCCompositeInit                                                                                                                                                                                                                                                             
00015d0d  USBDCDCInit                                                                                                                                                                                                                                                                      
0001430f  USBDCDCPacketRead                                                                                                                                                                                                                                                                
000153c5  USBDCDCPacketWrite                                                                                                                                                                                                                                                               
00016edb  USBDCDCRxPacketAvailable                                                                                                                                                                                                                                                         
000171af  USBDCDCSerialStateChange                                                                                                                                                                                                                                                         
00017f81  USBDCDCTxPacketAvailable                                                                                                                                                                                                                                                         
00015d5d  USBDCDConfigDescGet                                                                                                                                                                                                                                                              
000170d5  USBDCDConfigDescGetNum                                                                                                                                                                                                                                                           
00017c0b  USBDCDConfigDescGetSize                                                                                                                                                                                                                                                          
00017af5  USBDCDConfigGetInterface                                                                                                                                                                                                                                                         
00016995  USBDCDConfigGetInterfaceEndpoint                                                                                                                                                                                                                                                 
000161c9  USBDCDDeviceInfoInit                                                                                                                                                                                                                                                             
00017c89  USBDCDFeatureGet                                                                                                                                                                                                                                                                 
000123cd  USBDCDInit                                                                                                                                                                                                                                                                       
00017f95  USBDCDRequestDataEP0                                                                                                                                                                                                                                                             
00017fa9  USBDCDSendDataEP0                                                                                                                                                                                                                                                                
00017b11  USBDCDStallEP0                                                                                                                                                                                                                                                                   
00003377  USBDMAChannelAddressGet                                                                                                                                                                                                                                                          
0000335b  USBDMAChannelAddressSet                                                                                                                                                                                                                                                          
000032e1  USBDMAChannelConfigSet                                                                                                                                                                                                                                                           
000033ab  USBDMAChannelCountGet                                                                                                                                                                                                                                                            
0000338f  USBDMAChannelCountSet                                                                                                                                                                                                                                                            
000032c1  USBDMAChannelDisable                                                                                                                                                                                                                                                             
000032a1  USBDMAChannelEnable                                                                                                                                                                                                                                                              
00003271  USBDMAChannelIntDisable                                                                                                                                                                                                                                                          
00003251  USBDMAChannelIntEnable                                                                                                                                                                                                                                                           
00003291  USBDMAChannelIntStatus                                                                                                                                                                                                                                                           
00003311  USBDMAChannelStatus                                                                                                                                                                                                                                                              
00003331  USBDMAChannelStatusClear                                                                                                                                                                                                                                                         
000033c3  USBDMANumChannels                                                                                                                                                                                                                                                                
00017101  USBDescGet                                                                                                                                                                                                                                                                       
000171d9  USBDescGetNum                                                                                                                                                                                                                                                                    
0000267d  USBDevAddrGet                                                                                                                                                                                                                                                                    
00002669  USBDevAddrSet                                                                                                                                                                                                                                                                    
0000263d  USBDevConnect                                                                                                                                                                                                                                                                    
00002653  USBDevDisconnect                                                                                                                                                                                                                                                                 
000029b3  USBDevEndpointConfigGet                                                                                                                                                                                                                                                          
000028c1  USBDevEndpointConfigSet                                                                                                                                                                                                                                                          
00002d3d  USBDevEndpointDataAck                                                                                                                                                                                                                                                            
00002567  USBDevEndpointStall                                                                                                                                                                                                                                                              
000025c9  USBDevEndpointStallClear                                                                                                                                                                                                                                                         
000023e3  USBDevEndpointStatusClear                                                                                                                                                                                                                                                        
0000352f  USBDevLPMConfig                                                                                                                                                                                                                                                                  
0000355d  USBDevLPMDisable                                                                                                                                                                                                                                                                 
00003545  USBDevLPMEnable                                                                                                                                                                                                                                                                  
00003517  USBDevLPMRemoteWake                                                                                                                                                                                                                                                              
00003177  USBDevMode                                                                                                                                                                                                                                                                       
000021a9  USBDevSpeedGet                                                                                                                                                                                                                                                                   
000127bd  USBDeviceConfig                                                                                                                                                                                                                                                                  
00014431  USBDeviceConfigAlternate                                                                                                                                                                                                                                                         
00013735  USBDeviceEnumHandler                                                                                                                                                                                                                                                             
00016211  USBDeviceEnumResetHandler                                                                                                                                                                                                                                                        
0001266d  USBDeviceIntHandlerInternal                                                                                                                                                                                                                                                      
00015dad  USBDeviceResumeTickHandler                                                                                                                                                                                                                                                       
00003129  USBEndpointDMAChannel                                                                                                                                                                                                                                                            
00002b6f  USBEndpointDMAConfigSet                                                                                                                                                                                                                                                          
00002c41  USBEndpointDMADisable                                                                                                                                                                                                                                                            
00002c07  USBEndpointDMAEnable                                                                                                                                                                                                                                                             
00002c7b  USBEndpointDataAvail                                                                                                                                                                                                                                                             
00002cb3  USBEndpointDataGet                                                                                                                                                                                                                                                               
00002dad  USBEndpointDataPut                                                                                                                                                                                                                                                               
00002e11  USBEndpointDataSend                                                                                                                                                                                                                                                              
00002501  USBEndpointDataToggleClear                                                                                                                                                                                                                                                       
000031db  USBEndpointPacketCountSet                                                                                                                                                                                                                                                        
0000236f  USBEndpointStatus                                                                                                                                                                                                                                                                
000030ff  USBFIFOAddrGet                                                                                                                                                                                                                                                                   
00002b09  USBFIFOConfigGet                                                                                                                                                                                                                                                                 
00002aa3  USBFIFOConfigSet                                                                                                                                                                                                                                                                 
00002e69  USBFIFOFlush                                                                                                                                                                                                                                                                     
000030c3  USBFrameNumberGet                                                                                                                                                                                                                                                                
00002117  USBHighSpeed                                                                                                                                                                                                                                                                     
00002f79  USBHostAddrGet                                                                                                                                                                                                                                                                   
00002f41  USBHostAddrSet                                                                                                                                                                                                                                                                   
00002691  USBHostEndpointConfig                                                                                                                                                                                                                                                            
00002d7b  USBHostEndpointDataAck                                                                                                                                                                                                                                                           
00002465  USBHostEndpointDataToggle                                                                                                                                                                                                                                                        
0000253b  USBHostEndpointPing                                                                                                                                                                                                                                                              
0000282b  USBHostEndpointSpeed                                                                                                                                                                                                                                                             
0000239b  USBHostEndpointStatusClear                                                                                                                                                                                                                                                       
0000300b  USBHostHubAddrGet                                                                                                                                                                                                                                                                
00002fa7  USBHostHubAddrSet                                                                                                                                                                                                                                                                
000034db  USBHostLPMConfig                                                                                                                                                                                                                                                                 
000034ff  USBHostLPMResume                                                                                                                                                                                                                                                                 
00003493  USBHostLPMSend                                                                                                                                                                                                                                                                   
00003165  USBHostMode                                                                                                                                                                                                                                                                      
00003039  USBHostPwrConfig                                                                                                                                                                                                                                                                 
000030ab  USBHostPwrDisable                                                                                                                                                                                                                                                                
00003093  USBHostPwrEnable                                                                                                                                                                                                                                                                 
0000307b  USBHostPwrFaultDisable                                                                                                                                                                                                                                                           
00003063  USBHostPwrFaultEnable                                                                                                                                                                                                                                                            
00002ed9  USBHostRequestIN                                                                                                                                                                                                                                                                 
00002f01  USBHostRequestINClear                                                                                                                                                                                                                                                            
00002f2f  USBHostRequestStatus                                                                                                                                                                                                                                                             
000020e9  USBHostReset                                                                                                                                                                                                                                                                     
00002145  USBHostResume                                                                                                                                                                                                                                                                    
00002173  USBHostSpeedGet                                                                                                                                                                                                                                                                  
000020d3  USBHostSuspend                                                                                                                                                                                                                                                                   
000021c1  USBIntDisableControl                                                                                                                                                                                                                                                             
00002285  USBIntDisableEndpoint                                                                                                                                                                                                                                                            
000021ff  USBIntEnableControl                                                                                                                                                                                                                                                              
000022b3  USBIntEnableEndpoint                                                                                                                                                                                                                                                             
00002337  USBIntRegister                                                                                                                                                                                                                                                                   
00002239  USBIntStatusControl                                                                                                                                                                                                                                                              
000022e1  USBIntStatusEndpoint                                                                                                                                                                                                                                                             
00002355  USBIntUnregister                                                                                                                                                                                                                                                                 
00003589  USBLPMEndpointGet                                                                                                                                                                                                                                                                
000035e9  USBLPMIntDisable                                                                                                                                                                                                                                                                 
000035cf  USBLPMIntEnable                                                                                                                                                                                                                                                                  
000035bf  USBLPMIntStatus                                                                                                                                                                                                                                                                  
00003575  USBLPMLinkStateGet                                                                                                                                                                                                                                                               
000035a5  USBLPMRemoteWakeEnabled                                                                                                                                                                                                                                                          
00012269  USBLibDMAInit                                                                                                                                                                                                                                                                    
0000319b  USBModeConfig                                                                                                                                                                                                                                                                    
00003115  USBModeGet                                                                                                                                                                                                                                                                       
000031fb  USBNumEndpointsGet                                                                                                                                                                                                                                                               
00003189  USBOTGMode                                                                                                                                                                                                                                                                       
000030d1  USBOTGSessionRequest                                                                                                                                                                                                                                                             
000031af  USBPHYPowerOff                                                                                                                                                                                                                                                                   
000031c5  USBPHYPowerOn                                                                                                                                                                                                                                                                    
000179a5  USBRingBufAdvanceRead                                                                                                                                                                                                                                                            
000169cd  USBRingBufAdvanceWrite                                                                                                                                                                                                                                                           
00017a05  USBRingBufContigFree                                                                                                                                                                                                                                                             
000182a5  USBRingBufContigUsed                                                                                                                                                                                                                                                             
00017d5d  USBRingBufFlush                                                                                                                                                                                                                                                                  
00018239  USBRingBufFree                                                                                                                                                                                                                                                                   
00018823  USBRingBufInit                                                                                                                                                                                                                                                                   
00017b2d  USBRingBufRead                                                                                                                                                                                                                                                                   
00017d73  USBRingBufReadOne                                                                                                                                                                                                                                                                
00017d89  USBRingBufUsed                                                                                                                                                                                                                                                                   
00017b49  USBRingBufWrite                                                                                                                                                                                                                                                                  
000182b5  USBRingBufWriteOne                                                                                                                                                                                                                                                               
000176e9  USBStackModeSet                                                                                                                                                                                                                                                                  
0000d619  USBUARTIntHandler                                                                                                                                                                                                                                                                
000033d5  USBULPIConfig                                                                                                                                                                                                                                                                    
00003403  USBULPIDisable                                                                                                                                                                                                                                                                   
000033eb  USBULPIEnable                                                                                                                                                                                                                                                                    
0000341b  USBULPIRegRead                                                                                                                                                                                                                                                                   
00003453  USBULPIRegWrite                                                                                                                                                                                                                                                                  
000048b1  _Z12spi_set_modej                                                                                                                                                                                                                                                                
0000ef81  _Z13set_pullup_enj                                                                                                                                                                                                                                                               
0000c8e1  _Z15uart_set_parityj                                                                                                                                                                                                                                                             
0000eedd  _Z16sel_power_supplyj                                                                                                                                                                                                                                                            
00015605  _Z17int_to_bin_stringjPh                                                                                                                                                                                                                                                         
0000eea1  _Z18set_power_suppliesj                                                                                                                                                                                                                                                          
0000c947  _Z18uart_set_stop_bitsj                                                                                                                                                                                                                                                          
00003605  _Z19set_i2c_clock_speedj                                                                                                                                                                                                                                                         
00010a7d  _Z20set_uart_stream_modej                                                                                                                                                                                                                                                        
0000d96d  _Z8get_charv                                                                                                                                                                                                                                                                     
00008c0d  _ZN10OneWireCmd10draw_inputEi                                                                                                                                                                                                                                                    
00008d8f  _ZN10OneWireCmd10draw_resetEv                                                                                                                                                                                                                                                    
00008bb1  _ZN10OneWireCmd12print_errorsEPS_                                                                                                                                                                                                                                                
00008b7f  _ZN10OneWireCmd14taskfunwrapperEPv                                                                                                                                                                                                                                               
0000878d  _ZN10OneWireCmd4taskEPS_                                                                                                                                                                                                                                                         
000086ef  _ZN10OneWireCmd7add_msgEP10OneWireMsg                                                                                                                                                                                                                                            
00008bfd  _ZN10OneWireCmd9draw_dataEv                                                                                                                                                                                                                                                      
00008d7b  _ZN10OneWireCmd9draw_helpEv                                                                                                                                                                                                                                                      
00008bf1  _ZN10OneWireCmd9draw_pageEv                                                                                                                                                                                                                                                      
00008b8d  _ZN10OneWireCmd9set_timerEj                                                                                                                                                                                                                                                      
000085bb  _ZN10OneWireCmdC1EP6GpoObj                                                                                                                                                                                                                                                       
000085bb  _ZN10OneWireCmdC2EP6GpoObj                                                                                                                                                                                                                                                       
00008597  _ZN10OneWireMsgC1Ev                                                                                                                                                                                                                                                              
00008597  _ZN10OneWireMsgC2Ev                                                                                                                                                                                                                                                              
0000506d  _ZN10SpiCmdTask10draw_inputEi                                                                                                                                                                                                                                                    
000059dd  _ZN10SpiCmdTask10draw_resetEv                                                                                                                                                                                                                                                    
00004b95  _ZN10SpiCmdTask10get_vectorEv                                                                                                                                                                                                                                                    
00004e21  _ZN10SpiCmdTask10log_errorsEPS_                                                                                                                                                                                                                                                  
00004b5b  _ZN10SpiCmdTask11add_spi_msgEP6SpiMsg                                                                                                                                                                                                                                            
00004e99  _ZN10SpiCmdTask12ascii_to_hexEh                                                                                                                                                                                                                                                  
00004f33  _ZN10SpiCmdTask12print_errorsEPS_                                                                                                                                                                                                                                                
00004df7  _ZN10SpiCmdTask14taskfunwrapperEPv                                                                                                                                                                                                                                               
00004b79  _ZN10SpiCmdTask19reset_monitor_indexEv                                                                                                                                                                                                                                           
00004c15  _ZN10SpiCmdTask4taskEPS_                                                                                                                                                                                                                                                         
00004f97  _ZN10SpiCmdTask9draw_dataEv                                                                                                                                                                                                                                                      
000059d3  _ZN10SpiCmdTask9draw_helpEv                                                                                                                                                                                                                                                      
00004f8b  _ZN10SpiCmdTask9draw_pageEv                                                                                                                                                                                                                                                      
00004951  _ZN10SpiCmdTaskC1Ev                                                                                                                                                                                                                                                              
00004951  _ZN10SpiCmdTaskC2Ev                                                                                                                                                                                                                                                              
00018513  _ZN10__cxxabiv117__class_type_infoD0Ev                                                                                                                                                                                                                                           
00018d2d  _ZN10__cxxabiv117__class_type_infoD1Ev                                                                                                                                                                                                                                           
00018d2d  _ZN10__cxxabiv117__class_type_infoD2Ev                                                                                                                                                                                                                                           
00018521  _ZN10__cxxabiv120__si_class_type_infoD0Ev                                                                                                                                                                                                                                        
00018d31  _ZN10__cxxabiv120__si_class_type_infoD1Ev                                                                                                                                                                                                                                        
00018d31  _ZN10__cxxabiv120__si_class_type_infoD2Ev                                                                                                                                                                                                                                        
0000af55  _ZN11ConsolePageC1EPKcjb                                                                                                                                                                                                                                                         
0000af55  _ZN11ConsolePageC2EPKcjb                                                                                                                                                                                                                                                         
0000b5b3  _ZN11ConsoleTask10draw_inputEi                                                                                                                                                                                                                                                   
0000b5c9  _ZN11ConsoleTask10draw_resetEv                                                                                                                                                                                                                                                   
0000b017  _ZN11ConsoleTask14taskfunwrapperEPv                                                                                                                                                                                                                                              
0000b49f  _ZN11ConsoleTask15start_draw_menuEPS_                                                                                                                                                                                                                                            
0000b119  _ZN11ConsoleTask4taskEPS_                                                                                                                                                                                                                                                        
0000affb  _ZN11ConsoleTask8add_pageEP11ConsolePage                                                                                                                                                                                                                                         
0000b5a9  _ZN11ConsoleTask9draw_dataEv                                                                                                                                                                                                                                                     
0000b5bf  _ZN11ConsoleTask9draw_helpEv                                                                                                                                                                                                                                                     
0000b561  _ZN11ConsoleTask9draw_pageEv                                                                                                                                                                                                                                                     
0000af89  _ZN11ConsoleTaskC1EP15QueueDefinition                                                                                                                                                                                                                                            
0000af89  _ZN11ConsoleTaskC2EP15QueueDefinition                                                                                                                                                                                                                                            
000111a9  _ZN11ErrorLogger10draw_inputEi                                                                                                                                                                                                                                                   
000111f9  _ZN11ErrorLogger10draw_resetEv                                                                                                                                                                                                                                                   
00011033  _ZN11ErrorLogger12create_errorEPKcS1_                                                                                                                                                                                                                                            
00011009  _ZN11ErrorLogger12get_instanceEv                                                                                                                                                                                                                                                 
20006d08  _ZN11ErrorLogger3objE                                                                                                                                                                                                                                                            
0001110d  _ZN11ErrorLogger9draw_dataEv                                                                                                                                                                                                                                                     
000111ef  _ZN11ErrorLogger9draw_helpEv                                                                                                                                                                                                                                                     
000110c3  _ZN11ErrorLogger9draw_pageEv                                                                                                                                                                                                                                                     
00011095  _ZN11ErrorLogger9set_errorEP7error_t                                                                                                                                                                                                                                             
000110a9  _ZN11ErrorLoggerC1Ev                                                                                                                                                                                                                                                             
000110a9  _ZN11ErrorLoggerC2Ev                                                                                                                                                                                                                                                             
0000fe41  _ZN11MenuOptions10draw_inputEi                                                                                                                                                                                                                                                   
0000ffb5  _ZN11MenuOptions10draw_resetEv                                                                                                                                                                                                                                                   
0000fc17  _ZN11MenuOptions12add_menu_rowEP7MenuRow                                                                                                                                                                                                                                         
0000fe1d  _ZN11MenuOptions9draw_dataEv                                                                                                                                                                                                                                                     
0000ffab  _ZN11MenuOptions9draw_helpEv                                                                                                                                                                                                                                                     
0000fd07  _ZN11MenuOptions9draw_pageEv                                                                                                                                                                                                                                                     
0000fc29  _ZN11MenuOptions9print_rowEj                                                                                                                                                                                                                                                     
0000fbed  _ZN11MenuOptionsC1Ev                                                                                                                                                                                                                                                             
0000fbed  _ZN11MenuOptionsC2Ev                                                                                                                                                                                                                                                             
00010f15  _ZN11TaskManager10draw_inputEi                                                                                                                                                                                                                                                   
00010f21  _ZN11TaskManager10draw_resetEv                                                                                                                                                                                                                                                   
00010f0b  _ZN11TaskManager9draw_dataEv                                                                                                                                                                                                                                                     
00010f2b  _ZN11TaskManager9draw_helpEv                                                                                                                                                                                                                                                     
00010d89  _ZN11TaskManager9draw_pageEv                                                                                                                                                                                                                                                     
00010d65  _ZN11TaskManagerC1Ev                                                                                                                                                                                                                                                             
00010d65  _ZN11TaskManagerC2Ev                                                                                                                                                                                                                                                             
0000da7b  _ZN11UART_to_USB14taskfunwrapperEPv                                                                                                                                                                                                                                              
0000da5b  _ZN11UART_to_USB4taskEPS_                                                                                                                                                                                                                                                        
0000d987  _ZN11UART_to_USBC1EP15QueueDefinitionS1_                                                                                                                                                                                                                                         
0000d987  _ZN11UART_to_USBC2EP15QueueDefinitionS1_                                                                                                                                                                                                                                         
00010c51  _ZN12UartStreamer10draw_inputEi                                                                                                                                                                                                                                                  
00010c67  _ZN12UartStreamer10draw_resetEv                                                                                                                                                                                                                                                  
00010c2d  _ZN12UartStreamer14taskfunwrapperEPv                                                                                                                                                                                                                                             
00010ba9  _ZN12UartStreamer4taskEPS_                                                                                                                                                                                                                                                       
00010c47  _ZN12UartStreamer9draw_dataEv                                                                                                                                                                                                                                                    
00010c5d  _ZN12UartStreamer9draw_helpEv                                                                                                                                                                                                                                                    
00010c3b  _ZN12UartStreamer9draw_pageEv                                                                                                                                                                                                                                                    
00010af9  _ZN12UartStreamerC1Ev                                                                                                                                                                                                                                                            
00010af9  _ZN12UartStreamerC2Ev                                                                                                                                                                                                                                                            
0000f305  _ZN13NoBoosterPackC1Ev                                                                                                                                                                                                                                                           
0000f305  _ZN13NoBoosterPackC2Ev                                                                                                                                                                                                                                                           
0000ba69  _ZN14I2cMonitorTask10draw_inputEi                                                                                                                                                                                                                                                
0000bba9  _ZN14I2cMonitorTask10draw_resetEv                                                                                                                                                                                                                                                
0000b7a5  _ZN14I2cMonitorTask10print_dataEjj                                                                                                                                                                                                                                               
0000b6c7  _ZN14I2cMonitorTask14taskfunwrapperEPv                                                                                                                                                                                                                                           
0000b6d5  _ZN14I2cMonitorTask16print_format_rowEj                                                                                                                                                                                                                                          
0000b673  _ZN14I2cMonitorTask4taskEPS_                                                                                                                                                                                                                                                     
0000b9b9  _ZN14I2cMonitorTask9draw_dataEv                                                                                                                                                                                                                                                  
0000bb9f  _ZN14I2cMonitorTask9draw_helpEv                                                                                                                                                                                                                                                  
0000b919  _ZN14I2cMonitorTask9draw_pageEv                                                                                                                                                                                                                                                  
0000b5ed  _ZN14I2cMonitorTaskC1EP7I2cTaskRNSt3__26vectorIP6I2cMsgNS2_9allocatorIS5_EEEE                                                                                                                                                                                                    
0000b5ed  _ZN14I2cMonitorTaskC2EP7I2cTaskRNSt3__26vectorIP6I2cMsgNS2_9allocatorIS5_EEEE                                                                                                                                                                                                    
0001143b  _ZN14I2cSnifferTask10draw_inputEi                                                                                                                                                                                                                                                
00011457  _ZN14I2cSnifferTask10draw_resetEv                                                                                                                                                                                                                                                
00011417  _ZN14I2cSnifferTask14taskfunwrapperEPv                                                                                                                                                                                                                                           
00011313  _ZN14I2cSnifferTask4taskEPS_                                                                                                                                                                                                                                                     
00011431  _ZN14I2cSnifferTask9draw_dataEv                                                                                                                                                                                                                                                  
00011461  _ZN14I2cSnifferTask9draw_helpEv                                                                                                                                                                                                                                                  
00011425  _ZN14I2cSnifferTask9draw_pageEv                                                                                                                                                                                                                                                  
000112a9  _ZN14I2cSnifferTaskC1EP7I2cTask                                                                                                                                                                                                                                                  
000112a9  _ZN14I2cSnifferTaskC2EP7I2cTask                                                                                                                                                                                                                                                  
0000c0c1  _ZN14SpiMonitorTask10draw_inputEi                                                                                                                                                                                                                                                
0000c1ff  _ZN14SpiMonitorTask10draw_resetEv                                                                                                                                                                                                                                                
0000bdfd  _ZN14SpiMonitorTask10print_dataEjj                                                                                                                                                                                                                                               
0000bd21  _ZN14SpiMonitorTask14taskfunwrapperEPv                                                                                                                                                                                                                                           
0000bd2f  _ZN14SpiMonitorTask16print_format_rowEj                                                                                                                                                                                                                                          
0000bccf  _ZN14SpiMonitorTask4taskEPS_                                                                                                                                                                                                                                                     
0000c015  _ZN14SpiMonitorTask9draw_dataEv                                                                                                                                                                                                                                                  
0000c1f5  _ZN14SpiMonitorTask9draw_helpEv                                                                                                                                                                                                                                                  
0000bf75  _ZN14SpiMonitorTask9draw_pageEv                                                                                                                                                                                                                                                  
0000bc49  _ZN14SpiMonitorTaskC1EP10SpiCmdTaskRNSt3__26vectorIP6SpiMsgNS2_9allocatorIS5_EEEE                                                                                                                                                                                                
0000bc49  _ZN14SpiMonitorTaskC2EP10SpiCmdTaskRNSt3__26vectorIP6SpiMsgNS2_9allocatorIS5_EEEE                                                                                                                                                                                                
0000dcad  _ZN15I2cScripterTask10draw_inputEi                                                                                                                                                                                                                                               
0000dfd9  _ZN15I2cScripterTask10draw_resetEv                                                                                                                                                                                                                                               
0000dbab  _ZN15I2cScripterTask12ascii_to_hexEPc                                                                                                                                                                                                                                            
0000dc01  _ZN15I2cScripterTask13print_messageEP6I2cMsg                                                                                                                                                                                                                                     
0000db9d  _ZN15I2cScripterTask14taskfunwrapperEPv                                                                                                                                                                                                                                          
0000db49  _ZN15I2cScripterTask4taskEPS_                                                                                                                                                                                                                                                    
0000dc87  _ZN15I2cScripterTask9draw_dataEv                                                                                                                                                                                                                                                 
0000de35  _ZN15I2cScripterTask9draw_helpEv                                                                                                                                                                                                                                                 
0000dc6d  _ZN15I2cScripterTask9draw_pageEv                                                                                                                                                                                                                                                 
0000dac1  _ZN15I2cScripterTaskC1EP7I2cTask                                                                                                                                                                                                                                                 
0000dac1  _ZN15I2cScripterTaskC2EP7I2cTask                                                                                                                                                                                                                                                 
00011df9  _ZN6GpiObj10get_configEPKc                                                                                                                                                                                                                                                       
00011e61  _ZN6GpiObj10get_structEv                                                                                                                                                                                                                                                         
00011e45  _ZN6GpiObj3getEP10gpio_pin_t                                                                                                                                                                                                                                                     
00011ccd  _ZN6GpiObjC1Ev                                                                                                                                                                                                                                                                   
00011ccd  _ZN6GpiObjC2Ev                                                                                                                                                                                                                                                                   
0000f14d  _ZN6GpoObj10get_configEPKc                                                                                                                                                                                                                                                       
0000f221  _ZN6GpoObj10get_structEv                                                                                                                                                                                                                                                         
0000f205  _ZN6GpoObj3getEP10gpio_pin_t                                                                                                                                                                                                                                                     
0000f1d1  _ZN6GpoObj3setEP10gpio_pin_tj                                                                                                                                                                                                                                                    
0000efbd  _ZN6GpoObjC1Ev                                                                                                                                                                                                                                                                   
0000efbd  _ZN6GpoObjC2Ev                                                                                                                                                                                                                                                                   
0000368b  _ZN6I2cMsgC1E14i2c_msg_type_t                                                                                                                                                                                                                                                    
0000368b  _ZN6I2cMsgC2E14i2c_msg_type_t                                                                                                                                                                                                                                                    
00004933  _ZN6SpiMsgC1E14spi_msg_type_e                                                                                                                                                                                                                                                    
00004933  _ZN6SpiMsgC2E14spi_msg_type_e                                                                                                                                                                                                                                                    
00011709  _ZN7AdcTask11get_adc_valEP9adc_pin_tPS_                                                                                                                                                                                                                                          
000116c3  _ZN7AdcTask14get_adc_configEPKc                                                                                                                                                                                                                                                  
00011723  _ZN7AdcTask14get_adc_structEv                                                                                                                                                                                                                                                    
00011765  _ZN7AdcTask14taskfunwrapperEPv                                                                                                                                                                                                                                                   
0001172f  _ZN7AdcTask4taskEPS_                                                                                                                                                                                                                                                             
00011579  _ZN7AdcTaskC1Ev                                                                                                                                                                                                                                                                  
00011579  _ZN7AdcTaskC2Ev                                                                                                                                                                                                                                                                  
000042bd  _ZN7I2cTask10draw_inputEi                                                                                                                                                                                                                                                        
000047ad  _ZN7I2cTask10draw_resetEv                                                                                                                                                                                                                                                        
000038ff  _ZN7I2cTask10get_vectorEv                                                                                                                                                                                                                                                        
00003ecb  _ZN7I2cTask10log_errorsEPS_                                                                                                                                                                                                                                                      
00003945  _ZN7I2cTask11add_i2c_msgEP6I2cMsg                                                                                                                                                                                                                                                
00003f59  _ZN7I2cTask12print_errorsEPS_                                                                                                                                                                                                                                                    
00003ebd  _ZN7I2cTask14taskfunwrapperEPv                                                                                                                                                                                                                                                   
00003963  _ZN7I2cTask19reset_monitor_indexEv                                                                                                                                                                                                                                               
000039f1  _ZN7I2cTask4taskEPS_                                                                                                                                                                                                                                                             
00004041  _ZN7I2cTask9draw_dataEv                                                                                                                                                                                                                                                          
000047d1  _ZN7I2cTask9draw_helpEv                                                                                                                                                                                                                                                          
00004035  _ZN7I2cTask9draw_pageEv                                                                                                                                                                                                                                                          
000036f9  _ZN7I2cTaskC1EP12i2c_config_t                                                                                                                                                                                                                                                    
000036f9  _ZN7I2cTaskC2EP12i2c_config_t                                                                                                                                                                                                                                                    
0000fbbd  _ZN7MenuRowC1EjPFvjEPPKcS3_                                                                                                                                                                                                                                                      
0000fbbd  _ZN7MenuRowC2EjPFvjEPPKcS3_                                                                                                                                                                                                                                                      
0000ec41  _ZN7PWMpage10draw_inputEi                                                                                                                                                                                                                                                        
0000ee05  _ZN7PWMpage10draw_resetEv                                                                                                                                                                                                                                                        
0000eb2d  _ZN7PWMpage15set_pulse_widthEjjjb                                                                                                                                                                                                                                                
0000ec23  _ZN7PWMpage9draw_dataEv                                                                                                                                                                                                                                                          
0000ee31  _ZN7PWMpage9draw_helpEv                                                                                                                                                                                                                                                          
0000ec0f  _ZN7PWMpage9draw_pageEv                                                                                                                                                                                                                                                          
0000ea35  _ZN7PWMpageC1Ev                                                                                                                                                                                                                                                                  
0000ea35  _ZN7PWMpageC2Ev                                                                                                                                                                                                                                                                  
00013949  _ZN7TextCtl10clear_lineEv                                                                                                                                                                                                                                                        
00013919  _ZN7TextCtl10cursor_posEjj                                                                                                                                                                                                                                                       
000138ef  _ZN7TextCtl10text_colorEj                                                                                                                                                                                                                                                        
00013953  _ZN7TextCtl13clear_in_lineEv                                                                                                                                                                                                                                                     
000138e1  _ZN7TextCtl13set_text_modeEj                                                                                                                                                                                                                                                     
0001393f  _ZN7TextCtl14clear_terminalEv                                                                                                                                                                                                                                                    
000138fd  _ZN7TextCtl15bold_text_colorEj                                                                                                                                                                                                                                                   
0001392b  _ZN7TextCtl15save_cursor_posEv                                                                                                                                                                                                                                                   
0001395d  _ZN7TextCtl16clear_below_lineEv                                                                                                                                                                                                                                                  
00013935  _ZN7TextCtl18restore_cursor_posEv                                                                                                                                                                                                                                                
0001390b  _ZN7TextCtl9bgd_colorEj                                                                                                                                                                                                                                                          
0000cb1d  _ZN7UartCmd10draw_inputEi                                                                                                                                                                                                                                                        
0000cd9b  _ZN7UartCmd10draw_resetEv                                                                                                                                                                                                                                                        
0000ca33  _ZN7UartCmd9draw_dataEv                                                                                                                                                                                                                                                          
0000cd91  _ZN7UartCmd9draw_helpEv                                                                                                                                                                                                                                                          
0000ca21  _ZN7UartCmd9draw_pageEv                                                                                                                                                                                                                                                          
0000c9eb  _ZN7UartCmdC1Ev                                                                                                                                                                                                                                                                  
0000c9eb  _ZN7UartCmdC2Ev                                                                                                                                                                                                                                                                  
00010665  _ZN9IoCtlPage10draw_inputEi                                                                                                                                                                                                                                                      
00010717  _ZN9IoCtlPage10draw_resetEv                                                                                                                                                                                                                                                      
00010513  _ZN9IoCtlPage9draw_dataEv                                                                                                                                                                                                                                                        
0001070d  _ZN9IoCtlPage9draw_helpEv                                                                                                                                                                                                                                                        
000103df  _ZN9IoCtlPage9draw_pageEv                                                                                                                                                                                                                                                        
00010381  _ZN9IoCtlPageC1EP6GpoObjP6GpiObjP7AdcTask                                                                                                                                                                                                                                        
00010381  _ZN9IoCtlPageC2EP6GpoObjP6GpiObjP7AdcTask                                                                                                                                                                                                                                        
0001852f  _ZNKSt3__213__vector_baseIP11ConsolePageNS_9allocatorIS2_EEE7__allocEv                                                                                                                                                                                                           
00017d9f  _ZNKSt3__213__vector_baseIP11ConsolePageNS_9allocatorIS2_EEE8capacityEv                                                                                                                                                                                                          
0001853d  _ZNKSt3__213__vector_baseIP11ConsolePageNS_9allocatorIS2_EEE9__end_capEv                                                                                                                                                                                                         
0001854b  _ZNKSt3__213__vector_baseIP6I2cMsgNS_9allocatorIS2_EEE7__allocEv                                                                                                                                                                                                                 
00017db5  _ZNKSt3__213__vector_baseIP6I2cMsgNS_9allocatorIS2_EEE8capacityEv                                                                                                                                                                                                                
00018559  _ZNKSt3__213__vector_baseIP6I2cMsgNS_9allocatorIS2_EEE9__end_capEv                                                                                                                                                                                                               
00018567  _ZNKSt3__213__vector_baseIP6SpiMsgNS_9allocatorIS2_EEE7__allocEv                                                                                                                                                                                                                 
00017dcb  _ZNKSt3__213__vector_baseIP6SpiMsgNS_9allocatorIS2_EEE8capacityEv                                                                                                                                                                                                                
00018575  _ZNKSt3__213__vector_baseIP6SpiMsgNS_9allocatorIS2_EEE9__end_capEv                                                                                                                                                                                                               
00018583  _ZNKSt3__213__vector_baseIP7MenuRowNS_9allocatorIS2_EEE7__allocEv                                                                                                                                                                                                                
00017de1  _ZNKSt3__213__vector_baseIP7MenuRowNS_9allocatorIS2_EEE8capacityEv                                                                                                                                                                                                               
00018591  _ZNKSt3__213__vector_baseIP7MenuRowNS_9allocatorIS2_EEE9__end_capEv                                                                                                                                                                                                              
00017df7  _ZNKSt3__214__split_bufferIP11ConsolePageRNS_9allocatorIS2_EEE8capacityEv                                                                                                                                                                                                        
0001859f  _ZNKSt3__214__split_bufferIP11ConsolePageRNS_9allocatorIS2_EEE9__end_capEv                                                                                                                                                                                                       
00017e0d  _ZNKSt3__214__split_bufferIP6I2cMsgRNS_9allocatorIS2_EEE8capacityEv                                                                                                                                                                                                              
000185ad  _ZNKSt3__214__split_bufferIP6I2cMsgRNS_9allocatorIS2_EEE9__end_capEv                                                                                                                                                                                                             
00017e23  _ZNKSt3__214__split_bufferIP6SpiMsgRNS_9allocatorIS2_EEE8capacityEv                                                                                                                                                                                                              
000185bb  _ZNKSt3__214__split_bufferIP6SpiMsgRNS_9allocatorIS2_EEE9__end_capEv                                                                                                                                                                                                             
00017e39  _ZNKSt3__214__split_bufferIP7MenuRowRNS_9allocatorIS2_EEE8capacityEv                                                                                                                                                                                                             
000185c9  _ZNKSt3__214__split_bufferIP7MenuRowRNS_9allocatorIS2_EEE9__end_capEv                                                                                                                                                                                                            
0001882f  _ZNKSt3__217__compressed_pairIPP11ConsolePageNS_9allocatorIS2_EEE5firstEv                                                                                                                                                                                                        
0001883b  _ZNKSt3__217__compressed_pairIPP11ConsolePageNS_9allocatorIS2_EEE6secondEv                                                                                                                                                                                                       
00018847  _ZNKSt3__217__compressed_pairIPP11ConsolePageRNS_9allocatorIS2_EEE5firstEv                                                                                                                                                                                                       
00018853  _ZNKSt3__217__compressed_pairIPP6I2cMsgNS_9allocatorIS2_EEE5firstEv                                                                                                                                                                                                              
0001885f  _ZNKSt3__217__compressed_pairIPP6I2cMsgNS_9allocatorIS2_EEE6secondEv                                                                                                                                                                                                             
0001886b  _ZNKSt3__217__compressed_pairIPP6I2cMsgRNS_9allocatorIS2_EEE5firstEv                                                                                                                                                                                                             
00018877  _ZNKSt3__217__compressed_pairIPP6SpiMsgNS_9allocatorIS2_EEE5firstEv                                                                                                                                                                                                              
00018883  _ZNKSt3__217__compressed_pairIPP6SpiMsgNS_9allocatorIS2_EEE6secondEv                                                                                                                                                                                                             
0001888f  _ZNKSt3__217__compressed_pairIPP6SpiMsgRNS_9allocatorIS2_EEE5firstEv                                                                                                                                                                                                             
0001889b  _ZNKSt3__217__compressed_pairIPP7MenuRowNS_9allocatorIS2_EEE5firstEv                                                                                                                                                                                                             
000188a7  _ZNKSt3__217__compressed_pairIPP7MenuRowNS_9allocatorIS2_EEE6secondEv                                                                                                                                                                                                            
000188b3  _ZNKSt3__217__compressed_pairIPP7MenuRowRNS_9allocatorIS2_EEE5firstEv                                                                                                                                                                                                            
000188c1  _ZNKSt3__220__vector_base_commonILb1EE20__throw_length_errorEv                                                                                                                                                                                                                   
000188cd  _ZNKSt3__222__compressed_pair_elemINS_9allocatorIP11ConsolePageEELi1ELb1EE5__getEv                                                                                                                                                                                               
000188d9  _ZNKSt3__222__compressed_pair_elemINS_9allocatorIP6I2cMsgEELi1ELb1EE5__getEv                                                                                                                                                                                                     
000188e5  _ZNKSt3__222__compressed_pair_elemINS_9allocatorIP6SpiMsgEELi1ELb1EE5__getEv                                                                                                                                                                                                     
000188f1  _ZNKSt3__222__compressed_pair_elemINS_9allocatorIP7MenuRowEELi1ELb1EE5__getEv                                                                                                                                                                                                    
000188fd  _ZNKSt3__222__compressed_pair_elemIPP11ConsolePageLi0ELb0EE5__getEv                                                                                                                                                                                                              
00018909  _ZNKSt3__222__compressed_pair_elemIPP6I2cMsgLi0ELb0EE5__getEv                                                                                                                                                                                                                    
00018915  _ZNKSt3__222__compressed_pair_elemIPP6SpiMsgLi0ELb0EE5__getEv                                                                                                                                                                                                                    
00018921  _ZNKSt3__222__compressed_pair_elemIPP7MenuRowLi0ELb0EE5__getEv                                                                                                                                                                                                                   
00017a23  _ZNKSt3__26__lessIjjEclERKjS3_                                                                                                                                                                                                                                                   
00016057  _ZNKSt3__26vectorIP11ConsolePageNS_9allocatorIS2_EEE11__recommendEj                                                                                                                                                                                                              
00015a21  _ZNKSt3__26vectorIP11ConsolePageNS_9allocatorIS2_EEE14__annotate_newEj                                                                                                                                                                                                           
00015771  _ZNKSt3__26vectorIP11ConsolePageNS_9allocatorIS2_EEE17__annotate_deleteEv                                                                                                                                                                                                        
000182c5  _ZNKSt3__26vectorIP11ConsolePageNS_9allocatorIS2_EEE31__annotate_contiguous_containerEPKvS7_S7_S7_                                                                                                                                                                               
000185d7  _ZNKSt3__26vectorIP11ConsolePageNS_9allocatorIS2_EEE4dataEv                                                                                                                                                                                                                      
00017e4f  _ZNKSt3__26vectorIP11ConsolePageNS_9allocatorIS2_EEE4sizeEv                                                                                                                                                                                                                      
0001892d  _ZNKSt3__26vectorIP11ConsolePageNS_9allocatorIS2_EEE8capacityEv                                                                                                                                                                                                                  
0001770d  _ZNKSt3__26vectorIP11ConsolePageNS_9allocatorIS2_EEE8max_sizeEv                                                                                                                                                                                                                  
000160a1  _ZNKSt3__26vectorIP6I2cMsgNS_9allocatorIS2_EEE11__recommendEj                                                                                                                                                                                                                    
00015a75  _ZNKSt3__26vectorIP6I2cMsgNS_9allocatorIS2_EEE14__annotate_newEj                                                                                                                                                                                                                 
000157c7  _ZNKSt3__26vectorIP6I2cMsgNS_9allocatorIS2_EEE17__annotate_deleteEv                                                                                                                                                                                                              
00015c17  _ZNKSt3__26vectorIP6I2cMsgNS_9allocatorIS2_EEE17__annotate_shrinkEj                                                                                                                                                                                                              
000182d5  _ZNKSt3__26vectorIP6I2cMsgNS_9allocatorIS2_EEE31__annotate_contiguous_containerEPKvS7_S7_S7_                                                                                                                                                                                     
000185e5  _ZNKSt3__26vectorIP6I2cMsgNS_9allocatorIS2_EEE4dataEv                                                                                                                                                                                                                            
00017e65  _ZNKSt3__26vectorIP6I2cMsgNS_9allocatorIS2_EEE4sizeEv                                                                                                                                                                                                                            
00018939  _ZNKSt3__26vectorIP6I2cMsgNS_9allocatorIS2_EEE8capacityEv                                                                                                                                                                                                                        
00017731  _ZNKSt3__26vectorIP6I2cMsgNS_9allocatorIS2_EEE8max_sizeEv                                                                                                                                                                                                                        
000160eb  _ZNKSt3__26vectorIP6SpiMsgNS_9allocatorIS2_EEE11__recommendEj                                                                                                                                                                                                                    
00015ac9  _ZNKSt3__26vectorIP6SpiMsgNS_9allocatorIS2_EEE14__annotate_newEj                                                                                                                                                                                                                 
0001581d  _ZNKSt3__26vectorIP6SpiMsgNS_9allocatorIS2_EEE17__annotate_deleteEv                                                                                                                                                                                                              
00015c69  _ZNKSt3__26vectorIP6SpiMsgNS_9allocatorIS2_EEE17__annotate_shrinkEj                                                                                                                                                                                                              
000182e5  _ZNKSt3__26vectorIP6SpiMsgNS_9allocatorIS2_EEE31__annotate_contiguous_containerEPKvS7_S7_S7_                                                                                                                                                                                     
000185f3  _ZNKSt3__26vectorIP6SpiMsgNS_9allocatorIS2_EEE4dataEv                                                                                                                                                                                                                            
00017e7b  _ZNKSt3__26vectorIP6SpiMsgNS_9allocatorIS2_EEE4sizeEv                                                                                                                                                                                                                            
00018945  _ZNKSt3__26vectorIP6SpiMsgNS_9allocatorIS2_EEE8capacityEv                                                                                                                                                                                                                        
00017755  _ZNKSt3__26vectorIP6SpiMsgNS_9allocatorIS2_EEE8max_sizeEv                                                                                                                                                                                                                        
00016135  _ZNKSt3__26vectorIP7MenuRowNS_9allocatorIS2_EEE11__recommendEj                                                                                                                                                                                                                   
00015b1d  _ZNKSt3__26vectorIP7MenuRowNS_9allocatorIS2_EEE14__annotate_newEj                                                                                                                                                                                                                
00015873  _ZNKSt3__26vectorIP7MenuRowNS_9allocatorIS2_EEE17__annotate_deleteEv                                                                                                                                                                                                             
000182f5  _ZNKSt3__26vectorIP7MenuRowNS_9allocatorIS2_EEE31__annotate_contiguous_containerEPKvS7_S7_S7_                                                                                                                                                                                    
00018601  _ZNKSt3__26vectorIP7MenuRowNS_9allocatorIS2_EEE4dataEv                                                                                                                                                                                                                           
00017e91  _ZNKSt3__26vectorIP7MenuRowNS_9allocatorIS2_EEE4sizeEv                                                                                                                                                                                                                           
00018951  _ZNKSt3__26vectorIP7MenuRowNS_9allocatorIS2_EEE8capacityEv                                                                                                                                                                                                                       
00017779  _ZNKSt3__26vectorIP7MenuRowNS_9allocatorIS2_EEE8max_sizeEv                                                                                                                                                                                                                       
0001860f  _ZNKSt3__29allocatorIP11ConsolePageE8max_sizeEv                                                                                                                                                                                                                                  
0001861d  _ZNKSt3__29allocatorIP6I2cMsgE8max_sizeEv                                                                                                                                                                                                                                        
0001862b  _ZNKSt3__29allocatorIP6SpiMsgE8max_sizeEv                                                                                                                                                                                                                                        
00018639  _ZNKSt3__29allocatorIP7MenuRowE8max_sizeEv                                                                                                                                                                                                                                       
0001895d  _ZNSt3__210__allocateEj                                                                                                                                                                                                                                                          
00017cd1  _ZNSt3__210__distanceIPP6I2cMsgEENS_15iterator_traitsIT_E15difference_typeES5_S5_NS_26random_access_iterator_tagE                                                                                                                                                                
00017ce9  _ZNSt3__210__distanceIPP6SpiMsgEENS_15iterator_traitsIT_E15difference_typeES5_S5_NS_26random_access_iterator_tagE                                                                                                                                                                
00018969  _ZNSt3__213__unwrap_iterIPP6I2cMsgEET_S4_                                                                                                                                                                                                                                        
00018975  _ZNSt3__213__unwrap_iterIPP6SpiMsgEET_S4_                                                                                                                                                                                                                                        
00018647  _ZNSt3__213__vector_baseIP11ConsolePageNS_9allocatorIS2_EEE7__allocEv                                                                                                                                                                                                            
00018655  _ZNSt3__213__vector_baseIP11ConsolePageNS_9allocatorIS2_EEE9__end_capEv                                                                                                                                                                                                          
00017421  _ZNSt3__213__vector_baseIP11ConsolePageNS_9allocatorIS2_EEEC1Ev                                                                                                                                                                                                                  
00018981  _ZNSt3__213__vector_baseIP11ConsolePageNS_9allocatorIS2_EEEC2Ev                                                                                                                                                                                                                  
00016511  _ZNSt3__213__vector_baseIP6I2cMsgNS_9allocatorIS2_EEE17__destruct_at_endEPS2_                                                                                                                                                                                                    
00017fbd  _ZNSt3__213__vector_baseIP6I2cMsgNS_9allocatorIS2_EEE19__copy_assign_allocERKS5_                                                                                                                                                                                                 
00018305  _ZNSt3__213__vector_baseIP6I2cMsgNS_9allocatorIS2_EEE19__copy_assign_allocERKS5_NS_17integral_constantIbLb0EEE                                                                                                                                                                   
00018315  _ZNSt3__213__vector_baseIP6I2cMsgNS_9allocatorIS2_EEE5clearEv                                                                                                                                                                                                                    
00018663  _ZNSt3__213__vector_baseIP6I2cMsgNS_9allocatorIS2_EEE7__allocEv                                                                                                                                                                                                                  
00018671  _ZNSt3__213__vector_baseIP6I2cMsgNS_9allocatorIS2_EEE9__end_capEv                                                                                                                                                                                                                
00017449  _ZNSt3__213__vector_baseIP6I2cMsgNS_9allocatorIS2_EEEC1Ev                                                                                                                                                                                                                        
0001898d  _ZNSt3__213__vector_baseIP6I2cMsgNS_9allocatorIS2_EEEC2Ev                                                                                                                                                                                                                        
00016551  _ZNSt3__213__vector_baseIP6SpiMsgNS_9allocatorIS2_EEE17__destruct_at_endEPS2_                                                                                                                                                                                                    
00017fd1  _ZNSt3__213__vector_baseIP6SpiMsgNS_9allocatorIS2_EEE19__copy_assign_allocERKS5_                                                                                                                                                                                                 
00018325  _ZNSt3__213__vector_baseIP6SpiMsgNS_9allocatorIS2_EEE19__copy_assign_allocERKS5_NS_17integral_constantIbLb0EEE                                                                                                                                                                   
00018335  _ZNSt3__213__vector_baseIP6SpiMsgNS_9allocatorIS2_EEE5clearEv                                                                                                                                                                                                                    
0001867f  _ZNSt3__213__vector_baseIP6SpiMsgNS_9allocatorIS2_EEE7__allocEv                                                                                                                                                                                                                  
0001868d  _ZNSt3__213__vector_baseIP6SpiMsgNS_9allocatorIS2_EEE9__end_capEv                                                                                                                                                                                                                
00017471  _ZNSt3__213__vector_baseIP6SpiMsgNS_9allocatorIS2_EEEC1Ev                                                                                                                                                                                                                        
00018999  _ZNSt3__213__vector_baseIP6SpiMsgNS_9allocatorIS2_EEEC2Ev                                                                                                                                                                                                                        
0001869b  _ZNSt3__213__vector_baseIP7MenuRowNS_9allocatorIS2_EEE7__allocEv                                                                                                                                                                                                                 
000186a9  _ZNSt3__213__vector_baseIP7MenuRowNS_9allocatorIS2_EEE9__end_capEv                                                                                                                                                                                                               
00017499  _ZNSt3__213__vector_baseIP7MenuRowNS_9allocatorIS2_EEEC1Ev                                                                                                                                                                                                                       
000189a5  _ZNSt3__213__vector_baseIP7MenuRowNS_9allocatorIS2_EEEC2Ev                                                                                                                                                                                                                       
00017fe5  _ZNSt3__214__split_bufferIP11ConsolePageRNS_9allocatorIS2_EEE17__destruct_at_endEPS2_                                                                                                                                                                                            
00016aad  _ZNSt3__214__split_bufferIP11ConsolePageRNS_9allocatorIS2_EEE17__destruct_at_endEPS2_NS_17integral_constantIbLb0EEE                                                                                                                                                              
00018345  _ZNSt3__214__split_bufferIP11ConsolePageRNS_9allocatorIS2_EEE5clearEv                                                                                                                                                                                                            
000186b7  _ZNSt3__214__split_bufferIP11ConsolePageRNS_9allocatorIS2_EEE7__allocEv                                                                                                                                                                                                          
000186c5  _ZNSt3__214__split_bufferIP11ConsolePageRNS_9allocatorIS2_EEE9__end_capEv                                                                                                                                                                                                        
00015485  _ZNSt3__214__split_bufferIP11ConsolePageRNS_9allocatorIS2_EEEC1EjjS5_                                                                                                                                                                                                            
00016f37  _ZNSt3__214__split_bufferIP11ConsolePageRNS_9allocatorIS2_EEED1Ev                                                                                                                                                                                                                
00017ff9  _ZNSt3__214__split_bufferIP6I2cMsgRNS_9allocatorIS2_EEE17__destruct_at_endEPS2_                                                                                                                                                                                                  
00016ae3  _ZNSt3__214__split_bufferIP6I2cMsgRNS_9allocatorIS2_EEE17__destruct_at_endEPS2_NS_17integral_constantIbLb0EEE                                                                                                                                                                    
00018355  _ZNSt3__214__split_bufferIP6I2cMsgRNS_9allocatorIS2_EEE5clearEv                                                                                                                                                                                                                  
000186d3  _ZNSt3__214__split_bufferIP6I2cMsgRNS_9allocatorIS2_EEE7__allocEv                                                                                                                                                                                                                
000186e1  _ZNSt3__214__split_bufferIP6I2cMsgRNS_9allocatorIS2_EEE9__end_capEv                                                                                                                                                                                                              
000154e5  _ZNSt3__214__split_bufferIP6I2cMsgRNS_9allocatorIS2_EEEC1EjjS5_                                                                                                                                                                                                                  
00016f65  _ZNSt3__214__split_bufferIP6I2cMsgRNS_9allocatorIS2_EEED1Ev                                                                                                                                                                                                                      
0001800d  _ZNSt3__214__split_bufferIP6SpiMsgRNS_9allocatorIS2_EEE17__destruct_at_endEPS2_                                                                                                                                                                                                  
00016b19  _ZNSt3__214__split_bufferIP6SpiMsgRNS_9allocatorIS2_EEE17__destruct_at_endEPS2_NS_17integral_constantIbLb0EEE                                                                                                                                                                    
00018365  _ZNSt3__214__split_bufferIP6SpiMsgRNS_9allocatorIS2_EEE5clearEv                                                                                                                                                                                                                  
000186ef  _ZNSt3__214__split_bufferIP6SpiMsgRNS_9allocatorIS2_EEE7__allocEv                                                                                                                                                                                                                
000186fd  _ZNSt3__214__split_bufferIP6SpiMsgRNS_9allocatorIS2_EEE9__end_capEv                                                                                                                                                                                                              
00015545  _ZNSt3__214__split_bufferIP6SpiMsgRNS_9allocatorIS2_EEEC1EjjS5_                                                                                                                                                                                                                  
00016f93  _ZNSt3__214__split_bufferIP6SpiMsgRNS_9allocatorIS2_EEED1Ev                                                                                                                                                                                                                      
00018021  _ZNSt3__214__split_bufferIP7MenuRowRNS_9allocatorIS2_EEE17__destruct_at_endEPS2_                                                                                                                                                                                                 
00016b4f  _ZNSt3__214__split_bufferIP7MenuRowRNS_9allocatorIS2_EEE17__destruct_at_endEPS2_NS_17integral_constantIbLb0EEE                                                                                                                                                                   
00018375  _ZNSt3__214__split_bufferIP7MenuRowRNS_9allocatorIS2_EEE5clearEv                                                                                                                                                                                                                 
0001870b  _ZNSt3__214__split_bufferIP7MenuRowRNS_9allocatorIS2_EEE7__allocEv                                                                                                                                                                                                               
00018719  _ZNSt3__214__split_bufferIP7MenuRowRNS_9allocatorIS2_EEE9__end_capEv                                                                                                                                                                                                             
000155a5  _ZNSt3__214__split_bufferIP7MenuRowRNS_9allocatorIS2_EEEC1EjjS5_                                                                                                                                                                                                                 
00016fc1  _ZNSt3__214__split_bufferIP7MenuRowRNS_9allocatorIS2_EEED1Ev                                                                                                                                                                                                                     
000189b1  _ZNSt3__216__to_raw_pointerIP11ConsolePageEEPT_S4_                                                                                                                                                                                                                               
000189bd  _ZNSt3__216__to_raw_pointerIP6I2cMsgEEPT_S4_                                                                                                                                                                                                                                     
000189c9  _ZNSt3__216__to_raw_pointerIP6SpiMsgEEPT_S4_                                                                                                                                                                                                                                     
000189d5  _ZNSt3__216__to_raw_pointerIP7MenuRowEEPT_S4_                                                                                                                                                                                                                                    
00018385  _ZNSt3__216allocator_traitsINS_9allocatorIP11ConsolePageEEE10__max_sizeENS_17integral_constantIbLb1EEERKS4_                                                                                                                                                                      
00018035  _ZNSt3__216allocator_traitsINS_9allocatorIP11ConsolePageEEE10deallocateERS4_PS3_j                                                                                                                                                                                                
0001779d  _ZNSt3__216allocator_traitsINS_9allocatorIP11ConsolePageEEE11__constructIS3_JRKS3_EEEvNS_17integral_constantIbLb1EEERS4_PT_DpOT0_                                                                                                                                                
0001670d  _ZNSt3__216allocator_traitsINS_9allocatorIP11ConsolePageEEE20__construct_backwardIS3_EENS_9enable_ifIXaaoosr3std3__27is_sameIS4_NS1_IT_EEEE5valuentsr3std3__215__has_constructIS4_PS8_JS8_EEE5valuesr3std3__231is_trivially_move_constructibleIS8_EE5valueEvE4typeERS4_SA_SA_RSA_
00018049  _ZNSt3__216allocator_traitsINS_9allocatorIP11ConsolePageEEE7destroyIS3_EEvRS4_PT_                                                                                                                                                                                                
0001824b  _ZNSt3__216allocator_traitsINS_9allocatorIP11ConsolePageEEE8allocateERS4_j                                                                                                                                                                                                       
00018395  _ZNSt3__216allocator_traitsINS_9allocatorIP11ConsolePageEEE8max_sizeERKS4_                                                                                                                                                                                                       
0001805d  _ZNSt3__216allocator_traitsINS_9allocatorIP11ConsolePageEEE9__destroyIS3_EEvNS_17integral_constantIbLb1EEERS4_PT_                                                                                                                                                                
000177c1  _ZNSt3__216allocator_traitsINS_9allocatorIP11ConsolePageEEE9constructIS3_JRKS3_EEEvRS4_PT_DpOT0_                                                                                                                                                                                 
000183a5  _ZNSt3__216allocator_traitsINS_9allocatorIP6I2cMsgEEE10__max_sizeENS_17integral_constantIbLb1EEERKS4_                                                                                                                                                                            
00018071  _ZNSt3__216allocator_traitsINS_9allocatorIP6I2cMsgEEE10deallocateERS4_PS3_j                                                                                                                                                                                                      
000177e5  _ZNSt3__216allocator_traitsINS_9allocatorIP6I2cMsgEEE11__constructIS3_JS3_EEEvNS_17integral_constantIbLb1EEERS4_PT_DpOT0_                                                                                                                                                        
00016749  _ZNSt3__216allocator_traitsINS_9allocatorIP6I2cMsgEEE20__construct_backwardIS3_EENS_9enable_ifIXaaoosr3std3__27is_sameIS4_NS1_IT_EEEE5valuentsr3std3__215__has_constructIS4_PS8_JS8_EEE5valuesr3std3__231is_trivially_move_constructibleIS8_EE5valueEvE4typeERS4_SA_SA_RSA_      
00016785  _ZNSt3__216allocator_traitsINS_9allocatorIP6I2cMsgEEE25__construct_range_forwardIS3_EENS_9enable_ifIXaaoosr3std3__27is_sameIS4_NS1_IT_EEEE5valuentsr3std3__215__has_constructIS4_PS8_JS8_EEE5valuesr3std3__231is_trivially_move_constructibleIS8_EE5valueEvE4typeERS4_SA_SA_RSA_ 
00018085  _ZNSt3__216allocator_traitsINS_9allocatorIP6I2cMsgEEE7destroyIS3_EEvRS4_PT_                                                                                                                                                                                                      
0001825d  _ZNSt3__216allocator_traitsINS_9allocatorIP6I2cMsgEEE8allocateERS4_j                                                                                                                                                                                                             
000183b5  _ZNSt3__216allocator_traitsINS_9allocatorIP6I2cMsgEEE8max_sizeERKS4_                                                                                                                                                                                                             
00018099  _ZNSt3__216allocator_traitsINS_9allocatorIP6I2cMsgEEE9__destroyIS3_EEvNS_17integral_constantIbLb1EEERS4_PT_                                                                                                                                                                      
00017809  _ZNSt3__216allocator_traitsINS_9allocatorIP6I2cMsgEEE9constructIS3_JS3_EEEvRS4_PT_DpOT0_                                                                                                                                                                                         
000183c5  _ZNSt3__216allocator_traitsINS_9allocatorIP6SpiMsgEEE10__max_sizeENS_17integral_constantIbLb1EEERKS4_                                                                                                                                                                            
000180ad  _ZNSt3__216allocator_traitsINS_9allocatorIP6SpiMsgEEE10deallocateERS4_PS3_j                                                                                                                                                                                                      
0001782d  _ZNSt3__216allocator_traitsINS_9allocatorIP6SpiMsgEEE11__constructIS3_JS3_EEEvNS_17integral_constantIbLb1EEERS4_PT_DpOT0_                                                                                                                                                        
000167c1  _ZNSt3__216allocator_traitsINS_9allocatorIP6SpiMsgEEE20__construct_backwardIS3_EENS_9enable_ifIXaaoosr3std3__27is_sameIS4_NS1_IT_EEEE5valuentsr3std3__215__has_constructIS4_PS8_JS8_EEE5valuesr3std3__231is_trivially_move_constructibleIS8_EE5valueEvE4typeERS4_SA_SA_RSA_      
000167fd  _ZNSt3__216allocator_traitsINS_9allocatorIP6SpiMsgEEE25__construct_range_forwardIS3_EENS_9enable_ifIXaaoosr3std3__27is_sameIS4_NS1_IT_EEEE5valuentsr3std3__215__has_constructIS4_PS8_JS8_EEE5valuesr3std3__231is_trivially_move_constructibleIS8_EE5valueEvE4typeERS4_SA_SA_RSA_ 
000180c1  _ZNSt3__216allocator_traitsINS_9allocatorIP6SpiMsgEEE7destroyIS3_EEvRS4_PT_                                                                                                                                                                                                      
0001826f  _ZNSt3__216allocator_traitsINS_9allocatorIP6SpiMsgEEE8allocateERS4_j                                                                                                                                                                                                             
000183d5  _ZNSt3__216allocator_traitsINS_9allocatorIP6SpiMsgEEE8max_sizeERKS4_                                                                                                                                                                                                             
000180d5  _ZNSt3__216allocator_traitsINS_9allocatorIP6SpiMsgEEE9__destroyIS3_EEvNS_17integral_constantIbLb1EEERS4_PT_                                                                                                                                                                      
00017851  _ZNSt3__216allocator_traitsINS_9allocatorIP6SpiMsgEEE9constructIS3_JS3_EEEvRS4_PT_DpOT0_                                                                                                                                                                                         
000183e5  _ZNSt3__216allocator_traitsINS_9allocatorIP7MenuRowEEE10__max_sizeENS_17integral_constantIbLb1EEERKS4_                                                                                                                                                                           
000180e9  _ZNSt3__216allocator_traitsINS_9allocatorIP7MenuRowEEE10deallocateERS4_PS3_j                                                                                                                                                                                                     
00017875  _ZNSt3__216allocator_traitsINS_9allocatorIP7MenuRowEEE11__constructIS3_JRKS3_EEEvNS_17integral_constantIbLb1EEERS4_PT_DpOT0_                                                                                                                                                     
00016839  _ZNSt3__216allocator_traitsINS_9allocatorIP7MenuRowEEE20__construct_backwardIS3_EENS_9enable_ifIXaaoosr3std3__27is_sameIS4_NS1_IT_EEEE5valuentsr3std3__215__has_constructIS4_PS8_JS8_EEE5valuesr3std3__231is_trivially_move_constructibleIS8_EE5valueEvE4typeERS4_SA_SA_RSA_     
000180fd  _ZNSt3__216allocator_traitsINS_9allocatorIP7MenuRowEEE7destroyIS3_EEvRS4_PT_                                                                                                                                                                                                     
00018281  _ZNSt3__216allocator_traitsINS_9allocatorIP7MenuRowEEE8allocateERS4_j                                                                                                                                                                                                            
000183f5  _ZNSt3__216allocator_traitsINS_9allocatorIP7MenuRowEEE8max_sizeERKS4_                                                                                                                                                                                                            
00018111  _ZNSt3__216allocator_traitsINS_9allocatorIP7MenuRowEEE9__destroyIS3_EEvNS_17integral_constantIbLb1EEERS4_PT_                                                                                                                                                                     
00017899  _ZNSt3__216allocator_traitsINS_9allocatorIP7MenuRowEEE9constructIS3_JRKS3_EEEvRS4_PT_DpOT0_                                                                                                                                                                                      
000189e1  _ZNSt3__217__compressed_pairIPP11ConsolePageNS_9allocatorIS2_EEE5firstEv                                                                                                                                                                                                         
000189ed  _ZNSt3__217__compressed_pairIPP11ConsolePageNS_9allocatorIS2_EEE6secondEv                                                                                                                                                                                                        
00017a41  _ZNSt3__217__compressed_pairIPP11ConsolePageNS_9allocatorIS2_EEEC1IDnLb1EEEOT_                                                                                                                                                                                                   
000189f9  _ZNSt3__217__compressed_pairIPP11ConsolePageRNS_9allocatorIS2_EEE5firstEv                                                                                                                                                                                                        
00018727  _ZNSt3__217__compressed_pairIPP11ConsolePageRNS_9allocatorIS2_EEE6secondEv                                                                                                                                                                                                       
00017203  _ZNSt3__217__compressed_pairIPP11ConsolePageRNS_9allocatorIS2_EEEC1IDnS6_EEOT_OT0_                                                                                                                                                                                               
00018a05  _ZNSt3__217__compressed_pairIPP6I2cMsgNS_9allocatorIS2_EEE5firstEv                                                                                                                                                                                                               
00018a11  _ZNSt3__217__compressed_pairIPP6I2cMsgNS_9allocatorIS2_EEE6secondEv                                                                                                                                                                                                              
00017a5f  _ZNSt3__217__compressed_pairIPP6I2cMsgNS_9allocatorIS2_EEEC1IDnLb1EEEOT_                                                                                                                                                                                                         
00018a1d  _ZNSt3__217__compressed_pairIPP6I2cMsgRNS_9allocatorIS2_EEE5firstEv                                                                                                                                                                                                              
00018735  _ZNSt3__217__compressed_pairIPP6I2cMsgRNS_9allocatorIS2_EEE6secondEv                                                                                                                                                                                                             
0001722d  _ZNSt3__217__compressed_pairIPP6I2cMsgRNS_9allocatorIS2_EEEC1IDnS6_EEOT_OT0_                                                                                                                                                                                                     
00018a29  _ZNSt3__217__compressed_pairIPP6SpiMsgNS_9allocatorIS2_EEE5firstEv                                                                                                                                                                                                               
00018a35  _ZNSt3__217__compressed_pairIPP6SpiMsgNS_9allocatorIS2_EEE6secondEv                                                                                                                                                                                                              
00017a7d  _ZNSt3__217__compressed_pairIPP6SpiMsgNS_9allocatorIS2_EEEC1IDnLb1EEEOT_                                                                                                                                                                                                         
00018a41  _ZNSt3__217__compressed_pairIPP6SpiMsgRNS_9allocatorIS2_EEE5firstEv                                                                                                                                                                                                              
00018743  _ZNSt3__217__compressed_pairIPP6SpiMsgRNS_9allocatorIS2_EEE6secondEv                                                                                                                                                                                                             
00017257  _ZNSt3__217__compressed_pairIPP6SpiMsgRNS_9allocatorIS2_EEEC1IDnS6_EEOT_OT0_                                                                                                                                                                                                     
00018a4d  _ZNSt3__217__compressed_pairIPP7MenuRowNS_9allocatorIS2_EEE5firstEv                                                                                                                                                                                                              
00018a59  _ZNSt3__217__compressed_pairIPP7MenuRowNS_9allocatorIS2_EEE6secondEv                                                                                                                                                                                                             
00017a9b  _ZNSt3__217__compressed_pairIPP7MenuRowNS_9allocatorIS2_EEEC1IDnLb1EEEOT_                                                                                                                                                                                                        
00018a65  _ZNSt3__217__compressed_pairIPP7MenuRowRNS_9allocatorIS2_EEE5firstEv                                                                                                                                                                                                             
00018751  _ZNSt3__217__compressed_pairIPP7MenuRowRNS_9allocatorIS2_EEE6secondEv                                                                                                                                                                                                            
00017281  _ZNSt3__217__compressed_pairIPP7MenuRowRNS_9allocatorIS2_EEEC1IDnS6_EEOT_OT0_                                                                                                                                                                                                    
00018a71  _ZNSt3__219__libcpp_deallocateEPv                                                                                                                                                                                                                                                
00018c81  _ZNSt3__220__throw_length_errorEPKc                                                                                                                                                                                                                                              
00003603  _ZNSt3__220__vector_base_commonILb1EEC2Ev                                                                                                                                                                                                                                        
00018a7d  _ZNSt3__222__compressed_pair_elemINS_9allocatorIP11ConsolePageEELi1ELb1EE5__getEv                                                                                                                                                                                                
0001875f  _ZNSt3__222__compressed_pair_elemINS_9allocatorIP11ConsolePageEELi1ELb1EEC1Ev                                                                                                                                                                                                    
00018a89  _ZNSt3__222__compressed_pair_elemINS_9allocatorIP11ConsolePageEELi1ELb1EEC2Ev                                                                                                                                                                                                    
00018a95  _ZNSt3__222__compressed_pair_elemINS_9allocatorIP6I2cMsgEELi1ELb1EE5__getEv                                                                                                                                                                                                      
0001876d  _ZNSt3__222__compressed_pair_elemINS_9allocatorIP6I2cMsgEELi1ELb1EEC1Ev                                                                                                                                                                                                          
00018aa1  _ZNSt3__222__compressed_pair_elemINS_9allocatorIP6I2cMsgEELi1ELb1EEC2Ev                                                                                                                                                                                                          
00018aad  _ZNSt3__222__compressed_pair_elemINS_9allocatorIP6SpiMsgEELi1ELb1EE5__getEv                                                                                                                                                                                                      
0001877b  _ZNSt3__222__compressed_pair_elemINS_9allocatorIP6SpiMsgEELi1ELb1EEC1Ev                                                                                                                                                                                                          
00018ab9  _ZNSt3__222__compressed_pair_elemINS_9allocatorIP6SpiMsgEELi1ELb1EEC2Ev                                                                                                                                                                                                          
00018ac5  _ZNSt3__222__compressed_pair_elemINS_9allocatorIP7MenuRowEELi1ELb1EE5__getEv                                                                                                                                                                                                     
00018789  _ZNSt3__222__compressed_pair_elemINS_9allocatorIP7MenuRowEELi1ELb1EEC1Ev                                                                                                                                                                                                         
00018ad1  _ZNSt3__222__compressed_pair_elemINS_9allocatorIP7MenuRowEELi1ELb1EEC2Ev                                                                                                                                                                                                         
00018add  _ZNSt3__222__compressed_pair_elemIPP11ConsolePageLi0ELb0EE5__getEv                                                                                                                                                                                                               
00017ea7  _ZNSt3__222__compressed_pair_elemIPP11ConsolePageLi0ELb0EEC1IDnvEEOT_                                                                                                                                                                                                            
00018405  _ZNSt3__222__compressed_pair_elemIPP11ConsolePageLi0ELb0EEC2IDnvEEOT_                                                                                                                                                                                                            
00018ae9  _ZNSt3__222__compressed_pair_elemIPP6I2cMsgLi0ELb0EE5__getEv                                                                                                                                                                                                                     
00017ebd  _ZNSt3__222__compressed_pair_elemIPP6I2cMsgLi0ELb0EEC1IDnvEEOT_                                                                                                                                                                                                                  
00018415  _ZNSt3__222__compressed_pair_elemIPP6I2cMsgLi0ELb0EEC2IDnvEEOT_                                                                                                                                                                                                                  
00018af5  _ZNSt3__222__compressed_pair_elemIPP6SpiMsgLi0ELb0EE5__getEv                                                                                                                                                                                                                     
00017ed3  _ZNSt3__222__compressed_pair_elemIPP6SpiMsgLi0ELb0EEC1IDnvEEOT_                                                                                                                                                                                                                  
00018425  _ZNSt3__222__compressed_pair_elemIPP6SpiMsgLi0ELb0EEC2IDnvEEOT_                                                                                                                                                                                                                  
00018b01  _ZNSt3__222__compressed_pair_elemIPP7MenuRowLi0ELb0EE5__getEv                                                                                                                                                                                                                    
00017ee9  _ZNSt3__222__compressed_pair_elemIPP7MenuRowLi0ELb0EEC1IDnvEEOT_                                                                                                                                                                                                                 
00018435  _ZNSt3__222__compressed_pair_elemIPP7MenuRowLi0ELb0EEC2IDnvEEOT_                                                                                                                                                                                                                 
00018797  _ZNSt3__222__compressed_pair_elemIRNS_9allocatorIP11ConsolePageEELi1ELb0EE5__getEv                                                                                                                                                                                               
00018125  _ZNSt3__222__compressed_pair_elemIRNS_9allocatorIP11ConsolePageEELi1ELb0EEC1IS5_vEEOT_                                                                                                                                                                                           
00018445  _ZNSt3__222__compressed_pair_elemIRNS_9allocatorIP11ConsolePageEELi1ELb0EEC2IS5_vEEOT_                                                                                                                                                                                           
000187a5  _ZNSt3__222__compressed_pair_elemIRNS_9allocatorIP6I2cMsgEELi1ELb0EE5__getEv                                                                                                                                                                                                     
00018139  _ZNSt3__222__compressed_pair_elemIRNS_9allocatorIP6I2cMsgEELi1ELb0EEC1IS5_vEEOT_                                                                                                                                                                                                 
00018455  _ZNSt3__222__compressed_pair_elemIRNS_9allocatorIP6I2cMsgEELi1ELb0EEC2IS5_vEEOT_                                                                                                                                                                                                 
000187b3  _ZNSt3__222__compressed_pair_elemIRNS_9allocatorIP6SpiMsgEELi1ELb0EE5__getEv                                                                                                                                                                                                     
0001814d  _ZNSt3__222__compressed_pair_elemIRNS_9allocatorIP6SpiMsgEELi1ELb0EEC1IS5_vEEOT_                                                                                                                                                                                                 
00018465  _ZNSt3__222__compressed_pair_elemIRNS_9allocatorIP6SpiMsgEELi1ELb0EEC2IS5_vEEOT_                                                                                                                                                                                                 
000187c1  _ZNSt3__222__compressed_pair_elemIRNS_9allocatorIP7MenuRowEELi1ELb0EE5__getEv                                                                                                                                                                                                    
00018161  _ZNSt3__222__compressed_pair_elemIRNS_9allocatorIP7MenuRowEELi1ELb0EEC1IS5_vEEOT_                                                                                                                                                                                                
00018475  _ZNSt3__222__compressed_pair_elemIRNS_9allocatorIP7MenuRowEELi1ELb0EEC2IS5_vEEOT_                                                                                                                                                                                                
00018175  _ZNSt3__23maxIjEERKT_S3_S3_                                                                                                                                                                                                                                                      
00017ab9  _ZNSt3__23maxIjNS_6__lessIjjEEEERKT_S5_S5_T0_                                                                                                                                                                                                                                    
00018189  _ZNSt3__23minIjEERKT_S3_S3_                                                                                                                                                                                                                                                      
00017ad7  _ZNSt3__23minIjNS_6__lessIjjEEEERKT_S5_S5_T0_                                                                                                                                                                                                                                    
000172ab  _ZNSt3__24copyIPP6I2cMsgS3_EET0_T_S5_S4_                                                                                                                                                                                                                                         
000172d5  _ZNSt3__24copyIPP6SpiMsgS3_EET0_T_S5_S4_                                                                                                                                                                                                                                         
00018b0d  _ZNSt3__24moveIRP6I2cMsgEEONS_16remove_referenceIT_E4typeEOS5_                                                                                                                                                                                                                   
00018b19  _ZNSt3__24moveIRP6SpiMsgEEONS_16remove_referenceIT_E4typeEOS5_                                                                                                                                                                                                                   
00018b25  _ZNSt3__24moveIRPP11ConsolePageEEONS_16remove_referenceIT_E4typeEOS6_                                                                                                                                                                                                            
00018b31  _ZNSt3__24moveIRPP6I2cMsgEEONS_16remove_referenceIT_E4typeEOS6_                                                                                                                                                                                                                  
00018b3d  _ZNSt3__24moveIRPP6SpiMsgEEONS_16remove_referenceIT_E4typeEOS6_                                                                                                                                                                                                                  
00018b49  _ZNSt3__24moveIRPP7MenuRowEEONS_16remove_referenceIT_E4typeEOS6_                                                                                                                                                                                                                 
000172ff  _ZNSt3__24swapIPP11ConsolePageEENS_9enable_ifIXaasr3std3__221is_move_constructibleIT_EE5valuesr3std3__218is_move_assignableIS5_EE5valueEvE4typeERS5_S8_                                                                                                                          
00017329  _ZNSt3__24swapIPP6I2cMsgEENS_9enable_ifIXaasr3std3__221is_move_constructibleIT_EE5valuesr3std3__218is_move_assignableIS5_EE5valueEvE4typeERS5_S8_                                                                                                                                
00017353  _ZNSt3__24swapIPP6SpiMsgEENS_9enable_ifIXaasr3std3__221is_move_constructibleIT_EE5valuesr3std3__218is_move_assignableIS5_EE5valueEvE4typeERS5_S8_                                                                                                                                
0001737d  _ZNSt3__24swapIPP7MenuRowEENS_9enable_ifIXaasr3std3__221is_move_constructibleIT_EE5valuesr3std3__218is_move_assignableIS5_EE5valueEvE4typeERS5_S8_                                                                                                                               
00016d27  _ZNSt3__26__copyIP6I2cMsgS2_EENS_9enable_ifIXaasr3std3__27is_sameINS_12remove_constIT_E4typeET0_EE5valuesr3std3__228is_trivially_copy_assignableIS8_EE5valueEPS8_E4typeEPS5_SC_S9_                                                                                               
00016d59  _ZNSt3__26__copyIP6SpiMsgS2_EENS_9enable_ifIXaasr3std3__27is_sameINS_12remove_constIT_E4typeET0_EE5valuesr3std3__228is_trivially_copy_assignableIS8_EE5valueEPS8_E4typeEPS5_SC_S9_                                                                                               
00014f81  _ZNSt3__26vectorIP11ConsolePageNS_9allocatorIS2_EEE21__push_back_slow_pathIRKS2_EEvOT_                                                                                                                                                                                           
00018c8b  _ZNSt3__26vectorIP11ConsolePageNS_9allocatorIS2_EEE24__RAII_IncreaseAnnotator6__doneEv                                                                                                                                                                                           
00018485  _ZNSt3__26vectorIP11ConsolePageNS_9allocatorIS2_EEE24__RAII_IncreaseAnnotatorC1ERKS5_j                                                                                                                                                                                           
00018c95  _ZNSt3__26vectorIP11ConsolePageNS_9allocatorIS2_EEE26__invalidate_all_iteratorsEv                                                                                                                                                                                                
00014c9d  _ZNSt3__26vectorIP11ConsolePageNS_9allocatorIS2_EEE26__swap_out_circular_bufferERNS_14__split_bufferIS2_RS4_EE                                                                                                                                                                   
000158c9  _ZNSt3__26vectorIP11ConsolePageNS_9allocatorIS2_EEE9push_backERKS2_                                                                                                                                                                                                              
000187cf  _ZNSt3__26vectorIP11ConsolePageNS_9allocatorIS2_EEEC1Ev                                                                                                                                                                                                                          
00017eff  _ZNSt3__26vectorIP11ConsolePageNS_9allocatorIS2_EEEixEj                                                                                                                                                                                                                          
00016591  _ZNSt3__26vectorIP6I2cMsgNS_9allocatorIS2_EEE10deallocateEv                                                                                                                                                                                                                      
000174c1  _ZNSt3__26vectorIP6I2cMsgNS_9allocatorIS2_EEE17__destruct_at_endEPS2_                                                                                                                                                                                                            
00016a05  _ZNSt3__26vectorIP6I2cMsgNS_9allocatorIS2_EEE18__construct_at_endIPS2_EENS_9enable_ifIXsr3std3__221__is_forward_iteratorIT_EE5valueEvE4typeES9_S9_j                                                                                                                              
00014fe5  _ZNSt3__26vectorIP6I2cMsgNS_9allocatorIS2_EEE21__push_back_slow_pathIS2_EEvOT_                                                                                                                                                                                                   
00018c9f  _ZNSt3__26vectorIP6I2cMsgNS_9allocatorIS2_EEE24__RAII_IncreaseAnnotator6__doneEv                                                                                                                                                                                                 
00018495  _ZNSt3__26vectorIP6I2cMsgNS_9allocatorIS2_EEE24__RAII_IncreaseAnnotatorC1ERKS5_j                                                                                                                                                                                                 
00018ca9  _ZNSt3__26vectorIP6I2cMsgNS_9allocatorIS2_EEE26__invalidate_all_iteratorsEv                                                                                                                                                                                                      
00014d09  _ZNSt3__26vectorIP6I2cMsgNS_9allocatorIS2_EEE26__swap_out_circular_bufferERNS_14__split_bufferIS2_RS4_EE                                                                                                                                                                         
00018b55  _ZNSt3__26vectorIP6I2cMsgNS_9allocatorIS2_EEE27__invalidate_iterators_pastEPS2_                                                                                                                                                                                                  
000178df  _ZNSt3__26vectorIP6I2cMsgNS_9allocatorIS2_EEE5clearEv                                                                                                                                                                                                                            
00013e27  _ZNSt3__26vectorIP6I2cMsgNS_9allocatorIS2_EEE6assignIPS2_EENS_9enable_ifIXaasr3std3__221__is_forward_iteratorIT_EE5valuesr3std3__216is_constructibleIS2_JNS_15iterator_traitsIS9_E9referenceEEEE5valueEvE4typeES9_S9_                                                            
00016259  _ZNSt3__26vectorIP6I2cMsgNS_9allocatorIS2_EEE8allocateEj                                                                                                                                                                                                                         
0001523d  _ZNSt3__26vectorIP6I2cMsgNS_9allocatorIS2_EEE9push_backEOS2_                                                                                                                                                                                                                     
000187dd  _ZNSt3__26vectorIP6I2cMsgNS_9allocatorIS2_EEEC1Ev                                                                                                                                                                                                                                
000174e9  _ZNSt3__26vectorIP6I2cMsgNS_9allocatorIS2_EEEaSERKS5_                                                                                                                                                                                                                            
00017f15  _ZNSt3__26vectorIP6I2cMsgNS_9allocatorIS2_EEEixEj                                                                                                                                                                                                                                
000165d1  _ZNSt3__26vectorIP6SpiMsgNS_9allocatorIS2_EEE10deallocateEv                                                                                                                                                                                                                      
00017511  _ZNSt3__26vectorIP6SpiMsgNS_9allocatorIS2_EEE17__destruct_at_endEPS2_                                                                                                                                                                                                            
00016a3d  _ZNSt3__26vectorIP6SpiMsgNS_9allocatorIS2_EEE18__construct_at_endIPS2_EENS_9enable_ifIXsr3std3__221__is_forward_iteratorIT_EE5valueEvE4typeES9_S9_j                                                                                                                              
00015049  _ZNSt3__26vectorIP6SpiMsgNS_9allocatorIS2_EEE21__push_back_slow_pathIS2_EEvOT_                                                                                                                                                                                                   
00018cb3  _ZNSt3__26vectorIP6SpiMsgNS_9allocatorIS2_EEE24__RAII_IncreaseAnnotator6__doneEv                                                                                                                                                                                                 
000184a5  _ZNSt3__26vectorIP6SpiMsgNS_9allocatorIS2_EEE24__RAII_IncreaseAnnotatorC1ERKS5_j                                                                                                                                                                                                 
00018cbd  _ZNSt3__26vectorIP6SpiMsgNS_9allocatorIS2_EEE26__invalidate_all_iteratorsEv                                                                                                                                                                                                      
00014d75  _ZNSt3__26vectorIP6SpiMsgNS_9allocatorIS2_EEE26__swap_out_circular_bufferERNS_14__split_bufferIS2_RS4_EE                                                                                                                                                                         
00018b61  _ZNSt3__26vectorIP6SpiMsgNS_9allocatorIS2_EEE27__invalidate_iterators_pastEPS2_                                                                                                                                                                                                  
00017901  _ZNSt3__26vectorIP6SpiMsgNS_9allocatorIS2_EEE5clearEv                                                                                                                                                                                                                            
00013ed7  _ZNSt3__26vectorIP6SpiMsgNS_9allocatorIS2_EEE6assignIPS2_EENS_9enable_ifIXaasr3std3__221__is_forward_iteratorIT_EE5valuesr3std3__216is_constructibleIS2_JNS_15iterator_traitsIS9_E9referenceEEEE5valueEvE4typeES9_S9_                                                            
000162a1  _ZNSt3__26vectorIP6SpiMsgNS_9allocatorIS2_EEE8allocateEj                                                                                                                                                                                                                         
0001529f  _ZNSt3__26vectorIP6SpiMsgNS_9allocatorIS2_EEE9push_backEOS2_                                                                                                                                                                                                                     
000187eb  _ZNSt3__26vectorIP6SpiMsgNS_9allocatorIS2_EEEC1Ev                                                                                                                                                                                                                                
00017539  _ZNSt3__26vectorIP6SpiMsgNS_9allocatorIS2_EEEaSERKS5_                                                                                                                                                                                                                            
00017f2b  _ZNSt3__26vectorIP6SpiMsgNS_9allocatorIS2_EEEixEj                                                                                                                                                                                                                                
000150ad  _ZNSt3__26vectorIP7MenuRowNS_9allocatorIS2_EEE21__push_back_slow_pathIRKS2_EEvOT_                                                                                                                                                                                                
00018cc7  _ZNSt3__26vectorIP7MenuRowNS_9allocatorIS2_EEE24__RAII_IncreaseAnnotator6__doneEv                                                                                                                                                                                                
000184b5  _ZNSt3__26vectorIP7MenuRowNS_9allocatorIS2_EEE24__RAII_IncreaseAnnotatorC1ERKS5_j                                                                                                                                                                                                
00018cd1  _ZNSt3__26vectorIP7MenuRowNS_9allocatorIS2_EEE26__invalidate_all_iteratorsEv                                                                                                                                                                                                     
00014de1  _ZNSt3__26vectorIP7MenuRowNS_9allocatorIS2_EEE26__swap_out_circular_bufferERNS_14__split_bufferIS2_RS4_EE                                                                                                                                                                        
0001591f  _ZNSt3__26vectorIP7MenuRowNS_9allocatorIS2_EEE9push_backERKS2_                                                                                                                                                                                                                   
000187f9  _ZNSt3__26vectorIP7MenuRowNS_9allocatorIS2_EEEC1Ev                                                                                                                                                                                                                               
00017f41  _ZNSt3__26vectorIP7MenuRowNS_9allocatorIS2_EEEixEj                                                                                                                                                                                                                               
0001819d  _ZNSt3__27advanceIPP6I2cMsgEEvRT_NS_15iterator_traitsIS4_E15difference_typeE                                                                                                                                                                                                     
000181b1  _ZNSt3__27advanceIPP6SpiMsgEEvRT_NS_15iterator_traitsIS4_E15difference_typeE                                                                                                                                                                                                     
00018b6d  _ZNSt3__27forwardIDnEEOT_RNS_16remove_referenceIS1_E4typeE                                                                                                                                                                                                                       
00018b79  _ZNSt3__27forwardIP6I2cMsgEEOT_RNS_16remove_referenceIS3_E4typeE                                                                                                                                                                                                                 
00018b85  _ZNSt3__27forwardIP6SpiMsgEEOT_RNS_16remove_referenceIS3_E4typeE                                                                                                                                                                                                                 
00018b91  _ZNSt3__27forwardIRKP11ConsolePageEEOT_RNS_16remove_referenceIS5_E4typeE                                                                                                                                                                                                         
00018b9d  _ZNSt3__27forwardIRKP7MenuRowEEOT_RNS_16remove_referenceIS5_E4typeE                                                                                                                                                                                                              
00018ba9  _ZNSt3__27forwardIRNS_9allocatorIP11ConsolePageEEEEOT_RNS_16remove_referenceIS6_E4typeE                                                                                                                                                                                          
00018bb5  _ZNSt3__27forwardIRNS_9allocatorIP6I2cMsgEEEEOT_RNS_16remove_referenceIS6_E4typeE                                                                                                                                                                                                
00018bc1  _ZNSt3__27forwardIRNS_9allocatorIP6SpiMsgEEEEOT_RNS_16remove_referenceIS6_E4typeE                                                                                                                                                                                                
00018bcd  _ZNSt3__27forwardIRNS_9allocatorIP7MenuRowEEEEOT_RNS_16remove_referenceIS6_E4typeE                                                                                                                                                                                               
000181c5  _ZNSt3__28distanceIPP6I2cMsgEENS_15iterator_traitsIT_E15difference_typeES5_S5_                                                                                                                                                                                                   
000181d9  _ZNSt3__28distanceIPP6SpiMsgEENS_15iterator_traitsIT_E15difference_typeES5_S5_                                                                                                                                                                                                   
00017b65  _ZNSt3__29__advanceIPP6I2cMsgEEvRT_NS_15iterator_traitsIS4_E15difference_typeENS_26random_access_iterator_tagE                                                                                                                                                                   
00017b81  _ZNSt3__29__advanceIPP6SpiMsgEEvRT_NS_15iterator_traitsIS4_E15difference_typeENS_26random_access_iterator_tagE                                                                                                                                                                   
000184c5  _ZNSt3__29allocatorIP11ConsolePageE10deallocateEPS2_j                                                                                                                                                                                                                            
00018bd9  _ZNSt3__29allocatorIP11ConsolePageE7destroyEPS2_                                                                                                                                                                                                                                 
00017561  _ZNSt3__29allocatorIP11ConsolePageE8allocateEjPKv                                                                                                                                                                                                                                
00016fef  _ZNSt3__29allocatorIP11ConsolePageE9constructIS2_JRKS2_EEEvPT_DpOT0_                                                                                                                                                                                                             
00018be5  _ZNSt3__29allocatorIP11ConsolePageEC1Ev                                                                                                                                                                                                                                          
00018bf1  _ZNSt3__29allocatorIP11ConsolePageEC2Ev                                                                                                                                                                                                                                          
000184d5  _ZNSt3__29allocatorIP6I2cMsgE10deallocateEPS2_j                                                                                                                                                                                                                                  
00018bfd  _ZNSt3__29allocatorIP6I2cMsgE7destroyEPS2_                                                                                                                                                                                                                                       
00017589  _ZNSt3__29allocatorIP6I2cMsgE8allocateEjPKv                                                                                                                                                                                                                                      
0001701d  _ZNSt3__29allocatorIP6I2cMsgE9constructIS2_JS2_EEEvPT_DpOT0_                                                                                                                                                                                                                     
00018c09  _ZNSt3__29allocatorIP6I2cMsgEC1Ev                                                                                                                                                                                                                                                
00018c15  _ZNSt3__29allocatorIP6I2cMsgEC2Ev                                                                                                                                                                                                                                                
000184e5  _ZNSt3__29allocatorIP6SpiMsgE10deallocateEPS2_j                                                                                                                                                                                                                                  
00018c21  _ZNSt3__29allocatorIP6SpiMsgE7destroyEPS2_                                                                                                                                                                                                                                       
000175b1  _ZNSt3__29allocatorIP6SpiMsgE8allocateEjPKv                                                                                                                                                                                                                                      
0001704b  _ZNSt3__29allocatorIP6SpiMsgE9constructIS2_JS2_EEEvPT_DpOT0_                                                                                                                                                                                                                     
00018c2d  _ZNSt3__29allocatorIP6SpiMsgEC1Ev                                                                                                                                                                                                                                                
00018c39  _ZNSt3__29allocatorIP6SpiMsgEC2Ev                                                                                                                                                                                                                                                
000184f5  _ZNSt3__29allocatorIP7MenuRowE10deallocateEPS2_j                                                                                                                                                                                                                                 
00018c45  _ZNSt3__29allocatorIP7MenuRowE7destroyEPS2_                                                                                                                                                                                                                                      
000175d9  _ZNSt3__29allocatorIP7MenuRowE8allocateEjPKv                                                                                                                                                                                                                                     
00017079  _ZNSt3__29allocatorIP7MenuRowE9constructIS2_JRKS2_EEEvPT_DpOT0_                                                                                                                                                                                                                  
00018c51  _ZNSt3__29allocatorIP7MenuRowEC1Ev                                                                                                                                                                                                                                               
00018c5d  _ZNSt3__29allocatorIP7MenuRowEC2Ev                                                                                                                                                                                                                                               
00008f8b  _ZNSt9type_infoD1Ev                                                                                                                                                                                                                                                              
00008f8b  _ZNSt9type_infoD2Ev                                                                                                                                                                                                                                                              
00018d41  _ZSt17__throw_bad_allocv                                                                                                                                                                                                                                                         
00019c58  _ZTI10OneWireCmd                                                                                                                                                                                                                                                                 
00019c64  _ZTI10SpiCmdTask                                                                                                                                                                                                                                                                 
00019d64  _ZTI11ConsolePage                                                                                                                                                                                                                                                                
00019c70  _ZTI11ConsoleTask                                                                                                                                                                                                                                                                
00019c7c  _ZTI11ErrorLogger                                                                                                                                                                                                                                                                
00019c88  _ZTI11MenuOptions                                                                                                                                                                                                                                                                
00019c94  _ZTI11TaskManager                                                                                                                                                                                                                                                                
00019ca0  _ZTI12UartStreamer                                                                                                                                                                                                                                                               
00019cac  _ZTI14I2cMonitorTask                                                                                                                                                                                                                                                             
00019cb8  _ZTI14I2cSnifferTask                                                                                                                                                                                                                                                             
00019cc4  _ZTI14SpiMonitorTask                                                                                                                                                                                                                                                             
00019cd0  _ZTI15I2cScripterTask                                                                                                                                                                                                                                                            
00019cdc  _ZTI7I2cTask                                                                                                                                                                                                                                                                     
00019ce8  _ZTI7PWMpage                                                                                                                                                                                                                                                                     
00019cf4  _ZTI7UartCmd                                                                                                                                                                                                                                                                     
00019d00  _ZTI9IoCtlPage                                                                                                                                                                                                                                                                   
00019d0c  _ZTIN10__cxxabiv117__class_type_infoE                                                                                                                                                                                                                                            
00019d18  _ZTIN10__cxxabiv120__si_class_type_infoE                                                                                                                                                                                                                                         
00019d6c  _ZTISt9type_info                                                                                                                                                                                                                                                                 
00019c30  _ZTS10OneWireCmd                                                                                                                                                                                                                                                                 
00019c3d  _ZTS10SpiCmdTask                                                                                                                                                                                                                                                                 
00019bea  _ZTS11ConsolePage                                                                                                                                                                                                                                                                
00019bf8  _ZTS11ConsoleTask                                                                                                                                                                                                                                                                
00019c06  _ZTS11ErrorLogger                                                                                                                                                                                                                                                                
00019c14  _ZTS11MenuOptions                                                                                                                                                                                                                                                                
00019c22  _ZTS11TaskManager                                                                                                                                                                                                                                                                
00019bcc  _ZTS12UartStreamer                                                                                                                                                                                                                                                               
00019b78  _ZTS14I2cMonitorTask                                                                                                                                                                                                                                                             
00019b89  _ZTS14I2cSnifferTask                                                                                                                                                                                                                                                             
00019b9a  _ZTS14SpiMonitorTask                                                                                                                                                                                                                                                             
00019b66  _ZTS15I2cScripterTask                                                                                                                                                                                                                                                            
00019d47  _ZTS7I2cTask                                                                                                                                                                                                                                                                     
00019d50  _ZTS7PWMpage                                                                                                                                                                                                                                                                     
00019d59  _ZTS7UartCmd                                                                                                                                                                                                                                                                     
00019d3c  _ZTS9IoCtlPage                                                                                                                                                                                                                                                                   
000197f6  _ZTSN10__cxxabiv117__class_type_infoE                                                                                                                                                                                                                                            
00019768  _ZTSN10__cxxabiv120__si_class_type_infoE                                                                                                                                                                                                                                         
00019c4a  _ZTSSt9type_info                                                                                                                                                                                                                                                                 
000198b8  _ZTV10OneWireCmd                                                                                                                                                                                                                                                                 
000198d4  _ZTV10SpiCmdTask                                                                                                                                                                                                                                                                 
000198f0  _ZTV11ConsolePage                                                                                                                                                                                                                                                                
0001990c  _ZTV11ConsoleTask                                                                                                                                                                                                                                                                
00019928  _ZTV11ErrorLogger                                                                                                                                                                                                                                                                
00019944  _ZTV11MenuOptions                                                                                                                                                                                                                                                                
00019960  _ZTV11TaskManager                                                                                                                                                                                                                                                                
0001997c  _ZTV12UartStreamer                                                                                                                                                                                                                                                               
00019998  _ZTV14I2cMonitorTask                                                                                                                                                                                                                                                             
000199b4  _ZTV14I2cSnifferTask                                                                                                                                                                                                                                                             
000199d0  _ZTV14SpiMonitorTask                                                                                                                                                                                                                                                             
000199ec  _ZTV15I2cScripterTask                                                                                                                                                                                                                                                            
00019a08  _ZTV7I2cTask                                                                                                                                                                                                                                                                     
00019a24  _ZTV7PWMpage                                                                                                                                                                                                                                                                     
00019a40  _ZTV7UartCmd                                                                                                                                                                                                                                                                     
00019a5c  _ZTV9IoCtlPage                                                                                                                                                                                                                                                                   
00019bac  _ZTVN10__cxxabiv117__class_type_infoE                                                                                                                                                                                                                                            
00019bbc  _ZTVN10__cxxabiv120__si_class_type_infoE                                                                                                                                                                                                                                         
00019dcc  _ZZNKSt3__220__vector_base_commonILb1EE20__throw_length_errorEvEs                                                                                                                                                                                                                
00019470  _ZZNSt3__29allocatorIP11ConsolePageE8allocateEjPKvEs                                                                                                                                                                                                                             
000194b4  _ZZNSt3__29allocatorIP6I2cMsgE8allocateEjPKvEs                                                                                                                                                                                                                                   
000194f8  _ZZNSt3__29allocatorIP6SpiMsgE8allocateEjPKvEs                                                                                                                                                                                                                                   
0001953c  _ZZNSt3__29allocatorIP7MenuRowE8allocateEjPKvEs                                                                                                                                                                                                                                  
00016ea1  _ZdaPv                                                                                                                                                                                                                                                                           
00016e95  _ZdlPv                                                                                                                                                                                                                                                                           
00018d35  _ZdlPvj                                                                                                                                                                                                                                                                          
00016e89  _Znaj                                                                                                                                                                                                                                                                            
00016e7d  _Znwj                                                                                                                                                                                                                                                                            
00018807  _ZnwjPv                                                                                                                                                                                                                                                                          
2000571c  __CIOBUF_                                                                                                                                                                                                                                                                        
200065f8  __STACK_END                                                                                                                                                                                                                                                                      
00000800  __STACK_SIZE                                                                                                                                                                                                                                                                     
20005ff8  __STACK_TOP                                                                                                                                                                                                                                                                      
00000010  __SYSMEM_SIZE                                                                                                                                                                                                                                                                    
0001a0f0  __TI_CINIT_Base                                                                                                                                                                                                                                                                  
0001a108  __TI_CINIT_Limit                                                                                                                                                                                                                                                                 
0001a0d4  __TI_Handler_Table_Base                                                                                                                                                                                                                                                          
0001a0e0  __TI_Handler_Table_Limit                                                                                                                                                                                                                                                         
00016445  __TI_auto_init_nobinit_nopinit                                                                                                                                                                                                                                                   
00016c25  __TI_cleanup                                                                                                                                                                                                                                                                     
20006c5c  __TI_cleanup_ptr                                                                                                                                                                                                                                                                 
0001483d  __TI_closefile                                                                                                                                                                                                                                                                   
00014eb5  __TI_decompress_lzss                                                                                                                                                                                                                                                             
00018815  __TI_decompress_none                                                                                                                                                                                                                                                             
00015e95  __TI_doflush                                                                                                                                                                                                                                                                     
20006c60  __TI_dtors_ptr                                                                                                                                                                                                                                                                   
20006c64  __TI_enable_exit_profile_output                                                                                                                                                                                                                                                  
20006c3c  __TI_ft_end                                                                                                                                                                                                                                                                      
00015b71  __TI_ltoa                                                                                                                                                                                                                                                                        
ffffffff  __TI_pprof_out_hndl                                                                                                                                                                                                                                                              
00008f8d  __TI_printfi                                                                                                                                                                                                                                                                     
ffffffff  __TI_prof_data_size                                                                                                                                                                                                                                                              
ffffffff  __TI_prof_data_start                                                                                                                                                                                                                                                             
00016c59  __TI_readmsg                                                                                                                                                                                                                                                                     
00000000  __TI_static_base__                                                                                                                                                                                                                                                               
20005b4c  __TI_tmpnams                                                                                                                                                                                                                                                                     
00016a75  __TI_writemsg                                                                                                                                                                                                                                                                    
00015301  __TI_wrt_ok                                                                                                                                                                                                                                                                      
00018c69  __TI_zero_init                                                                                                                                                                                                                                                                   
00018d39  __abort_execution                                                                                                                                                                                                                                                                
00014545  __aeabi_cdcmpeq                                                                                                                                                                                                                                                                  
00014545  __aeabi_cdcmple                                                                                                                                                                                                                                                                  
000145cb  __aeabi_cdrcmple                                                                                                                                                                                                                                                                 
00016331  __aeabi_d2iz                                                                                                                                                                                                                                                                     
000164cd  __aeabi_d2uiz                                                                                                                                                                                                                                                                    
000120bb  __aeabi_dadd                                                                                                                                                                                                                                                                     
00012a41  __aeabi_ddiv                                                                                                                                                                                                                                                                     
000130e9  __aeabi_dmul                                                                                                                                                                                                                                                                     
000120b1  __aeabi_dsub                                                                                                                                                                                                                                                                     
00018ce5  __aeabi_errno_addr                                                                                                                                                                                                                                                               
000170a7  __aeabi_i2d                                                                                                                                                                                                                                                                      
0000c8df  __aeabi_idiv0                                                                                                                                                                                                                                                                    
0000c8df  __aeabi_ldiv0                                                                                                                                                                                                                                                                    
00014749  __aeabi_memclr                                                                                                                                                                                                                                                                   
00014749  __aeabi_memclr4                                                                                                                                                                                                                                                                  
00014749  __aeabi_memclr8                                                                                                                                                                                                                                                                  
00013f87  __aeabi_memcpy                                                                                                                                                                                                                                                                   
00013f87  __aeabi_memcpy4                                                                                                                                                                                                                                                                  
00013f87  __aeabi_memcpy8                                                                                                                                                                                                                                                                  
0001474b  __aeabi_memset                                                                                                                                                                                                                                                                   
0001474b  __aeabi_memset4                                                                                                                                                                                                                                                                  
0001474b  __aeabi_memset8                                                                                                                                                                                                                                                                  
20006c48  __aeabi_stderr                                                                                                                                                                                                                                                                   
20006c40  __aeabi_stdin                                                                                                                                                                                                                                                                    
20006c44  __aeabi_stdout                                                                                                                                                                                                                                                                   
000179e5  __aeabi_ui2d                                                                                                                                                                                                                                                                     
00016611  __aeabi_uidiv                                                                                                                                                                                                                                                                    
00016611  __aeabi_uidivmod                                                                                                                                                                                                                                                                 
00014153  __aeabi_uldivmod                                                                                                                                                                                                                                                                 
ffffffff  __binit__                                                                                                                                                                                                                                                                        
ffffffff  __c_args__                                                                                                                                                                                                                                                                       
00018d1d  __cxa_pure_virtual                                                                                                                                                                                                                                                               
UNDEFED   __mpu_init                                                                                                                                                                                                                                                                       
20005df8  __stack                                                                                                                                                                                                                                                                          
20000000  __start___llvm_prf_cnts                                                                                                                                                                                                                                                          
20000000  __stop___llvm_prf_cnts                                                                                                                                                                                                                                                           
00017b9d  _abort_msg                                                                                                                                                                                                                                                                       
00016c8d  _c_int00_noargs                                                                                                                                                                                                                                                                  
00018e64  _ctypes_                                                                                                                                                                                                                                                                         
200066e8  _device                                                                                                                                                                                                                                                                          
200065f8  _ftable                                                                                                                                                                                                                                                                          
20006cd4  _lock                                                                                                                                                                                                                                                                            
000099db  _nop                                                                                                                                                                                                                                                                             
200067c0  _stream                                                                                                                                                                                                                                                                          
20006d60  _sys_memory                                                                                                                                                                                                                                                                      
UNDEFED   _system_post_cinit                                                                                                                                                                                                                                                               
00018d3d  _system_pre_init                                                                                                                                                                                                                                                                 
20006cd8  _unlock                                                                                                                                                                                                                                                                          
00018d41  abort                                                                                                                                                                                                                                                                            
20006ce4  adc_pin_struct                                                                                                                                                                                                                                                                   
00012fe9  aligned_alloc                                                                                                                                                                                                                                                                    
00015ee1  atoi                                                                                                                                                                                                                                                                             
ffffffff  binit                                                                                                                                                                                                                                                                            
20006cec  board_gpi_info                                                                                                                                                                                                                                                                   
20006cf4  board_gpo_info                                                                                                                                                                                                                                                                   
20006cfc  board_pwm_info                                                                                                                                                                                                                                                                   
00015665  close                                                                                                                                                                                                                                                                            
00017c25  copysign                                                                                                                                                                                                                                                                         
00017c25  copysignl                                                                                                                                                                                                                                                                        
000006a5  eTaskGetState                                                                                                                                                                                                                                                                    
20006d5c  errno                                                                                                                                                                                                                                                                            
000162e9  exit                                                                                                                                                                                                                                                                             
000146cd  fflush                                                                                                                                                                                                                                                                           
00016e4d  finddevice                                                                                                                                                                                                                                                                       
00012dc5  fputs                                                                                                                                                                                                                                                                            
000133bd  free                                                                                                                                                                                                                                                                             
00015111  frexp                                                                                                                                                                                                                                                                            
00015111  frexpl                                                                                                                                                                                                                                                                           
00015175  fseek                                                                                                                                                                                                                                                                            
20006ca4  g_bUSBTimerInitialized                                                                                                                                                                                                                                                           
20006cc8  g_iUSBMode                                                                                                                                                                                                                                                                       
00019dd8  g_pCDCCompSerConfigDescriptors                                                                                                                                                                                                                                                   
00019ddc  g_pCDCCompSerConfigDescriptorsHS                                                                                                                                                                                                                                                 
20000000  g_pfnRAMVectors                                                                                                                                                                                                                                                                  
20005d20  g_pfnTickHandlers                                                                                                                                                                                                                                                                
00000000  g_pfnVectors                                                                                                                                                                                                                                                                     
00019de0  g_ppCDCSerConfigDescriptors                                                                                                                                                                                                                                                      
00019de4  g_ppCDCSerConfigDescriptorsHS                                                                                                                                                                                                                                                    
20005df0  g_ppsDevInfo                                                                                                                                                                                                                                                                     
00019aa8  g_ppui8StringDescriptors                                                                                                                                                                                                                                                         
20006c1c  g_psCDCCompSerSections                                                                                                                                                                                                                                                           
20006c2c  g_psCDCCompSerSectionsHS                                                                                                                                                                                                                                                         
20006c74  g_psCDCSerSections                                                                                                                                                                                                                                                               
20006c80  g_psCDCSerSectionsHS                                                                                                                                                                                                                                                             
20005c50  g_psDCDInst                                                                                                                                                                                                                                                                      
000197b1  g_pui8CDCSerCommInterface                                                                                                                                                                                                                                                        
00019ac0  g_pui8CDCSerDataInterface                                                                                                                                                                                                                                                        
00019ad7  g_pui8CDCSerDataInterfaceHS                                                                                                                                                                                                                                                      
20006cb0  g_pui8CDCSerDescriptor                                                                                                                                                                                                                                                           
20006bb8  g_pui8CDCSerDeviceDescriptor                                                                                                                                                                                                                                                     
00019640  g_pui8ConfigString                                                                                                                                                                                                                                                               
0001973c  g_pui8ControlInterfaceString                                                                                                                                                                                                                                                     
20006d0c  g_pui8IADSerDescriptor                                                                                                                                                                                                                                                           
00019dd3  g_pui8LangDescriptor                                                                                                                                                                                                                                                             
0001978d  g_pui8ManufacturerString                                                                                                                                                                                                                                                         
000197d4  g_pui8ProductString                                                                                                                                                                                                                                                              
00019b40  g_pui8SerialNumberString                                                                                                                                                                                                                                                         
2000594c  g_pui8USBRxBuffer                                                                                                                                                                                                                                                                
20005a4c  g_pui8USBTxBuffer                                                                                                                                                                                                                                                                
20005d38  g_pvTickInstance                                                                                                                                                                                                                                                                 
00019d7c  g_sCDCCompSerConfigHeader                                                                                                                                                                                                                                                        
00019d84  g_sCDCCompSerConfigHeaderHS                                                                                                                                                                                                                                                      
20006760  g_sCDCDevice                                                                                                                                                                                                                                                                     
000196dc  g_sCDCHandlers                                                                                                                                                                                                                                                                   
00019d8c  g_sCDCSerCommInterfaceSection                                                                                                                                                                                                                                                    
00019d94  g_sCDCSerConfigHeader                                                                                                                                                                                                                                                            
00019d9c  g_sCDCSerConfigHeaderHS                                                                                                                                                                                                                                                          
00019da4  g_sCDCSerConfigSection                                                                                                                                                                                                                                                           
00019dac  g_sCDCSerDataInterfaceSection                                                                                                                                                                                                                                                    
00019db4  g_sCDCSerDataInterfaceSectionHS                                                                                                                                                                                                                                                  
00019dbc  g_sIADSerConfigSection                                                                                                                                                                                                                                                           
20006810  g_sRxBuffer                                                                                                                                                                                                                                                                      
20006848  g_sTxBuffer                                                                                                                                                                                                                                                                      
20006ca8  g_ui32CurrentUSBTick                                                                                                                                                                                                                                                             
20006b64  g_ui32UARTRxCount                                                                                                                                                                                                                                                                
20006b60  g_ui32UARTTxCount                                                                                                                                                                                                                                                                
20006cac  g_ui32USBSOFCount                                                                                                                                                                                                                                                                
20006ccc  g_ui32WaitTicks                                                                                                                                                                                                                                                                  
00016489  getdevice                                                                                                                                                                                                                                                                        
20006b74  gpo_obj                                                                                                                                                                                                                                                                          
20006d14  i2c_speed_menu                                                                                                                                                                                                                                                                   
200069cc  i2c_speed_name                                                                                                                                                                                                                                                                   
00012ed9  ldexp                                                                                                                                                                                                                                                                            
00012ed9  ldexpl                                                                                                                                                                                                                                                                           
00017629  lseek                                                                                                                                                                                                                                                                            
000168b1  main                                                                                                                                                                                                                                                                             
00018cfd  malloc                                                                                                                                                                                                                                                                           
00012fe9  memalign                                                                                                                                                                                                                                                                         
00017bd5  memccpy                                                                                                                                                                                                                                                                          
000179c5  memchr                                                                                                                                                                                                                                                                           
00013f87  memcpy                                                                                                                                                                                                                                                                           
00017651  memmove                                                                                                                                                                                                                                                                          
00014751  memset                                                                                                                                                                                                                                                                           
20005ddc  parmbuf                                                                                                                                                                                                                                                                          
00006a05  pcQueueGetName                                                                                                                                                                                                                                                                   
00000d49  pcTaskGetName                                                                                                                                                                                                                                                                    
20006d1c  power_on_menu                                                                                                                                                                                                                                                                    
200069e0  power_on_name                                                                                                                                                                                                                                                                    
20006b78  power_on_pin                                                                                                                                                                                                                                                                     
20006c98  power_select_menu                                                                                                                                                                                                                                                                
200069e4  power_select_name                                                                                                                                                                                                                                                                
20006b7c  psel_1v8_pin                                                                                                                                                                                                                                                                     
20006b80  psel_3v3_pin                                                                                                                                                                                                                                                                     
20006b84  psel_5v_pin                                                                                                                                                                                                                                                                      
20006d24  pullup_en_menu                                                                                                                                                                                                                                                                   
200069e8  pullup_en_name                                                                                                                                                                                                                                                                   
20006b88  pullup_en_pin                                                                                                                                                                                                                                                                    
0000f769  pvPortMalloc                                                                                                                                                                                                                                                                     
00001a85  pvTaskIncrementMutexHeldCount                                                                                                                                                                                                                                                    
20006880  pxCurrentTCB                                                                                                                                                                                                                                                                     
000117d1  pxPortInitialiseStack                                                                                                                                                                                                                                                            
00017159  remove                                                                                                                                                                                                                                                                           
00012ed9  scalbn                                                                                                                                                                                                                                                                           
00012ed9  scalbnl                                                                                                                                                                                                                                                                          
0000e52f  set_uart_tx_q                                                                                                                                                                                                                                                                    
0001357d  setvbuf                                                                                                                                                                                                                                                                          
20006c4c  spi_mode_menu                                                                                                                                                                                                                                                                    
200069d0  spi_mode_name                                                                                                                                                                                                                                                                    
00016651  sprintf                                                                                                                                                                                                                                                                          
00017f57  strchr                                                                                                                                                                                                                                                                           
00017d19  strcmp                                                                                                                                                                                                                                                                           
000181ed  strcpy                                                                                                                                                                                                                                                                           
00018201  strlen                                                                                                                                                                                                                                                                           
00016b85  strncpy                                                                                                                                                                                                                                                                          
0000e9ad  uDMAChannelAssign                                                                                                                                                                                                                                                                
0000e653  uDMAChannelAttributeDisable                                                                                                                                                                                                                                                      
0000e5ff  uDMAChannelAttributeEnable                                                                                                                                                                                                                                                       
0000e6a7  uDMAChannelAttributeGet                                                                                                                                                                                                                                                          
0000e717  uDMAChannelControlSet                                                                                                                                                                                                                                                            
0000e58b  uDMAChannelDisable                                                                                                                                                                                                                                                               
0000e573  uDMAChannelEnable                                                                                                                                                                                                                                                                
0000e5a3  uDMAChannelIsEnabled                                                                                                                                                                                                                                                             
0000e925  uDMAChannelModeGet                                                                                                                                                                                                                                                               
0000e5e7  uDMAChannelRequest                                                                                                                                                                                                                                                               
0000e851  uDMAChannelScatterGatherSet                                                                                                                                                                                                                                                      
0000ea09  uDMAChannelSelectDefault                                                                                                                                                                                                                                                         
0000e9f5  uDMAChannelSelectSecondary                                                                                                                                                                                                                                                       
0000e8dd  uDMAChannelSizeGet                                                                                                                                                                                                                                                               
0000e759  uDMAChannelTransferSet                                                                                                                                                                                                                                                           
0000e5e1  uDMAControlAlternateBaseGet                                                                                                                                                                                                                                                      
0000e5db  uDMAControlBaseGet                                                                                                                                                                                                                                                               
0000e5cb  uDMAControlBaseSet                                                                                                                                                                                                                                                               
0000e55d  uDMADisable                                                                                                                                                                                                                                                                      
0000e555  uDMAEnable                                                                                                                                                                                                                                                                       
0000e56b  uDMAErrorStatusClear                                                                                                                                                                                                                                                             
0000e565  uDMAErrorStatusGet                                                                                                                                                                                                                                                               
0000e999  uDMAIntClear                                                                                                                                                                                                                                                                     
0000e96b  uDMAIntRegister                                                                                                                                                                                                                                                                  
0000e993  uDMAIntStatus                                                                                                                                                                                                                                                                    
0000e981  uDMAIntUnregister                                                                                                                                                                                                                                                                
20006d34  uart_mode_menu                                                                                                                                                                                                                                                                   
200069dc  uart_mode_name                                                                                                                                                                                                                                                                   
20006ba4  uart_parity_menu                                                                                                                                                                                                                                                                 
200069d4  uart_parity_name                                                                                                                                                                                                                                                                 
20006d3c  uart_stop_bit_menu                                                                                                                                                                                                                                                               
200069d8  uart_stop_bit_name                                                                                                                                                                                                                                                               
2000026c  ucHeap                                                                                                                                                                                                                                                                           
00006735  ucQueueGetQueueType                                                                                                                                                                                                                                                              
00019dc4  ulMaxSyscallInterruptPriority                                                                                                                                                                                                                                                    
00013669  ulPortGetIPSR                                                                                                                                                                                                                                                                    
00001a9d  ulTaskNotifyTake                                                                                                                                                                                                                                                                 
00017159  unlink                                                                                                                                                                                                                                                                           
00012c59  uxListRemove                                                                                                                                                                                                                                                                     
00006715  uxQueueGetQueueNumber                                                                                                                                                                                                                                                            
0000665d  uxQueueMessagesWaiting                                                                                                                                                                                                                                                           
000066c1  uxQueueMessagesWaitingFromISR                                                                                                                                                                                                                                                    
0000668d  uxQueueSpacesAvailable                                                                                                                                                                                                                                                           
00000d43  uxTaskGetNumberOfTasks                                                                                                                                                                                                                                                           
00000d91  uxTaskGetSystemState                                                                                                                                                                                                                                                             
0000133b  uxTaskGetTaskNumber                                                                                                                                                                                                                                                              
0000075b  uxTaskPriorityGet                                                                                                                                                                                                                                                                
0000078d  uxTaskPriorityGetFromISR                                                                                                                                                                                                                                                         
00001a63  uxTaskResetEventItemValue                                                                                                                                                                                                                                                        
000173b7  vApplicationIdleHook                                                                                                                                                                                                                                                             
000173a7  vApplicationMallocFailedHook                                                                                                                                                                                                                                                     
000173b9  vApplicationStackOverflowHook                                                                                                                                                                                                                                                    
00012b77  vListInitialise                                                                                                                                                                                                                                                                  
00012ba7  vListInitialiseItem                                                                                                                                                                                                                                                              
00012bf3  vListInsert                                                                                                                                                                                                                                                                      
00012bb7  vListInsertEnd                                                                                                                                                                                                                                                                   
00013725  vPortEnableVFP                                                                                                                                                                                                                                                                   
000118f1  vPortEndScheduler                                                                                                                                                                                                                                                                
00011915  vPortEnterCritical                                                                                                                                                                                                                                                               
00011957  vPortExitCritical                                                                                                                                                                                                                                                                
0000f8fb  vPortFree                                                                                                                                                                                                                                                                        
0000fafd  vPortGetHeapStats                                                                                                                                                                                                                                                                
0000f9a1  vPortInitialiseBlocks                                                                                                                                                                                                                                                            
000136e1  vPortSVCHandler                                                                                                                                                                                                                                                                  
000119a9  vPortSetupTimerInterrupt                                                                                                                                                                                                                                                         
00013701  vPortStartFirstTask                                                                                                                                                                                                                                                              
000119c5  vPortValidateInterruptPriority                                                                                                                                                                                                                                                   
000069c3  vQueueAddToRegistry                                                                                                                                                                                                                                                              
000066eb  vQueueDelete                                                                                                                                                                                                                                                                     
00006723  vQueueSetQueueNumber                                                                                                                                                                                                                                                             
00006a45  vQueueUnregisterQueue                                                                                                                                                                                                                                                            
0000063d  vTaskDelay                                                                                                                                                                                                                                                                       
00000559  vTaskDelayUntil                                                                                                                                                                                                                                                                  
0000048f  vTaskDelete                                                                                                                                                                                                                                                                      
00000be9  vTaskEndScheduler                                                                                                                                                                                                                                                                
00001441  vTaskGetInfo                                                                                                                                                                                                                                                                     
00001273  vTaskInternalSetTimeOutState                                                                                                                                                                                                                                                     
00001951  vTaskList                                                                                                                                                                                                                                                                        
00001333  vTaskMissedYield                                                                                                                                                                                                                                                                 
00001e69  vTaskNotifyGiveFromISR                                                                                                                                                                                                                                                           
0000105f  vTaskPlaceOnEventList                                                                                                                                                                                                                                                            
000010a1  vTaskPlaceOnUnorderedEventList                                                                                                                                                                                                                                                   
000017fd  vTaskPriorityDisinheritAfterTimeout                                                                                                                                                                                                                                              
000007d1  vTaskPrioritySet                                                                                                                                                                                                                                                                 
000011a9  vTaskRemoveFromUnorderedEventList                                                                                                                                                                                                                                                
00000a49  vTaskResume                                                                                                                                                                                                                                                                      
0000135b  vTaskSetTaskNumber                                                                                                                                                                                                                                                               
00001241  vTaskSetTimeOutState                                                                                                                                                                                                                                                             
00000b81  vTaskStartScheduler                                                                                                                                                                                                                                                              
00000905  vTaskSuspend                                                                                                                                                                                                                                                                     
00000c05  vTaskSuspendAll                                                                                                                                                                                                                                                                  
00000f99  vTaskSwitchContext                                                                                                                                                                                                                                                               
00018293  wcslen                                                                                                                                                                                                                                                                           
00017679  write                                                                                                                                                                                                                                                                            
0000f995  xPortGetFreeHeapSize                                                                                                                                                                                                                                                             
0000f99b  xPortGetMinimumEverFreeHeapSize                                                                                                                                                                                                                                                  
00013681  xPortPendSVHandler                                                                                                                                                                                                                                                               
0001185d  xPortStartScheduler                                                                                                                                                                                                                                                              
00011983  xPortSysTickHandler                                                                                                                                                                                                                                                              
00005ca1  xQueueCreateCountingSemaphore                                                                                                                                                                                                                                                    
00005c75  xQueueCreateMutex                                                                                                                                                                                                                                                                
00005b9d  xQueueGenericCreate                                                                                                                                                                                                                                                              
00005ae9  xQueueGenericReset                                                                                                                                                                                                                                                               
00005cf9  xQueueGenericSend                                                                                                                                                                                                                                                                
00005e8d  xQueueGenericSendFromISR                                                                                                                                                                                                                                                         
00005f91  xQueueGiveFromISR                                                                                                                                                                                                                                                                
0000692f  xQueueIsQueueEmptyFromISR                                                                                                                                                                                                                                                        
00006989  xQueueIsQueueFullFromISR                                                                                                                                                                                                                                                         
00006381  xQueuePeek                                                                                                                                                                                                                                                                       
000065b1  xQueuePeekFromISR                                                                                                                                                                                                                                                                
00006085  xQueueReceive                                                                                                                                                                                                                                                                    
000064d9  xQueueReceiveFromISR                                                                                                                                                                                                                                                             
20005ce0  xQueueRegistry                                                                                                                                                                                                                                                                   
000061d7  xQueueSemaphoreTake                                                                                                                                                                                                                                                              
0000128d  xTaskCheckForTimeOut                                                                                                                                                                                                                                                             
0000026d  xTaskCreate                                                                                                                                                                                                                                                                      
00001bc9  xTaskGenericNotify                                                                                                                                                                                                                                                               
00001d09  xTaskGenericNotifyFromISR                                                                                                                                                                                                                                                        
00001615  xTaskGetCurrentTaskHandle                                                                                                                                                                                                                                                        
00000d1f  xTaskGetTickCount                                                                                                                                                                                                                                                                
00000d2f  xTaskGetTickCountFromISR                                                                                                                                                                                                                                                         
00000e7d  xTaskIncrementTick                                                                                                                                                                                                                                                               
00001f51  xTaskNotifyStateClear                                                                                                                                                                                                                                                            
00001b13  xTaskNotifyWait                                                                                                                                                                                                                                                                  
00001727  xTaskPriorityDisinherit                                                                                                                                                                                                                                                          
0000164d  xTaskPriorityInherit                                                                                                                                                                                                                                                             
00001105  xTaskRemoveFromEventList                                                                                                                                                                                                                                                         
00000c1d  xTaskResumeAll                                                                                                                                                                                                                                                                   
00000add  xTaskResumeFromISR                                                                                                                                                                                                                                                               


GLOBAL SYMBOLS: SORTED BY Symbol Address 

address   name                                                                                                                                                                                                                                                                             
-------   ----                                                                                                                                                                                                                                                                             
00000000  __TI_static_base__                                                                                                                                                                                                                                                               
00000000  g_pfnVectors                                                                                                                                                                                                                                                                     
00000010  __SYSMEM_SIZE                                                                                                                                                                                                                                                                    
0000026d  xTaskCreate                                                                                                                                                                                                                                                                      
0000048f  vTaskDelete                                                                                                                                                                                                                                                                      
00000559  vTaskDelayUntil                                                                                                                                                                                                                                                                  
0000063d  vTaskDelay                                                                                                                                                                                                                                                                       
000006a5  eTaskGetState                                                                                                                                                                                                                                                                    
0000075b  uxTaskPriorityGet                                                                                                                                                                                                                                                                
0000078d  uxTaskPriorityGetFromISR                                                                                                                                                                                                                                                         
000007d1  vTaskPrioritySet                                                                                                                                                                                                                                                                 
00000800  __STACK_SIZE                                                                                                                                                                                                                                                                     
00000905  vTaskSuspend                                                                                                                                                                                                                                                                     
00000a49  vTaskResume                                                                                                                                                                                                                                                                      
00000add  xTaskResumeFromISR                                                                                                                                                                                                                                                               
00000b81  vTaskStartScheduler                                                                                                                                                                                                                                                              
00000be9  vTaskEndScheduler                                                                                                                                                                                                                                                                
00000c05  vTaskSuspendAll                                                                                                                                                                                                                                                                  
00000c1d  xTaskResumeAll                                                                                                                                                                                                                                                                   
00000d1f  xTaskGetTickCount                                                                                                                                                                                                                                                                
00000d2f  xTaskGetTickCountFromISR                                                                                                                                                                                                                                                         
00000d43  uxTaskGetNumberOfTasks                                                                                                                                                                                                                                                           
00000d49  pcTaskGetName                                                                                                                                                                                                                                                                    
00000d91  uxTaskGetSystemState                                                                                                                                                                                                                                                             
00000e7d  xTaskIncrementTick                                                                                                                                                                                                                                                               
00000f99  vTaskSwitchContext                                                                                                                                                                                                                                                               
0000105f  vTaskPlaceOnEventList                                                                                                                                                                                                                                                            
000010a1  vTaskPlaceOnUnorderedEventList                                                                                                                                                                                                                                                   
00001105  xTaskRemoveFromEventList                                                                                                                                                                                                                                                         
000011a9  vTaskRemoveFromUnorderedEventList                                                                                                                                                                                                                                                
00001241  vTaskSetTimeOutState                                                                                                                                                                                                                                                             
00001273  vTaskInternalSetTimeOutState                                                                                                                                                                                                                                                     
0000128d  xTaskCheckForTimeOut                                                                                                                                                                                                                                                             
00001333  vTaskMissedYield                                                                                                                                                                                                                                                                 
0000133b  uxTaskGetTaskNumber                                                                                                                                                                                                                                                              
0000135b  vTaskSetTaskNumber                                                                                                                                                                                                                                                               
00001441  vTaskGetInfo                                                                                                                                                                                                                                                                     
00001615  xTaskGetCurrentTaskHandle                                                                                                                                                                                                                                                        
0000164d  xTaskPriorityInherit                                                                                                                                                                                                                                                             
00001727  xTaskPriorityDisinherit                                                                                                                                                                                                                                                          
000017fd  vTaskPriorityDisinheritAfterTimeout                                                                                                                                                                                                                                              
00001951  vTaskList                                                                                                                                                                                                                                                                        
00001a63  uxTaskResetEventItemValue                                                                                                                                                                                                                                                        
00001a85  pvTaskIncrementMutexHeldCount                                                                                                                                                                                                                                                    
00001a9d  ulTaskNotifyTake                                                                                                                                                                                                                                                                 
00001b13  xTaskNotifyWait                                                                                                                                                                                                                                                                  
00001bc9  xTaskGenericNotify                                                                                                                                                                                                                                                               
00001d09  xTaskGenericNotifyFromISR                                                                                                                                                                                                                                                        
00001e69  vTaskNotifyGiveFromISR                                                                                                                                                                                                                                                           
00001f51  xTaskNotifyStateClear                                                                                                                                                                                                                                                            
000020d3  USBHostSuspend                                                                                                                                                                                                                                                                   
000020e9  USBHostReset                                                                                                                                                                                                                                                                     
00002117  USBHighSpeed                                                                                                                                                                                                                                                                     
00002145  USBHostResume                                                                                                                                                                                                                                                                    
00002173  USBHostSpeedGet                                                                                                                                                                                                                                                                  
000021a9  USBDevSpeedGet                                                                                                                                                                                                                                                                   
000021c1  USBIntDisableControl                                                                                                                                                                                                                                                             
000021ff  USBIntEnableControl                                                                                                                                                                                                                                                              
00002239  USBIntStatusControl                                                                                                                                                                                                                                                              
00002285  USBIntDisableEndpoint                                                                                                                                                                                                                                                            
000022b3  USBIntEnableEndpoint                                                                                                                                                                                                                                                             
000022e1  USBIntStatusEndpoint                                                                                                                                                                                                                                                             
00002337  USBIntRegister                                                                                                                                                                                                                                                                   
00002355  USBIntUnregister                                                                                                                                                                                                                                                                 
0000236f  USBEndpointStatus                                                                                                                                                                                                                                                                
0000239b  USBHostEndpointStatusClear                                                                                                                                                                                                                                                       
000023e3  USBDevEndpointStatusClear                                                                                                                                                                                                                                                        
00002465  USBHostEndpointDataToggle                                                                                                                                                                                                                                                        
00002501  USBEndpointDataToggleClear                                                                                                                                                                                                                                                       
0000253b  USBHostEndpointPing                                                                                                                                                                                                                                                              
00002567  USBDevEndpointStall                                                                                                                                                                                                                                                              
000025c9  USBDevEndpointStallClear                                                                                                                                                                                                                                                         
0000263d  USBDevConnect                                                                                                                                                                                                                                                                    
00002653  USBDevDisconnect                                                                                                                                                                                                                                                                 
00002669  USBDevAddrSet                                                                                                                                                                                                                                                                    
0000267d  USBDevAddrGet                                                                                                                                                                                                                                                                    
00002691  USBHostEndpointConfig                                                                                                                                                                                                                                                            
0000282b  USBHostEndpointSpeed                                                                                                                                                                                                                                                             
000028c1  USBDevEndpointConfigSet                                                                                                                                                                                                                                                          
000029b3  USBDevEndpointConfigGet                                                                                                                                                                                                                                                          
00002aa3  USBFIFOConfigSet                                                                                                                                                                                                                                                                 
00002b09  USBFIFOConfigGet                                                                                                                                                                                                                                                                 
00002b6f  USBEndpointDMAConfigSet                                                                                                                                                                                                                                                          
00002c07  USBEndpointDMAEnable                                                                                                                                                                                                                                                             
00002c41  USBEndpointDMADisable                                                                                                                                                                                                                                                            
00002c7b  USBEndpointDataAvail                                                                                                                                                                                                                                                             
00002cb3  USBEndpointDataGet                                                                                                                                                                                                                                                               
00002d3d  USBDevEndpointDataAck                                                                                                                                                                                                                                                            
00002d7b  USBHostEndpointDataAck                                                                                                                                                                                                                                                           
00002dad  USBEndpointDataPut                                                                                                                                                                                                                                                               
00002e11  USBEndpointDataSend                                                                                                                                                                                                                                                              
00002e69  USBFIFOFlush                                                                                                                                                                                                                                                                     
00002ed9  USBHostRequestIN                                                                                                                                                                                                                                                                 
00002f01  USBHostRequestINClear                                                                                                                                                                                                                                                            
00002f2f  USBHostRequestStatus                                                                                                                                                                                                                                                             
00002f41  USBHostAddrSet                                                                                                                                                                                                                                                                   
00002f79  USBHostAddrGet                                                                                                                                                                                                                                                                   
00002fa7  USBHostHubAddrSet                                                                                                                                                                                                                                                                
0000300b  USBHostHubAddrGet                                                                                                                                                                                                                                                                
00003039  USBHostPwrConfig                                                                                                                                                                                                                                                                 
00003063  USBHostPwrFaultEnable                                                                                                                                                                                                                                                            
0000307b  USBHostPwrFaultDisable                                                                                                                                                                                                                                                           
00003093  USBHostPwrEnable                                                                                                                                                                                                                                                                 
000030ab  USBHostPwrDisable                                                                                                                                                                                                                                                                
000030c3  USBFrameNumberGet                                                                                                                                                                                                                                                                
000030d1  USBOTGSessionRequest                                                                                                                                                                                                                                                             
000030ff  USBFIFOAddrGet                                                                                                                                                                                                                                                                   
00003115  USBModeGet                                                                                                                                                                                                                                                                       
00003129  USBEndpointDMAChannel                                                                                                                                                                                                                                                            
00003165  USBHostMode                                                                                                                                                                                                                                                                      
00003177  USBDevMode                                                                                                                                                                                                                                                                       
00003189  USBOTGMode                                                                                                                                                                                                                                                                       
0000319b  USBModeConfig                                                                                                                                                                                                                                                                    
000031af  USBPHYPowerOff                                                                                                                                                                                                                                                                   
000031c5  USBPHYPowerOn                                                                                                                                                                                                                                                                    
000031db  USBEndpointPacketCountSet                                                                                                                                                                                                                                                        
000031fb  USBNumEndpointsGet                                                                                                                                                                                                                                                               
0000320f  USBControllerVersion                                                                                                                                                                                                                                                             
00003223  USBClockEnable                                                                                                                                                                                                                                                                   
0000323f  USBClockDisable                                                                                                                                                                                                                                                                  
00003251  USBDMAChannelIntEnable                                                                                                                                                                                                                                                           
00003271  USBDMAChannelIntDisable                                                                                                                                                                                                                                                          
00003291  USBDMAChannelIntStatus                                                                                                                                                                                                                                                           
000032a1  USBDMAChannelEnable                                                                                                                                                                                                                                                              
000032c1  USBDMAChannelDisable                                                                                                                                                                                                                                                             
000032e1  USBDMAChannelConfigSet                                                                                                                                                                                                                                                           
00003311  USBDMAChannelStatus                                                                                                                                                                                                                                                              
00003331  USBDMAChannelStatusClear                                                                                                                                                                                                                                                         
0000335b  USBDMAChannelAddressSet                                                                                                                                                                                                                                                          
00003377  USBDMAChannelAddressGet                                                                                                                                                                                                                                                          
0000338f  USBDMAChannelCountSet                                                                                                                                                                                                                                                            
000033ab  USBDMAChannelCountGet                                                                                                                                                                                                                                                            
000033c3  USBDMANumChannels                                                                                                                                                                                                                                                                
000033d5  USBULPIConfig                                                                                                                                                                                                                                                                    
000033eb  USBULPIEnable                                                                                                                                                                                                                                                                    
00003403  USBULPIDisable                                                                                                                                                                                                                                                                   
0000341b  USBULPIRegRead                                                                                                                                                                                                                                                                   
00003453  USBULPIRegWrite                                                                                                                                                                                                                                                                  
00003493  USBHostLPMSend                                                                                                                                                                                                                                                                   
000034db  USBHostLPMConfig                                                                                                                                                                                                                                                                 
000034ff  USBHostLPMResume                                                                                                                                                                                                                                                                 
00003517  USBDevLPMRemoteWake                                                                                                                                                                                                                                                              
0000352f  USBDevLPMConfig                                                                                                                                                                                                                                                                  
00003545  USBDevLPMEnable                                                                                                                                                                                                                                                                  
0000355d  USBDevLPMDisable                                                                                                                                                                                                                                                                 
00003575  USBLPMLinkStateGet                                                                                                                                                                                                                                                               
00003589  USBLPMEndpointGet                                                                                                                                                                                                                                                                
000035a5  USBLPMRemoteWakeEnabled                                                                                                                                                                                                                                                          
000035bf  USBLPMIntStatus                                                                                                                                                                                                                                                                  
000035cf  USBLPMIntEnable                                                                                                                                                                                                                                                                  
000035e9  USBLPMIntDisable                                                                                                                                                                                                                                                                 
00003603  _ZNSt3__220__vector_base_commonILb1EEC2Ev                                                                                                                                                                                                                                        
00003605  _Z19set_i2c_clock_speedj                                                                                                                                                                                                                                                         
0000368b  _ZN6I2cMsgC1E14i2c_msg_type_t                                                                                                                                                                                                                                                    
0000368b  _ZN6I2cMsgC2E14i2c_msg_type_t                                                                                                                                                                                                                                                    
000036f9  _ZN7I2cTaskC1EP12i2c_config_t                                                                                                                                                                                                                                                    
000036f9  _ZN7I2cTaskC2EP12i2c_config_t                                                                                                                                                                                                                                                    
000038ff  _ZN7I2cTask10get_vectorEv                                                                                                                                                                                                                                                        
00003945  _ZN7I2cTask11add_i2c_msgEP6I2cMsg                                                                                                                                                                                                                                                
00003963  _ZN7I2cTask19reset_monitor_indexEv                                                                                                                                                                                                                                               
000039f1  _ZN7I2cTask4taskEPS_                                                                                                                                                                                                                                                             
00003ebd  _ZN7I2cTask14taskfunwrapperEPv                                                                                                                                                                                                                                                   
00003ecb  _ZN7I2cTask10log_errorsEPS_                                                                                                                                                                                                                                                      
00003f59  _ZN7I2cTask12print_errorsEPS_                                                                                                                                                                                                                                                    
00004035  _ZN7I2cTask9draw_pageEv                                                                                                                                                                                                                                                          
00004041  _ZN7I2cTask9draw_dataEv                                                                                                                                                                                                                                                          
000042bd  _ZN7I2cTask10draw_inputEi                                                                                                                                                                                                                                                        
000047ad  _ZN7I2cTask10draw_resetEv                                                                                                                                                                                                                                                        
000047d1  _ZN7I2cTask9draw_helpEv                                                                                                                                                                                                                                                          
000048b1  _Z12spi_set_modej                                                                                                                                                                                                                                                                
00004933  _ZN6SpiMsgC1E14spi_msg_type_e                                                                                                                                                                                                                                                    
00004933  _ZN6SpiMsgC2E14spi_msg_type_e                                                                                                                                                                                                                                                    
00004951  _ZN10SpiCmdTaskC1Ev                                                                                                                                                                                                                                                              
00004951  _ZN10SpiCmdTaskC2Ev                                                                                                                                                                                                                                                              
00004b5b  _ZN10SpiCmdTask11add_spi_msgEP6SpiMsg                                                                                                                                                                                                                                            
00004b79  _ZN10SpiCmdTask19reset_monitor_indexEv                                                                                                                                                                                                                                           
00004b95  _ZN10SpiCmdTask10get_vectorEv                                                                                                                                                                                                                                                    
00004c15  _ZN10SpiCmdTask4taskEPS_                                                                                                                                                                                                                                                         
00004df7  _ZN10SpiCmdTask14taskfunwrapperEPv                                                                                                                                                                                                                                               
00004e21  _ZN10SpiCmdTask10log_errorsEPS_                                                                                                                                                                                                                                                  
00004e99  _ZN10SpiCmdTask12ascii_to_hexEh                                                                                                                                                                                                                                                  
00004f33  _ZN10SpiCmdTask12print_errorsEPS_                                                                                                                                                                                                                                                
00004f8b  _ZN10SpiCmdTask9draw_pageEv                                                                                                                                                                                                                                                      
00004f97  _ZN10SpiCmdTask9draw_dataEv                                                                                                                                                                                                                                                      
0000506d  _ZN10SpiCmdTask10draw_inputEi                                                                                                                                                                                                                                                    
000059d3  _ZN10SpiCmdTask9draw_helpEv                                                                                                                                                                                                                                                      
000059dd  _ZN10SpiCmdTask10draw_resetEv                                                                                                                                                                                                                                                    
00005ae9  xQueueGenericReset                                                                                                                                                                                                                                                               
00005b9d  xQueueGenericCreate                                                                                                                                                                                                                                                              
00005c75  xQueueCreateMutex                                                                                                                                                                                                                                                                
00005ca1  xQueueCreateCountingSemaphore                                                                                                                                                                                                                                                    
00005cf9  xQueueGenericSend                                                                                                                                                                                                                                                                
00005e8d  xQueueGenericSendFromISR                                                                                                                                                                                                                                                         
00005f91  xQueueGiveFromISR                                                                                                                                                                                                                                                                
00006085  xQueueReceive                                                                                                                                                                                                                                                                    
000061d7  xQueueSemaphoreTake                                                                                                                                                                                                                                                              
00006381  xQueuePeek                                                                                                                                                                                                                                                                       
000064d9  xQueueReceiveFromISR                                                                                                                                                                                                                                                             
000065b1  xQueuePeekFromISR                                                                                                                                                                                                                                                                
0000665d  uxQueueMessagesWaiting                                                                                                                                                                                                                                                           
0000668d  uxQueueSpacesAvailable                                                                                                                                                                                                                                                           
000066c1  uxQueueMessagesWaitingFromISR                                                                                                                                                                                                                                                    
000066eb  vQueueDelete                                                                                                                                                                                                                                                                     
00006715  uxQueueGetQueueNumber                                                                                                                                                                                                                                                            
00006723  vQueueSetQueueNumber                                                                                                                                                                                                                                                             
00006735  ucQueueGetQueueType                                                                                                                                                                                                                                                              
0000692f  xQueueIsQueueEmptyFromISR                                                                                                                                                                                                                                                        
00006989  xQueueIsQueueFullFromISR                                                                                                                                                                                                                                                         
000069c3  vQueueAddToRegistry                                                                                                                                                                                                                                                              
00006a05  pcQueueGetName                                                                                                                                                                                                                                                                   
00006a45  vQueueUnregisterQueue                                                                                                                                                                                                                                                            
00006b51  SysCtlSRAMSizeGet                                                                                                                                                                                                                                                                
00006b5b  SysCtlFlashSizeGet                                                                                                                                                                                                                                                               
00006b87  SysCtlFlashSectorSizeGet                                                                                                                                                                                                                                                         
00006bad  SysCtlPeripheralPresent                                                                                                                                                                                                                                                          
00006bed  SysCtlPeripheralReady                                                                                                                                                                                                                                                            
00006c2d  SysCtlPeripheralPowerOn                                                                                                                                                                                                                                                          
00006c69  SysCtlPeripheralPowerOff                                                                                                                                                                                                                                                         
00006ca5  SysCtlPeripheralReset                                                                                                                                                                                                                                                            
00006d2d  SysCtlPeripheralEnable                                                                                                                                                                                                                                                           
00006d69  SysCtlPeripheralDisable                                                                                                                                                                                                                                                          
00006dad  SysCtlPeripheralSleepEnable                                                                                                                                                                                                                                                      
00006df1  SysCtlPeripheralSleepDisable                                                                                                                                                                                                                                                     
00006e2d  SysCtlPeripheralDeepSleepEnable                                                                                                                                                                                                                                                  
00006e7d  SysCtlPeripheralDeepSleepDisable                                                                                                                                                                                                                                                 
00006ec5  SysCtlPeripheralClockGating                                                                                                                                                                                                                                                      
00006f19  SysCtlIntRegister                                                                                                                                                                                                                                                                
00006f31  SysCtlIntUnregister                                                                                                                                                                                                                                                              
00006f41  SysCtlIntEnable                                                                                                                                                                                                                                                                  
00006f55  SysCtlIntDisable                                                                                                                                                                                                                                                                 
00006f6d  SysCtlIntClear                                                                                                                                                                                                                                                                   
00006f7d  SysCtlIntStatus                                                                                                                                                                                                                                                                  
00006f99  SysCtlLDOSleepSet                                                                                                                                                                                                                                                                
00006fa9  SysCtlLDOSleepGet                                                                                                                                                                                                                                                                
00006faf  SysCtlLDODeepSleepSet                                                                                                                                                                                                                                                            
00006fbf  SysCtlLDODeepSleepGet                                                                                                                                                                                                                                                            
00006fc5  SysCtlSleepPowerSet                                                                                                                                                                                                                                                              
00006fd9  SysCtlDeepSleepPowerSet                                                                                                                                                                                                                                                          
00006fe9  SysCtlReset                                                                                                                                                                                                                                                                      
00006ff1  SysCtlSleep                                                                                                                                                                                                                                                                      
00006ff9  SysCtlDeepSleep                                                                                                                                                                                                                                                                  
00007015  SysCtlResetCauseGet                                                                                                                                                                                                                                                              
0000701b  SysCtlResetCauseClear                                                                                                                                                                                                                                                            
0000702f  SysCtlMOSCConfigSet                                                                                                                                                                                                                                                              
00007045  SysCtlPIOSCCalibrate                                                                                                                                                                                                                                                             
00007095  SysCtlResetBehaviorSet                                                                                                                                                                                                                                                           
000070a5  SysCtlResetBehaviorGet                                                                                                                                                                                                                                                           
000070f9  SysCtlClockFreqSet                                                                                                                                                                                                                                                               
00007411  SysCtlClockSet                                                                                                                                                                                                                                                                   
000075dd  SysCtlClockGet                                                                                                                                                                                                                                                                   
0000778b  SysCtlDeepSleepClockSet                                                                                                                                                                                                                                                          
000077a9  SysCtlDeepSleepClockConfigSet                                                                                                                                                                                                                                                    
00007833  SysCtlPWMClockSet                                                                                                                                                                                                                                                                
0000784d  SysCtlPWMClockGet                                                                                                                                                                                                                                                                
00007863  SysCtlGPIOAHBEnable                                                                                                                                                                                                                                                              
0000787f  SysCtlGPIOAHBDisable                                                                                                                                                                                                                                                             
0000789b  SysCtlUSBPLLEnable                                                                                                                                                                                                                                                               
000078ad  SysCtlUSBPLLDisable                                                                                                                                                                                                                                                              
000078bd  SysCtlVoltageEventConfig                                                                                                                                                                                                                                                         
000078cd  SysCtlVoltageEventStatus                                                                                                                                                                                                                                                         
000078d9  SysCtlVoltageEventClear                                                                                                                                                                                                                                                          
000078ed  SysCtlNMIStatus                                                                                                                                                                                                                                                                  
000078f3  SysCtlNMIClear                                                                                                                                                                                                                                                                   
00007907  SysCtlClockOutConfig                                                                                                                                                                                                                                                             
00007923  SysCtlAltClkConfig                                                                                                                                                                                                                                                               
000079e3  GPIODirModeSet                                                                                                                                                                                                                                                                   
00007a3f  GPIODirModeGet                                                                                                                                                                                                                                                                   
00007a8b  GPIOIntTypeSet                                                                                                                                                                                                                                                                   
00007b2f  GPIOIntTypeGet                                                                                                                                                                                                                                                                   
00007bc5  GPIOPadConfigSet                                                                                                                                                                                                                                                                 
00007dff  GPIOPadConfigGet                                                                                                                                                                                                                                                                 
00007f51  GPIOIntEnable                                                                                                                                                                                                                                                                    
00007f6b  GPIOIntDisable                                                                                                                                                                                                                                                                   
00007f85  GPIOIntStatus                                                                                                                                                                                                                                                                    
00007fa7  GPIOIntClear                                                                                                                                                                                                                                                                     
00007fbb  GPIOIntRegister                                                                                                                                                                                                                                                                  
00007fd9  GPIOIntUnregister                                                                                                                                                                                                                                                                
00007ff3  GPIOPinRead                                                                                                                                                                                                                                                                      
0000800b  GPIOPinWrite                                                                                                                                                                                                                                                                     
0000802b  GPIOPinTypeADC                                                                                                                                                                                                                                                                   
0000804f  GPIOPinTypeCAN                                                                                                                                                                                                                                                                   
00008073  GPIOPinTypeComparator                                                                                                                                                                                                                                                            
00008097  GPIOPinTypeEPI                                                                                                                                                                                                                                                                   
000080bb  GPIOPinTypeEthernetLED                                                                                                                                                                                                                                                           
000080df  GPIOPinTypeEthernetMII                                                                                                                                                                                                                                                           
00008103  GPIOPinTypeGPIOInput                                                                                                                                                                                                                                                             
00008127  GPIOPinTypeGPIOOutput                                                                                                                                                                                                                                                            
0000814b  GPIOPinTypeGPIOOutputOD                                                                                                                                                                                                                                                          
0000816f  GPIOPinTypeI2C                                                                                                                                                                                                                                                                   
00008193  GPIOPinTypeI2CSCL                                                                                                                                                                                                                                                                
000081b7  GPIOPinTypeLCD                                                                                                                                                                                                                                                                   
000081db  GPIOPinTypeLPC                                                                                                                                                                                                                                                                   
000081ff  GPIOPinTypePECIRx                                                                                                                                                                                                                                                                
00008223  GPIOPinTypePECITx                                                                                                                                                                                                                                                                
00008247  GPIOPinTypePWM                                                                                                                                                                                                                                                                   
0000826b  GPIOPinTypeQEI                                                                                                                                                                                                                                                                   
0000828f  GPIOPinTypeSSI                                                                                                                                                                                                                                                                   
000082b3  GPIOPinTypeTimer                                                                                                                                                                                                                                                                 
000082d7  GPIOPinTypeUART                                                                                                                                                                                                                                                                  
000082fb  GPIOPinTypeUSBAnalog                                                                                                                                                                                                                                                             
0000831f  GPIOPinTypeUSBDigital                                                                                                                                                                                                                                                            
00008343  GPIOPinTypeWakeHigh                                                                                                                                                                                                                                                              
00008369  GPIOPinTypeWakeLow                                                                                                                                                                                                                                                               
0000838f  GPIOPinTypeKBRow                                                                                                                                                                                                                                                                 
000083b3  GPIOPinTypeKBColumn                                                                                                                                                                                                                                                              
000083d7  GPIOPinTypeLEDSeq                                                                                                                                                                                                                                                                
000083fb  GPIOPinTypeCIR                                                                                                                                                                                                                                                                   
0000841f  GPIOPinWakeStatus                                                                                                                                                                                                                                                                
0000842f  GPIOPinConfigure                                                                                                                                                                                                                                                                 
0000848d  GPIODMATriggerEnable                                                                                                                                                                                                                                                             
000084ab  GPIODMATriggerDisable                                                                                                                                                                                                                                                            
000084c9  GPIOADCTriggerEnable                                                                                                                                                                                                                                                             
000084e7  GPIOADCTriggerDisable                                                                                                                                                                                                                                                            
00008597  _ZN10OneWireMsgC1Ev                                                                                                                                                                                                                                                              
00008597  _ZN10OneWireMsgC2Ev                                                                                                                                                                                                                                                              
000085bb  _ZN10OneWireCmdC1EP6GpoObj                                                                                                                                                                                                                                                       
000085bb  _ZN10OneWireCmdC2EP6GpoObj                                                                                                                                                                                                                                                       
000086ef  _ZN10OneWireCmd7add_msgEP10OneWireMsg                                                                                                                                                                                                                                            
0000878d  _ZN10OneWireCmd4taskEPS_                                                                                                                                                                                                                                                         
00008b7f  _ZN10OneWireCmd14taskfunwrapperEPv                                                                                                                                                                                                                                               
00008b8d  _ZN10OneWireCmd9set_timerEj                                                                                                                                                                                                                                                      
00008bb1  _ZN10OneWireCmd12print_errorsEPS_                                                                                                                                                                                                                                                
00008bf1  _ZN10OneWireCmd9draw_pageEv                                                                                                                                                                                                                                                      
00008bfd  _ZN10OneWireCmd9draw_dataEv                                                                                                                                                                                                                                                      
00008c0d  _ZN10OneWireCmd10draw_inputEi                                                                                                                                                                                                                                                    
00008d7b  _ZN10OneWireCmd9draw_helpEv                                                                                                                                                                                                                                                      
00008d8f  _ZN10OneWireCmd10draw_resetEv                                                                                                                                                                                                                                                    
00008f8b  _ZNSt9type_infoD1Ev                                                                                                                                                                                                                                                              
00008f8b  _ZNSt9type_infoD2Ev                                                                                                                                                                                                                                                              
00008f8d  __TI_printfi                                                                                                                                                                                                                                                                     
000099db  _nop                                                                                                                                                                                                                                                                             
00009a37  ADCIntRegister                                                                                                                                                                                                                                                                   
00009a5f  ADCIntUnregister                                                                                                                                                                                                                                                                 
00009a7d  ADCIntDisable                                                                                                                                                                                                                                                                    
00009a99  ADCIntEnable                                                                                                                                                                                                                                                                     
00009abf  ADCIntStatus                                                                                                                                                                                                                                                                     
00009b17  ADCIntClear                                                                                                                                                                                                                                                                      
00009b2d  ADCSequenceEnable                                                                                                                                                                                                                                                                
00009b47  ADCSequenceDisable                                                                                                                                                                                                                                                               
00009b61  ADCSequenceConfigure                                                                                                                                                                                                                                                             
00009be5  ADCSequenceStepConfigure                                                                                                                                                                                                                                                         
00009cd9  ADCSequenceOverflow                                                                                                                                                                                                                                                              
00009cf1  ADCSequenceOverflowClear                                                                                                                                                                                                                                                         
00009d07  ADCSequenceUnderflow                                                                                                                                                                                                                                                             
00009d1f  ADCSequenceUnderflowClear                                                                                                                                                                                                                                                        
00009d35  ADCSequenceDataGet                                                                                                                                                                                                                                                               
00009d77  ADCProcessorTrigger                                                                                                                                                                                                                                                              
00009d9b  ADCSoftwareOversampleConfigure                                                                                                                                                                                                                                                   
00009dd3  ADCSoftwareOversampleStepConfigure                                                                                                                                                                                                                                               
00009e93  ADCSoftwareOversampleDataGet                                                                                                                                                                                                                                                     
00009f01  ADCHardwareOversampleConfigure                                                                                                                                                                                                                                                   
00009f33  ADCComparatorConfigure                                                                                                                                                                                                                                                           
00009f4f  ADCComparatorRegionSet                                                                                                                                                                                                                                                           
00009f73  ADCComparatorReset                                                                                                                                                                                                                                                               
00009fb9  ADCComparatorIntDisable                                                                                                                                                                                                                                                          
00009fd7  ADCComparatorIntEnable                                                                                                                                                                                                                                                           
00009ff5  ADCComparatorIntStatus                                                                                                                                                                                                                                                           
0000a003  ADCComparatorIntClear                                                                                                                                                                                                                                                            
0000a015  ADCIntDisableEx                                                                                                                                                                                                                                                                  
0000a02d  ADCIntEnableEx                                                                                                                                                                                                                                                                   
0000a049  ADCIntStatusEx                                                                                                                                                                                                                                                                   
0000a07b  ADCIntClearEx                                                                                                                                                                                                                                                                    
0000a093  ADCReferenceSet                                                                                                                                                                                                                                                                  
0000a0af  ADCReferenceGet                                                                                                                                                                                                                                                                  
0000a0c1  ADCPhaseDelaySet                                                                                                                                                                                                                                                                 
0000a0d3  ADCPhaseDelayGet                                                                                                                                                                                                                                                                 
0000a0e1  ADCSequenceDMAEnable                                                                                                                                                                                                                                                             
0000a0fd  ADCSequenceDMADisable                                                                                                                                                                                                                                                            
0000a119  ADCBusy                                                                                                                                                                                                                                                                          
0000a137  ADCClockConfigSet                                                                                                                                                                                                                                                                
0000a161  ADCClockConfigGet                                                                                                                                                                                                                                                                
0000a1a1  PWMGenConfigure                                                                                                                                                                                                                                                                  
0000a1eb  PWMGenPeriodSet                                                                                                                                                                                                                                                                  
0000a21b  PWMGenPeriodGet                                                                                                                                                                                                                                                                  
0000a245  PWMGenEnable                                                                                                                                                                                                                                                                     
0000a25f  PWMGenDisable                                                                                                                                                                                                                                                                    
0000a279  PWMPulseWidthSet                                                                                                                                                                                                                                                                 
0000a2c3  PWMPulseWidthGet                                                                                                                                                                                                                                                                 
0000a30d  PWMDeadBandEnable                                                                                                                                                                                                                                                                
0000a345  PWMDeadBandDisable                                                                                                                                                                                                                                                               
0000a361  PWMSyncUpdate                                                                                                                                                                                                                                                                    
0000a373  PWMSyncTimeBase                                                                                                                                                                                                                                                                  
0000a385  PWMOutputState                                                                                                                                                                                                                                                                   
0000a3b7  PWMOutputInvert                                                                                                                                                                                                                                                                  
0000a3e9  PWMOutputFaultLevel                                                                                                                                                                                                                                                              
0000a41b  PWMOutputFault                                                                                                                                                                                                                                                                   
0000a54d  PWMGenIntRegister                                                                                                                                                                                                                                                                
0000a575  PWMGenIntUnregister                                                                                                                                                                                                                                                              
0000a5db  PWMFaultIntRegister                                                                                                                                                                                                                                                              
0000a5f9  PWMFaultIntUnregister                                                                                                                                                                                                                                                            
0000a613  PWMGenIntTrigEnable                                                                                                                                                                                                                                                              
0000a631  PWMGenIntTrigDisable                                                                                                                                                                                                                                                             
0000a64f  PWMGenIntStatus                                                                                                                                                                                                                                                                  
0000a679  PWMGenIntClear                                                                                                                                                                                                                                                                   
0000a691  PWMIntEnable                                                                                                                                                                                                                                                                     
0000a6a9  PWMIntDisable                                                                                                                                                                                                                                                                    
0000a6c1  PWMFaultIntClear                                                                                                                                                                                                                                                                 
0000a6d3  PWMIntStatus                                                                                                                                                                                                                                                                     
0000a6f3  PWMFaultIntClearExt                                                                                                                                                                                                                                                              
0000a711  PWMGenFaultConfigure                                                                                                                                                                                                                                                             
0000a741  PWMGenFaultTriggerSet                                                                                                                                                                                                                                                            
0000a76b  PWMGenFaultTriggerGet                                                                                                                                                                                                                                                            
0000a78f  PWMGenFaultStatus                                                                                                                                                                                                                                                                
0000a7c5  PWMGenFaultClear                                                                                                                                                                                                                                                                 
0000a7fb  PWMClockSet                                                                                                                                                                                                                                                                      
0000a81b  PWMClockGet                                                                                                                                                                                                                                                                      
0000a845  PWMOutputUpdateMode                                                                                                                                                                                                                                                              
0000a917  I2CMasterInitExpClk                                                                                                                                                                                                                                                              
0000a989  I2CSlaveInit                                                                                                                                                                                                                                                                     
0000a9a3  I2CSlaveAddressSet                                                                                                                                                                                                                                                               
0000a9e1  I2CMasterEnable                                                                                                                                                                                                                                                                  
0000a9f7  I2CSlaveEnable                                                                                                                                                                                                                                                                   
0000aa15  I2CMasterDisable                                                                                                                                                                                                                                                                 
0000aa2b  I2CSlaveDisable                                                                                                                                                                                                                                                                  
0000aa49  I2CIntRegister                                                                                                                                                                                                                                                                   
0000aa67  I2CIntUnregister                                                                                                                                                                                                                                                                 
0000aa81  I2CMasterIntEnable                                                                                                                                                                                                                                                               
0000aa91  I2CMasterIntEnableEx                                                                                                                                                                                                                                                             
0000aaa9  I2CSlaveIntEnable                                                                                                                                                                                                                                                                
0000aac1  I2CSlaveIntEnableEx                                                                                                                                                                                                                                                              
0000aadb  I2CMasterIntDisable                                                                                                                                                                                                                                                              
0000aaeb  I2CMasterIntDisableEx                                                                                                                                                                                                                                                            
0000ab03  I2CSlaveIntDisable                                                                                                                                                                                                                                                               
0000ab1b  I2CSlaveIntDisableEx                                                                                                                                                                                                                                                             
0000ab35  I2CMasterIntStatus                                                                                                                                                                                                                                                               
0000ab79  I2CMasterIntStatusEx                                                                                                                                                                                                                                                             
0000aba5  I2CSlaveIntStatus                                                                                                                                                                                                                                                                
0000abed  I2CSlaveIntStatusEx                                                                                                                                                                                                                                                              
0000ac0f  I2CMasterIntClear                                                                                                                                                                                                                                                                
0000ac2d  I2CMasterIntClearEx                                                                                                                                                                                                                                                              
0000ac3f  I2CSlaveIntClear                                                                                                                                                                                                                                                                 
0000ac51  I2CSlaveIntClearEx                                                                                                                                                                                                                                                               
0000ac65  I2CMasterSlaveAddrSet                                                                                                                                                                                                                                                            
0000ac87  I2CMasterLineStateGet                                                                                                                                                                                                                                                            
0000ac95  I2CMasterBusy                                                                                                                                                                                                                                                                    
0000acad  I2CMasterBusBusy                                                                                                                                                                                                                                                                 
0000acc5  I2CMasterControl                                                                                                                                                                                                                                                                 
0000acd7  I2CMasterErr                                                                                                                                                                                                                                                                     
0000ad03  I2CMasterDataPut                                                                                                                                                                                                                                                                 
0000ad19  I2CMasterDataGet                                                                                                                                                                                                                                                                 
0000ad27  I2CMasterTimeoutSet                                                                                                                                                                                                                                                              
0000ad39  I2CSlaveACKOverride                                                                                                                                                                                                                                                              
0000ad6b  I2CSlaveACKValueSet                                                                                                                                                                                                                                                              
0000ad9d  I2CSlaveStatus                                                                                                                                                                                                                                                                   
0000adad  I2CSlaveDataPut                                                                                                                                                                                                                                                                  
0000adc5  I2CSlaveDataGet                                                                                                                                                                                                                                                                  
0000add5  I2CTxFIFOConfigSet                                                                                                                                                                                                                                                               
0000adfd  I2CTxFIFOFlush                                                                                                                                                                                                                                                                   
0000ae15  I2CRxFIFOConfigSet                                                                                                                                                                                                                                                               
0000ae3d  I2CRxFIFOFlush                                                                                                                                                                                                                                                                   
0000ae55  I2CFIFOStatus                                                                                                                                                                                                                                                                    
0000ae65  I2CFIFODataPut                                                                                                                                                                                                                                                                   
0000ae87  I2CFIFODataPutNonBlocking                                                                                                                                                                                                                                                        
0000aeaf  I2CFIFODataGet                                                                                                                                                                                                                                                                   
0000aec9  I2CFIFODataGetNonBlocking                                                                                                                                                                                                                                                        
0000aeef  I2CMasterBurstLengthSet                                                                                                                                                                                                                                                          
0000af05  I2CMasterBurstCountGet                                                                                                                                                                                                                                                           
0000af13  I2CMasterGlitchFilterConfigSet                                                                                                                                                                                                                                                   
0000af2b  I2CSlaveFIFOEnable                                                                                                                                                                                                                                                               
0000af43  I2CSlaveFIFODisable                                                                                                                                                                                                                                                              
0000af55  _ZN11ConsolePageC1EPKcjb                                                                                                                                                                                                                                                         
0000af55  _ZN11ConsolePageC2EPKcjb                                                                                                                                                                                                                                                         
0000af89  _ZN11ConsoleTaskC1EP15QueueDefinition                                                                                                                                                                                                                                            
0000af89  _ZN11ConsoleTaskC2EP15QueueDefinition                                                                                                                                                                                                                                            
0000affb  _ZN11ConsoleTask8add_pageEP11ConsolePage                                                                                                                                                                                                                                         
0000b017  _ZN11ConsoleTask14taskfunwrapperEPv                                                                                                                                                                                                                                              
0000b119  _ZN11ConsoleTask4taskEPS_                                                                                                                                                                                                                                                        
0000b49f  _ZN11ConsoleTask15start_draw_menuEPS_                                                                                                                                                                                                                                            
0000b561  _ZN11ConsoleTask9draw_pageEv                                                                                                                                                                                                                                                     
0000b5a9  _ZN11ConsoleTask9draw_dataEv                                                                                                                                                                                                                                                     
0000b5b3  _ZN11ConsoleTask10draw_inputEi                                                                                                                                                                                                                                                   
0000b5bf  _ZN11ConsoleTask9draw_helpEv                                                                                                                                                                                                                                                     
0000b5c9  _ZN11ConsoleTask10draw_resetEv                                                                                                                                                                                                                                                   
0000b5ed  _ZN14I2cMonitorTaskC1EP7I2cTaskRNSt3__26vectorIP6I2cMsgNS2_9allocatorIS5_EEEE                                                                                                                                                                                                    
0000b5ed  _ZN14I2cMonitorTaskC2EP7I2cTaskRNSt3__26vectorIP6I2cMsgNS2_9allocatorIS5_EEEE                                                                                                                                                                                                    
0000b673  _ZN14I2cMonitorTask4taskEPS_                                                                                                                                                                                                                                                     
0000b6c7  _ZN14I2cMonitorTask14taskfunwrapperEPv                                                                                                                                                                                                                                           
0000b6d5  _ZN14I2cMonitorTask16print_format_rowEj                                                                                                                                                                                                                                          
0000b7a5  _ZN14I2cMonitorTask10print_dataEjj                                                                                                                                                                                                                                               
0000b919  _ZN14I2cMonitorTask9draw_pageEv                                                                                                                                                                                                                                                  
0000b9b9  _ZN14I2cMonitorTask9draw_dataEv                                                                                                                                                                                                                                                  
0000ba69  _ZN14I2cMonitorTask10draw_inputEi                                                                                                                                                                                                                                                
0000bb9f  _ZN14I2cMonitorTask9draw_helpEv                                                                                                                                                                                                                                                  
0000bba9  _ZN14I2cMonitorTask10draw_resetEv                                                                                                                                                                                                                                                
0000bc49  _ZN14SpiMonitorTaskC1EP10SpiCmdTaskRNSt3__26vectorIP6SpiMsgNS2_9allocatorIS5_EEEE                                                                                                                                                                                                
0000bc49  _ZN14SpiMonitorTaskC2EP10SpiCmdTaskRNSt3__26vectorIP6SpiMsgNS2_9allocatorIS5_EEEE                                                                                                                                                                                                
0000bccf  _ZN14SpiMonitorTask4taskEPS_                                                                                                                                                                                                                                                     
0000bd21  _ZN14SpiMonitorTask14taskfunwrapperEPv                                                                                                                                                                                                                                           
0000bd2f  _ZN14SpiMonitorTask16print_format_rowEj                                                                                                                                                                                                                                          
0000bdfd  _ZN14SpiMonitorTask10print_dataEjj                                                                                                                                                                                                                                               
0000bf75  _ZN14SpiMonitorTask9draw_pageEv                                                                                                                                                                                                                                                  
0000c015  _ZN14SpiMonitorTask9draw_dataEv                                                                                                                                                                                                                                                  
0000c0c1  _ZN14SpiMonitorTask10draw_inputEi                                                                                                                                                                                                                                                
0000c1f5  _ZN14SpiMonitorTask9draw_helpEv                                                                                                                                                                                                                                                  
0000c1ff  _ZN14SpiMonitorTask10draw_resetEv                                                                                                                                                                                                                                                
0000c30f  TimerEnable                                                                                                                                                                                                                                                                      
0000c32d  TimerDisable                                                                                                                                                                                                                                                                     
0000c34b  TimerConfigure                                                                                                                                                                                                                                                                   
0000c3c7  TimerControlLevel                                                                                                                                                                                                                                                                
0000c3fd  TimerControlTrigger                                                                                                                                                                                                                                                              
0000c46b  TimerControlEvent                                                                                                                                                                                                                                                                
0000c495  TimerControlStall                                                                                                                                                                                                                                                                
0000c4cb  TimerControlWaitOnTrigger                                                                                                                                                                                                                                                        
0000c52b  TimerRTCEnable                                                                                                                                                                                                                                                                   
0000c541  TimerRTCDisable                                                                                                                                                                                                                                                                  
0000c557  TimerClockSourceSet                                                                                                                                                                                                                                                              
0000c581  TimerClockSourceGet                                                                                                                                                                                                                                                              
0000c591  TimerPrescaleSet                                                                                                                                                                                                                                                                 
0000c5bb  TimerPrescaleGet                                                                                                                                                                                                                                                                 
0000c5d7  TimerPrescaleMatchSet                                                                                                                                                                                                                                                            
0000c605  TimerPrescaleMatchGet                                                                                                                                                                                                                                                            
0000c621  TimerLoadSet                                                                                                                                                                                                                                                                     
0000c64b  TimerLoadGet                                                                                                                                                                                                                                                                     
0000c667  TimerLoadSet64                                                                                                                                                                                                                                                                   
0000c681  TimerLoadGet64                                                                                                                                                                                                                                                                   
0000c6b3  TimerValueGet                                                                                                                                                                                                                                                                    
0000c6cf  TimerValueGet64                                                                                                                                                                                                                                                                  
0000c701  TimerMatchSet                                                                                                                                                                                                                                                                    
0000c72b  TimerMatchGet                                                                                                                                                                                                                                                                    
0000c747  TimerMatchSet64                                                                                                                                                                                                                                                                  
0000c761  TimerMatchGet64                                                                                                                                                                                                                                                                  
0000c793  TimerIntRegister                                                                                                                                                                                                                                                                 
0000c7bb  TimerIntUnregister                                                                                                                                                                                                                                                               
0000c7d9  TimerIntEnable                                                                                                                                                                                                                                                                   
0000c7f1  TimerIntDisable                                                                                                                                                                                                                                                                  
0000c809  TimerIntStatus                                                                                                                                                                                                                                                                   
0000c827  TimerIntClear                                                                                                                                                                                                                                                                    
0000c839  TimerSynchronize                                                                                                                                                                                                                                                                 
0000c84b  TimerADCEventSet                                                                                                                                                                                                                                                                 
0000c85d  TimerADCEventGet                                                                                                                                                                                                                                                                 
0000c86b  TimerDMAEventSet                                                                                                                                                                                                                                                                 
0000c87d  TimerDMAEventGet                                                                                                                                                                                                                                                                 
0000c88b  TimerUpdateMode                                                                                                                                                                                                                                                                  
0000c8df  __aeabi_idiv0                                                                                                                                                                                                                                                                    
0000c8df  __aeabi_ldiv0                                                                                                                                                                                                                                                                    
0000c8e1  _Z15uart_set_parityj                                                                                                                                                                                                                                                             
0000c947  _Z18uart_set_stop_bitsj                                                                                                                                                                                                                                                          
0000c9eb  _ZN7UartCmdC1Ev                                                                                                                                                                                                                                                                  
0000c9eb  _ZN7UartCmdC2Ev                                                                                                                                                                                                                                                                  
0000ca21  _ZN7UartCmd9draw_pageEv                                                                                                                                                                                                                                                          
0000ca33  _ZN7UartCmd9draw_dataEv                                                                                                                                                                                                                                                          
0000cb1d  _ZN7UartCmd10draw_inputEi                                                                                                                                                                                                                                                        
0000cd91  _ZN7UartCmd9draw_helpEv                                                                                                                                                                                                                                                          
0000cd9b  _ZN7UartCmd10draw_resetEv                                                                                                                                                                                                                                                        
0000cf5f  UARTParityModeSet                                                                                                                                                                                                                                                                
0000cf7b  UARTParityModeGet                                                                                                                                                                                                                                                                
0000cf8d  UARTFIFOLevelSet                                                                                                                                                                                                                                                                 
0000cfa5  UARTFIFOLevelGet                                                                                                                                                                                                                                                                 
0000cfcd  UARTConfigSetExpClk                                                                                                                                                                                                                                                              
0000d043  UARTConfigGetExpClk                                                                                                                                                                                                                                                              
0000d08f  UARTEnable                                                                                                                                                                                                                                                                       
0000d0b3  UARTDisable                                                                                                                                                                                                                                                                      
0000d0dd  UARTFIFOEnable                                                                                                                                                                                                                                                                   
0000d0f3  UARTFIFODisable                                                                                                                                                                                                                                                                  
0000d109  UARTEnableSIR                                                                                                                                                                                                                                                                    
0000d137  UARTDisableSIR                                                                                                                                                                                                                                                                   
0000d14d  UARTSmartCardEnable                                                                                                                                                                                                                                                              
0000d17f  UARTSmartCardDisable                                                                                                                                                                                                                                                             
0000d195  UARTModemControlSet                                                                                                                                                                                                                                                              
0000d1cd  UARTModemControlClear                                                                                                                                                                                                                                                            
0000d1f1  UARTModemControlGet                                                                                                                                                                                                                                                              
0000d203  UARTModemStatusGet                                                                                                                                                                                                                                                               
0000d217  UARTFlowControlSet                                                                                                                                                                                                                                                               
0000d233  UARTFlowControlGet                                                                                                                                                                                                                                                               
0000d245  UARTTxIntModeSet                                                                                                                                                                                                                                                                 
0000d261  UARTTxIntModeGet                                                                                                                                                                                                                                                                 
0000d273  UARTCharsAvail                                                                                                                                                                                                                                                                   
0000d291  UARTSpaceAvail                                                                                                                                                                                                                                                                   
0000d2af  UARTCharGetNonBlocking                                                                                                                                                                                                                                                           
0000d2cb  UARTCharGet                                                                                                                                                                                                                                                                      
0000d2e1  UARTCharPutNonBlocking                                                                                                                                                                                                                                                           
0000d305  UARTCharPut                                                                                                                                                                                                                                                                      
0000d323  UARTBreakCtl                                                                                                                                                                                                                                                                     
0000d34d  UARTBusy                                                                                                                                                                                                                                                                         
0000d36b  UARTIntRegister                                                                                                                                                                                                                                                                  
0000d389  UARTIntUnregister                                                                                                                                                                                                                                                                
0000d3a9  UARTIntEnable                                                                                                                                                                                                                                                                    
0000d3c1  UARTIntDisable                                                                                                                                                                                                                                                                   
0000d3d9  UARTIntStatus                                                                                                                                                                                                                                                                    
0000d3f7  UARTIntClear                                                                                                                                                                                                                                                                     
0000d409  UARTDMAEnable                                                                                                                                                                                                                                                                    
0000d421  UARTDMADisable                                                                                                                                                                                                                                                                   
0000d439  UARTRxErrorGet                                                                                                                                                                                                                                                                   
0000d44b  UARTRxErrorClear                                                                                                                                                                                                                                                                 
0000d45b  UARTClockSourceSet                                                                                                                                                                                                                                                               
0000d46f  UARTClockSourceGet                                                                                                                                                                                                                                                               
0000d47f  UART9BitEnable                                                                                                                                                                                                                                                                   
0000d495  UART9BitDisable                                                                                                                                                                                                                                                                  
0000d4ab  UART9BitAddrSet                                                                                                                                                                                                                                                                  
0000d4d1  UART9BitAddrSend                                                                                                                                                                                                                                                                 
0000d619  USBUARTIntHandler                                                                                                                                                                                                                                                                
0000d83d  ControlHandler                                                                                                                                                                                                                                                                   
0000d90d  TxHandler                                                                                                                                                                                                                                                                        
0000d921  RxHandler                                                                                                                                                                                                                                                                        
0000d96d  _Z8get_charv                                                                                                                                                                                                                                                                     
0000d987  _ZN11UART_to_USBC1EP15QueueDefinitionS1_                                                                                                                                                                                                                                         
0000d987  _ZN11UART_to_USBC2EP15QueueDefinitionS1_                                                                                                                                                                                                                                         
0000da5b  _ZN11UART_to_USB4taskEPS_                                                                                                                                                                                                                                                        
0000da7b  _ZN11UART_to_USB14taskfunwrapperEPv                                                                                                                                                                                                                                              
0000dac1  _ZN15I2cScripterTaskC1EP7I2cTask                                                                                                                                                                                                                                                 
0000dac1  _ZN15I2cScripterTaskC2EP7I2cTask                                                                                                                                                                                                                                                 
0000db49  _ZN15I2cScripterTask4taskEPS_                                                                                                                                                                                                                                                    
0000db9d  _ZN15I2cScripterTask14taskfunwrapperEPv                                                                                                                                                                                                                                          
0000dbab  _ZN15I2cScripterTask12ascii_to_hexEPc                                                                                                                                                                                                                                            
0000dc01  _ZN15I2cScripterTask13print_messageEP6I2cMsg                                                                                                                                                                                                                                     
0000dc6d  _ZN15I2cScripterTask9draw_pageEv                                                                                                                                                                                                                                                 
0000dc87  _ZN15I2cScripterTask9draw_dataEv                                                                                                                                                                                                                                                 
0000dcad  _ZN15I2cScripterTask10draw_inputEi                                                                                                                                                                                                                                               
0000de35  _ZN15I2cScripterTask9draw_helpEv                                                                                                                                                                                                                                                 
0000dfd9  _ZN15I2cScripterTask10draw_resetEv                                                                                                                                                                                                                                               
0000e065  UARTStdioConfig                                                                                                                                                                                                                                                                  
0000e0ab  UARTwrite                                                                                                                                                                                                                                                                        
0000e12b  UARTgets                                                                                                                                                                                                                                                                         
0000e1e5  UARTgetc                                                                                                                                                                                                                                                                         
0000e211  UARTvprintf                                                                                                                                                                                                                                                                      
0000e50b  UARTprintf                                                                                                                                                                                                                                                                       
0000e52f  set_uart_tx_q                                                                                                                                                                                                                                                                    
0000e555  uDMAEnable                                                                                                                                                                                                                                                                       
0000e55d  uDMADisable                                                                                                                                                                                                                                                                      
0000e565  uDMAErrorStatusGet                                                                                                                                                                                                                                                               
0000e56b  uDMAErrorStatusClear                                                                                                                                                                                                                                                             
0000e573  uDMAChannelEnable                                                                                                                                                                                                                                                                
0000e58b  uDMAChannelDisable                                                                                                                                                                                                                                                               
0000e5a3  uDMAChannelIsEnabled                                                                                                                                                                                                                                                             
0000e5cb  uDMAControlBaseSet                                                                                                                                                                                                                                                               
0000e5db  uDMAControlBaseGet                                                                                                                                                                                                                                                               
0000e5e1  uDMAControlAlternateBaseGet                                                                                                                                                                                                                                                      
0000e5e7  uDMAChannelRequest                                                                                                                                                                                                                                                               
0000e5ff  uDMAChannelAttributeEnable                                                                                                                                                                                                                                                       
0000e653  uDMAChannelAttributeDisable                                                                                                                                                                                                                                                      
0000e6a7  uDMAChannelAttributeGet                                                                                                                                                                                                                                                          
0000e717  uDMAChannelControlSet                                                                                                                                                                                                                                                            
0000e759  uDMAChannelTransferSet                                                                                                                                                                                                                                                           
0000e851  uDMAChannelScatterGatherSet                                                                                                                                                                                                                                                      
0000e8dd  uDMAChannelSizeGet                                                                                                                                                                                                                                                               
0000e925  uDMAChannelModeGet                                                                                                                                                                                                                                                               
0000e96b  uDMAIntRegister                                                                                                                                                                                                                                                                  
0000e981  uDMAIntUnregister                                                                                                                                                                                                                                                                
0000e993  uDMAIntStatus                                                                                                                                                                                                                                                                    
0000e999  uDMAIntClear                                                                                                                                                                                                                                                                     
0000e9ad  uDMAChannelAssign                                                                                                                                                                                                                                                                
0000e9f5  uDMAChannelSelectSecondary                                                                                                                                                                                                                                                       
0000ea09  uDMAChannelSelectDefault                                                                                                                                                                                                                                                         
0000ea35  _ZN7PWMpageC1Ev                                                                                                                                                                                                                                                                  
0000ea35  _ZN7PWMpageC2Ev                                                                                                                                                                                                                                                                  
0000eb2d  _ZN7PWMpage15set_pulse_widthEjjjb                                                                                                                                                                                                                                                
0000ec0f  _ZN7PWMpage9draw_pageEv                                                                                                                                                                                                                                                          
0000ec23  _ZN7PWMpage9draw_dataEv                                                                                                                                                                                                                                                          
0000ec41  _ZN7PWMpage10draw_inputEi                                                                                                                                                                                                                                                        
0000ee05  _ZN7PWMpage10draw_resetEv                                                                                                                                                                                                                                                        
0000ee31  _ZN7PWMpage9draw_helpEv                                                                                                                                                                                                                                                          
0000eea1  _Z18set_power_suppliesj                                                                                                                                                                                                                                                          
0000eedd  _Z16sel_power_supplyj                                                                                                                                                                                                                                                            
0000ef81  _Z13set_pullup_enj                                                                                                                                                                                                                                                               
0000efbd  _ZN6GpoObjC1Ev                                                                                                                                                                                                                                                                   
0000efbd  _ZN6GpoObjC2Ev                                                                                                                                                                                                                                                                   
0000f14d  _ZN6GpoObj10get_configEPKc                                                                                                                                                                                                                                                       
0000f1d1  _ZN6GpoObj3setEP10gpio_pin_tj                                                                                                                                                                                                                                                    
0000f205  _ZN6GpoObj3getEP10gpio_pin_t                                                                                                                                                                                                                                                     
0000f221  _ZN6GpoObj10get_structEv                                                                                                                                                                                                                                                         
0000f305  _ZN13NoBoosterPackC1Ev                                                                                                                                                                                                                                                           
0000f305  _ZN13NoBoosterPackC2Ev                                                                                                                                                                                                                                                           
0000f769  pvPortMalloc                                                                                                                                                                                                                                                                     
0000f8fb  vPortFree                                                                                                                                                                                                                                                                        
0000f995  xPortGetFreeHeapSize                                                                                                                                                                                                                                                             
0000f99b  xPortGetMinimumEverFreeHeapSize                                                                                                                                                                                                                                                  
0000f9a1  vPortInitialiseBlocks                                                                                                                                                                                                                                                            
0000fafd  vPortGetHeapStats                                                                                                                                                                                                                                                                
0000fbbd  _ZN7MenuRowC1EjPFvjEPPKcS3_                                                                                                                                                                                                                                                      
0000fbbd  _ZN7MenuRowC2EjPFvjEPPKcS3_                                                                                                                                                                                                                                                      
0000fbed  _ZN11MenuOptionsC1Ev                                                                                                                                                                                                                                                             
0000fbed  _ZN11MenuOptionsC2Ev                                                                                                                                                                                                                                                             
0000fc17  _ZN11MenuOptions12add_menu_rowEP7MenuRow                                                                                                                                                                                                                                         
0000fc29  _ZN11MenuOptions9print_rowEj                                                                                                                                                                                                                                                     
0000fd07  _ZN11MenuOptions9draw_pageEv                                                                                                                                                                                                                                                     
0000fe1d  _ZN11MenuOptions9draw_dataEv                                                                                                                                                                                                                                                     
0000fe41  _ZN11MenuOptions10draw_inputEi                                                                                                                                                                                                                                                   
0000ffab  _ZN11MenuOptions9draw_helpEv                                                                                                                                                                                                                                                     
0000ffb5  _ZN11MenuOptions10draw_resetEv                                                                                                                                                                                                                                                   
0000ffc3  IntMasterEnable                                                                                                                                                                                                                                                                  
0000ffd3  IntMasterDisable                                                                                                                                                                                                                                                                 
0000ffe3  IntRegister                                                                                                                                                                                                                                                                      
00010035  IntUnregister                                                                                                                                                                                                                                                                    
00010049  IntPriorityGroupingSet                                                                                                                                                                                                                                                           
00010063  IntPriorityGroupingGet                                                                                                                                                                                                                                                           
0001009b  IntPrioritySet                                                                                                                                                                                                                                                                   
000100eb  IntPriorityGet                                                                                                                                                                                                                                                                   
0001010f  IntEnable                                                                                                                                                                                                                                                                        
00010181  IntDisable                                                                                                                                                                                                                                                                       
000101f3  IntIsEnabled                                                                                                                                                                                                                                                                     
00010279  IntPendSet                                                                                                                                                                                                                                                                       
000102e9  IntPendClear                                                                                                                                                                                                                                                                     
00010337  IntPriorityMaskSet                                                                                                                                                                                                                                                               
00010343  IntPriorityMaskGet                                                                                                                                                                                                                                                               
0001034b  IntTrigger                                                                                                                                                                                                                                                                       
00010381  _ZN9IoCtlPageC1EP6GpoObjP6GpiObjP7AdcTask                                                                                                                                                                                                                                        
00010381  _ZN9IoCtlPageC2EP6GpoObjP6GpiObjP7AdcTask                                                                                                                                                                                                                                        
000103df  _ZN9IoCtlPage9draw_pageEv                                                                                                                                                                                                                                                        
00010513  _ZN9IoCtlPage9draw_dataEv                                                                                                                                                                                                                                                        
00010665  _ZN9IoCtlPage10draw_inputEi                                                                                                                                                                                                                                                      
0001070d  _ZN9IoCtlPage9draw_helpEv                                                                                                                                                                                                                                                        
00010717  _ZN9IoCtlPage10draw_resetEv                                                                                                                                                                                                                                                      
00010793  SSIConfigSetExpClk                                                                                                                                                                                                                                                               
0001081f  SSIEnable                                                                                                                                                                                                                                                                        
00010835  SSIDisable                                                                                                                                                                                                                                                                       
0001084b  SSIIntRegister                                                                                                                                                                                                                                                                   
00010869  SSIIntUnregister                                                                                                                                                                                                                                                                 
00010883  SSIIntEnable                                                                                                                                                                                                                                                                     
0001089b  SSIIntDisable                                                                                                                                                                                                                                                                    
000108b3  SSIIntStatus                                                                                                                                                                                                                                                                     
000108d1  SSIIntClear                                                                                                                                                                                                                                                                      
000108e3  SSIDataPut                                                                                                                                                                                                                                                                       
000108fd  SSIDataPutNonBlocking                                                                                                                                                                                                                                                            
0001091d  SSIDataGet                                                                                                                                                                                                                                                                       
00010939  SSIDataGetNonBlocking                                                                                                                                                                                                                                                            
0001095b  SSIDMAEnable                                                                                                                                                                                                                                                                     
00010973  SSIDMADisable                                                                                                                                                                                                                                                                    
0001098b  SSIBusy                                                                                                                                                                                                                                                                          
000109a9  SSIClockSourceSet                                                                                                                                                                                                                                                                
000109bd  SSIClockSourceGet                                                                                                                                                                                                                                                                
000109e1  SSIAdvModeSet                                                                                                                                                                                                                                                                    
000109fd  SSIAdvDataPutFrameEnd                                                                                                                                                                                                                                                            
00010a23  SSIAdvDataPutFrameEndNonBlocking                                                                                                                                                                                                                                                 
00010a4f  SSIAdvFrameHoldEnable                                                                                                                                                                                                                                                            
00010a65  SSIAdvFrameHoldDisable                                                                                                                                                                                                                                                           
00010a7d  _Z20set_uart_stream_modej                                                                                                                                                                                                                                                        
00010af9  _ZN12UartStreamerC1Ev                                                                                                                                                                                                                                                            
00010af9  _ZN12UartStreamerC2Ev                                                                                                                                                                                                                                                            
00010ba9  _ZN12UartStreamer4taskEPS_                                                                                                                                                                                                                                                       
00010c2d  _ZN12UartStreamer14taskfunwrapperEPv                                                                                                                                                                                                                                             
00010c3b  _ZN12UartStreamer9draw_pageEv                                                                                                                                                                                                                                                    
00010c47  _ZN12UartStreamer9draw_dataEv                                                                                                                                                                                                                                                    
00010c51  _ZN12UartStreamer10draw_inputEi                                                                                                                                                                                                                                                  
00010c5d  _ZN12UartStreamer9draw_helpEv                                                                                                                                                                                                                                                    
00010c67  _ZN12UartStreamer10draw_resetEv                                                                                                                                                                                                                                                  
00010d65  _ZN11TaskManagerC1Ev                                                                                                                                                                                                                                                             
00010d65  _ZN11TaskManagerC2Ev                                                                                                                                                                                                                                                             
00010d89  _ZN11TaskManager9draw_pageEv                                                                                                                                                                                                                                                     
00010f0b  _ZN11TaskManager9draw_dataEv                                                                                                                                                                                                                                                     
00010f15  _ZN11TaskManager10draw_inputEi                                                                                                                                                                                                                                                   
00010f21  _ZN11TaskManager10draw_resetEv                                                                                                                                                                                                                                                   
00010f2b  _ZN11TaskManager9draw_helpEv                                                                                                                                                                                                                                                     
00011009  _ZN11ErrorLogger12get_instanceEv                                                                                                                                                                                                                                                 
00011033  _ZN11ErrorLogger12create_errorEPKcS1_                                                                                                                                                                                                                                            
00011095  _ZN11ErrorLogger9set_errorEP7error_t                                                                                                                                                                                                                                             
000110a9  _ZN11ErrorLoggerC1Ev                                                                                                                                                                                                                                                             
000110a9  _ZN11ErrorLoggerC2Ev                                                                                                                                                                                                                                                             
000110c3  _ZN11ErrorLogger9draw_pageEv                                                                                                                                                                                                                                                     
0001110d  _ZN11ErrorLogger9draw_dataEv                                                                                                                                                                                                                                                     
000111a9  _ZN11ErrorLogger10draw_inputEi                                                                                                                                                                                                                                                   
000111ef  _ZN11ErrorLogger9draw_helpEv                                                                                                                                                                                                                                                     
000111f9  _ZN11ErrorLogger10draw_resetEv                                                                                                                                                                                                                                                   
000112a9  _ZN14I2cSnifferTaskC1EP7I2cTask                                                                                                                                                                                                                                                  
000112a9  _ZN14I2cSnifferTaskC2EP7I2cTask                                                                                                                                                                                                                                                  
00011313  _ZN14I2cSnifferTask4taskEPS_                                                                                                                                                                                                                                                     
00011417  _ZN14I2cSnifferTask14taskfunwrapperEPv                                                                                                                                                                                                                                           
00011425  _ZN14I2cSnifferTask9draw_pageEv                                                                                                                                                                                                                                                  
00011431  _ZN14I2cSnifferTask9draw_dataEv                                                                                                                                                                                                                                                  
0001143b  _ZN14I2cSnifferTask10draw_inputEi                                                                                                                                                                                                                                                
00011457  _ZN14I2cSnifferTask10draw_resetEv                                                                                                                                                                                                                                                
00011461  _ZN14I2cSnifferTask9draw_helpEv                                                                                                                                                                                                                                                  
00011579  _ZN7AdcTaskC1Ev                                                                                                                                                                                                                                                                  
00011579  _ZN7AdcTaskC2Ev                                                                                                                                                                                                                                                                  
000116c3  _ZN7AdcTask14get_adc_configEPKc                                                                                                                                                                                                                                                  
00011709  _ZN7AdcTask11get_adc_valEP9adc_pin_tPS_                                                                                                                                                                                                                                          
00011723  _ZN7AdcTask14get_adc_structEv                                                                                                                                                                                                                                                    
0001172f  _ZN7AdcTask4taskEPS_                                                                                                                                                                                                                                                             
00011765  _ZN7AdcTask14taskfunwrapperEPv                                                                                                                                                                                                                                                   
000117d1  pxPortInitialiseStack                                                                                                                                                                                                                                                            
0001185d  xPortStartScheduler                                                                                                                                                                                                                                                              
000118f1  vPortEndScheduler                                                                                                                                                                                                                                                                
00011915  vPortEnterCritical                                                                                                                                                                                                                                                               
00011957  vPortExitCritical                                                                                                                                                                                                                                                                
00011983  xPortSysTickHandler                                                                                                                                                                                                                                                              
000119a9  vPortSetupTimerInterrupt                                                                                                                                                                                                                                                         
000119c5  vPortValidateInterruptPriority                                                                                                                                                                                                                                                   
00011ccd  _ZN6GpiObjC1Ev                                                                                                                                                                                                                                                                   
00011ccd  _ZN6GpiObjC2Ev                                                                                                                                                                                                                                                                   
00011df9  _ZN6GpiObj10get_configEPKc                                                                                                                                                                                                                                                       
00011e45  _ZN6GpiObj3getEP10gpio_pin_t                                                                                                                                                                                                                                                     
00011e61  _ZN6GpiObj10get_structEv                                                                                                                                                                                                                                                         
000120b1  __aeabi_dsub                                                                                                                                                                                                                                                                     
000120bb  __aeabi_dadd                                                                                                                                                                                                                                                                     
00012269  USBLibDMAInit                                                                                                                                                                                                                                                                    
000123cd  USBDCDInit                                                                                                                                                                                                                                                                       
0001266d  USBDeviceIntHandlerInternal                                                                                                                                                                                                                                                      
000127bd  USBDeviceConfig                                                                                                                                                                                                                                                                  
00012a41  __aeabi_ddiv                                                                                                                                                                                                                                                                     
00012b77  vListInitialise                                                                                                                                                                                                                                                                  
00012ba7  vListInitialiseItem                                                                                                                                                                                                                                                              
00012bb7  vListInsertEnd                                                                                                                                                                                                                                                                   
00012bf3  vListInsert                                                                                                                                                                                                                                                                      
00012c59  uxListRemove                                                                                                                                                                                                                                                                     
00012dc5  fputs                                                                                                                                                                                                                                                                            
00012ed9  ldexp                                                                                                                                                                                                                                                                            
00012ed9  ldexpl                                                                                                                                                                                                                                                                           
00012ed9  scalbn                                                                                                                                                                                                                                                                           
00012ed9  scalbnl                                                                                                                                                                                                                                                                          
00012fe9  aligned_alloc                                                                                                                                                                                                                                                                    
00012fe9  memalign                                                                                                                                                                                                                                                                         
000130e9  __aeabi_dmul                                                                                                                                                                                                                                                                     
000133bd  free                                                                                                                                                                                                                                                                             
000134a1  USBDCDCCompositeInit                                                                                                                                                                                                                                                             
0001357d  setvbuf                                                                                                                                                                                                                                                                          
00013669  ulPortGetIPSR                                                                                                                                                                                                                                                                    
00013681  xPortPendSVHandler                                                                                                                                                                                                                                                               
000136e1  vPortSVCHandler                                                                                                                                                                                                                                                                  
00013701  vPortStartFirstTask                                                                                                                                                                                                                                                              
00013725  vPortEnableVFP                                                                                                                                                                                                                                                                   
00013735  USBDeviceEnumHandler                                                                                                                                                                                                                                                             
000138e1  _ZN7TextCtl13set_text_modeEj                                                                                                                                                                                                                                                     
000138ef  _ZN7TextCtl10text_colorEj                                                                                                                                                                                                                                                        
000138fd  _ZN7TextCtl15bold_text_colorEj                                                                                                                                                                                                                                                   
0001390b  _ZN7TextCtl9bgd_colorEj                                                                                                                                                                                                                                                          
00013919  _ZN7TextCtl10cursor_posEjj                                                                                                                                                                                                                                                       
0001392b  _ZN7TextCtl15save_cursor_posEv                                                                                                                                                                                                                                                   
00013935  _ZN7TextCtl18restore_cursor_posEv                                                                                                                                                                                                                                                
0001393f  _ZN7TextCtl14clear_terminalEv                                                                                                                                                                                                                                                    
00013949  _ZN7TextCtl10clear_lineEv                                                                                                                                                                                                                                                        
00013953  _ZN7TextCtl13clear_in_lineEv                                                                                                                                                                                                                                                     
0001395d  _ZN7TextCtl16clear_below_lineEv                                                                                                                                                                                                                                                  
00013b45  FPUEnable                                                                                                                                                                                                                                                                        
00013b57  FPUDisable                                                                                                                                                                                                                                                                       
00013b65  FPUStackingEnable                                                                                                                                                                                                                                                                
00013b77  FPULazyStackingEnable                                                                                                                                                                                                                                                            
00013b83  FPUStackingDisable                                                                                                                                                                                                                                                               
00013b8f  FPUHalfPrecisionModeSet                                                                                                                                                                                                                                                          
00013ba9  FPUNaNModeSet                                                                                                                                                                                                                                                                    
00013bc3  FPUFlushToZeroModeSet                                                                                                                                                                                                                                                            
00013bdd  FPURoundingModeSet                                                                                                                                                                                                                                                               
00013e27  _ZNSt3__26vectorIP6I2cMsgNS_9allocatorIS2_EEE6assignIPS2_EENS_9enable_ifIXaasr3std3__221__is_forward_iteratorIT_EE5valuesr3std3__216is_constructibleIS2_JNS_15iterator_traitsIS9_E9referenceEEEE5valueEvE4typeES9_S9_                                                            
00013ed7  _ZNSt3__26vectorIP6SpiMsgNS_9allocatorIS2_EEE6assignIPS2_EENS_9enable_ifIXaasr3std3__221__is_forward_iteratorIT_EE5valuesr3std3__216is_constructibleIS2_JNS_15iterator_traitsIS9_E9referenceEEEE5valueEvE4typeES9_S9_                                                            
00013f87  __aeabi_memcpy                                                                                                                                                                                                                                                                   
00013f87  __aeabi_memcpy4                                                                                                                                                                                                                                                                  
00013f87  __aeabi_memcpy8                                                                                                                                                                                                                                                                  
00013f87  memcpy                                                                                                                                                                                                                                                                           
00014153  __aeabi_uldivmod                                                                                                                                                                                                                                                                 
0001430f  USBDCDCPacketRead                                                                                                                                                                                                                                                                
00014431  USBDeviceConfigAlternate                                                                                                                                                                                                                                                         
00014545  __aeabi_cdcmpeq                                                                                                                                                                                                                                                                  
00014545  __aeabi_cdcmple                                                                                                                                                                                                                                                                  
000145cb  __aeabi_cdrcmple                                                                                                                                                                                                                                                                 
000146cd  fflush                                                                                                                                                                                                                                                                           
00014749  __aeabi_memclr                                                                                                                                                                                                                                                                   
00014749  __aeabi_memclr4                                                                                                                                                                                                                                                                  
00014749  __aeabi_memclr8                                                                                                                                                                                                                                                                  
0001474b  __aeabi_memset                                                                                                                                                                                                                                                                   
0001474b  __aeabi_memset4                                                                                                                                                                                                                                                                  
0001474b  __aeabi_memset8                                                                                                                                                                                                                                                                  
00014751  memset                                                                                                                                                                                                                                                                           
0001483d  __TI_closefile                                                                                                                                                                                                                                                                   
000148b1  ProcessDataFromHost                                                                                                                                                                                                                                                              
00014bc5  HOSTrename                                                                                                                                                                                                                                                                       
00014c31  ProcessDataToHost                                                                                                                                                                                                                                                                
00014c9d  _ZNSt3__26vectorIP11ConsolePageNS_9allocatorIS2_EEE26__swap_out_circular_bufferERNS_14__split_bufferIS2_RS4_EE                                                                                                                                                                   
00014d09  _ZNSt3__26vectorIP6I2cMsgNS_9allocatorIS2_EEE26__swap_out_circular_bufferERNS_14__split_bufferIS2_RS4_EE                                                                                                                                                                         
00014d75  _ZNSt3__26vectorIP6SpiMsgNS_9allocatorIS2_EEE26__swap_out_circular_bufferERNS_14__split_bufferIS2_RS4_EE                                                                                                                                                                         
00014de1  _ZNSt3__26vectorIP7MenuRowNS_9allocatorIS2_EEE26__swap_out_circular_bufferERNS_14__split_bufferIS2_RS4_EE                                                                                                                                                                        
00014e4d  HOSTlseek                                                                                                                                                                                                                                                                        
00014eb5  __TI_decompress_lzss                                                                                                                                                                                                                                                             
00014f1d  USBBufferEventCallback                                                                                                                                                                                                                                                           
00014f81  _ZNSt3__26vectorIP11ConsolePageNS_9allocatorIS2_EEE21__push_back_slow_pathIRKS2_EEvOT_                                                                                                                                                                                           
00014fe5  _ZNSt3__26vectorIP6I2cMsgNS_9allocatorIS2_EEE21__push_back_slow_pathIS2_EEvOT_                                                                                                                                                                                                   
00015049  _ZNSt3__26vectorIP6SpiMsgNS_9allocatorIS2_EEE21__push_back_slow_pathIS2_EEvOT_                                                                                                                                                                                                   
000150ad  _ZNSt3__26vectorIP7MenuRowNS_9allocatorIS2_EEE21__push_back_slow_pathIRKS2_EEvOT_                                                                                                                                                                                                
00015111  frexp                                                                                                                                                                                                                                                                            
00015111  frexpl                                                                                                                                                                                                                                                                           
00015175  fseek                                                                                                                                                                                                                                                                            
0001523d  _ZNSt3__26vectorIP6I2cMsgNS_9allocatorIS2_EEE9push_backEOS2_                                                                                                                                                                                                                     
0001529f  _ZNSt3__26vectorIP6SpiMsgNS_9allocatorIS2_EEE9push_backEOS2_                                                                                                                                                                                                                     
00015301  __TI_wrt_ok                                                                                                                                                                                                                                                                      
00015365  HOSTopen                                                                                                                                                                                                                                                                         
000153c5  USBDCDCPacketWrite                                                                                                                                                                                                                                                               
00015485  _ZNSt3__214__split_bufferIP11ConsolePageRNS_9allocatorIS2_EEEC1EjjS5_                                                                                                                                                                                                            
000154e5  _ZNSt3__214__split_bufferIP6I2cMsgRNS_9allocatorIS2_EEEC1EjjS5_                                                                                                                                                                                                                  
00015545  _ZNSt3__214__split_bufferIP6SpiMsgRNS_9allocatorIS2_EEEC1EjjS5_                                                                                                                                                                                                                  
000155a5  _ZNSt3__214__split_bufferIP7MenuRowRNS_9allocatorIS2_EEEC1EjjS5_                                                                                                                                                                                                                 
00015605  _Z17int_to_bin_stringjPh                                                                                                                                                                                                                                                         
00015665  close                                                                                                                                                                                                                                                                            
000156c1  HOSTread                                                                                                                                                                                                                                                                         
00015719  HOSTwrite                                                                                                                                                                                                                                                                        
00015771  _ZNKSt3__26vectorIP11ConsolePageNS_9allocatorIS2_EEE17__annotate_deleteEv                                                                                                                                                                                                        
000157c7  _ZNKSt3__26vectorIP6I2cMsgNS_9allocatorIS2_EEE17__annotate_deleteEv                                                                                                                                                                                                              
0001581d  _ZNKSt3__26vectorIP6SpiMsgNS_9allocatorIS2_EEE17__annotate_deleteEv                                                                                                                                                                                                              
00015873  _ZNKSt3__26vectorIP7MenuRowNS_9allocatorIS2_EEE17__annotate_deleteEv                                                                                                                                                                                                             
000158c9  _ZNSt3__26vectorIP11ConsolePageNS_9allocatorIS2_EEE9push_backERKS2_                                                                                                                                                                                                              
0001591f  _ZNSt3__26vectorIP7MenuRowNS_9allocatorIS2_EEE9push_backERKS2_                                                                                                                                                                                                                   
00015a21  _ZNKSt3__26vectorIP11ConsolePageNS_9allocatorIS2_EEE14__annotate_newEj                                                                                                                                                                                                           
00015a75  _ZNKSt3__26vectorIP6I2cMsgNS_9allocatorIS2_EEE14__annotate_newEj                                                                                                                                                                                                                 
00015ac9  _ZNKSt3__26vectorIP6SpiMsgNS_9allocatorIS2_EEE14__annotate_newEj                                                                                                                                                                                                                 
00015b1d  _ZNKSt3__26vectorIP7MenuRowNS_9allocatorIS2_EEE14__annotate_newEj                                                                                                                                                                                                                
00015b71  __TI_ltoa                                                                                                                                                                                                                                                                        
00015bc5  ULPIConfigSet                                                                                                                                                                                                                                                                    
00015c17  _ZNKSt3__26vectorIP6I2cMsgNS_9allocatorIS2_EEE17__annotate_shrinkEj                                                                                                                                                                                                              
00015c69  _ZNKSt3__26vectorIP6SpiMsgNS_9allocatorIS2_EEE17__annotate_shrinkEj                                                                                                                                                                                                              
00015d0d  USBDCDCInit                                                                                                                                                                                                                                                                      
00015d5d  USBDCDConfigDescGet                                                                                                                                                                                                                                                              
00015dad  USBDeviceResumeTickHandler                                                                                                                                                                                                                                                       
00015e95  __TI_doflush                                                                                                                                                                                                                                                                     
00015ee1  atoi                                                                                                                                                                                                                                                                             
00016057  _ZNKSt3__26vectorIP11ConsolePageNS_9allocatorIS2_EEE11__recommendEj                                                                                                                                                                                                              
000160a1  _ZNKSt3__26vectorIP6I2cMsgNS_9allocatorIS2_EEE11__recommendEj                                                                                                                                                                                                                    
000160eb  _ZNKSt3__26vectorIP6SpiMsgNS_9allocatorIS2_EEE11__recommendEj                                                                                                                                                                                                                    
00016135  _ZNKSt3__26vectorIP7MenuRowNS_9allocatorIS2_EEE11__recommendEj                                                                                                                                                                                                                   
000161c9  USBDCDDeviceInfoInit                                                                                                                                                                                                                                                             
00016211  USBDeviceEnumResetHandler                                                                                                                                                                                                                                                        
00016259  _ZNSt3__26vectorIP6I2cMsgNS_9allocatorIS2_EEE8allocateEj                                                                                                                                                                                                                         
000162a1  _ZNSt3__26vectorIP6SpiMsgNS_9allocatorIS2_EEE8allocateEj                                                                                                                                                                                                                         
000162e9  exit                                                                                                                                                                                                                                                                             
00016331  __aeabi_d2iz                                                                                                                                                                                                                                                                     
00016379  HOSTclose                                                                                                                                                                                                                                                                        
000163bd  HOSTunlink                                                                                                                                                                                                                                                                       
00016445  __TI_auto_init_nobinit_nopinit                                                                                                                                                                                                                                                   
00016489  getdevice                                                                                                                                                                                                                                                                        
000164cd  __aeabi_d2uiz                                                                                                                                                                                                                                                                    
00016511  _ZNSt3__213__vector_baseIP6I2cMsgNS_9allocatorIS2_EEE17__destruct_at_endEPS2_                                                                                                                                                                                                    
00016551  _ZNSt3__213__vector_baseIP6SpiMsgNS_9allocatorIS2_EEE17__destruct_at_endEPS2_                                                                                                                                                                                                    
00016591  _ZNSt3__26vectorIP6I2cMsgNS_9allocatorIS2_EEE10deallocateEv                                                                                                                                                                                                                      
000165d1  _ZNSt3__26vectorIP6SpiMsgNS_9allocatorIS2_EEE10deallocateEv                                                                                                                                                                                                                      
00016611  __aeabi_uidiv                                                                                                                                                                                                                                                                    
00016611  __aeabi_uidivmod                                                                                                                                                                                                                                                                 
00016651  sprintf                                                                                                                                                                                                                                                                          
000166cf  CPUcpsid                                                                                                                                                                                                                                                                         
000166db  CPUprimask                                                                                                                                                                                                                                                                       
000166e5  CPUcpsie                                                                                                                                                                                                                                                                         
000166f1  CPUwfi                                                                                                                                                                                                                                                                           
000166f5  CPUbasepriSet                                                                                                                                                                                                                                                                    
00016703  CPUbasepriGet                                                                                                                                                                                                                                                                    
0001670d  _ZNSt3__216allocator_traitsINS_9allocatorIP11ConsolePageEEE20__construct_backwardIS3_EENS_9enable_ifIXaaoosr3std3__27is_sameIS4_NS1_IT_EEEE5valuentsr3std3__215__has_constructIS4_PS8_JS8_EEE5valuesr3std3__231is_trivially_move_constructibleIS8_EE5valueEvE4typeERS4_SA_SA_RSA_
00016749  _ZNSt3__216allocator_traitsINS_9allocatorIP6I2cMsgEEE20__construct_backwardIS3_EENS_9enable_ifIXaaoosr3std3__27is_sameIS4_NS1_IT_EEEE5valuentsr3std3__215__has_constructIS4_PS8_JS8_EEE5valuesr3std3__231is_trivially_move_constructibleIS8_EE5valueEvE4typeERS4_SA_SA_RSA_      
00016785  _ZNSt3__216allocator_traitsINS_9allocatorIP6I2cMsgEEE25__construct_range_forwardIS3_EENS_9enable_ifIXaaoosr3std3__27is_sameIS4_NS1_IT_EEEE5valuentsr3std3__215__has_constructIS4_PS8_JS8_EEE5valuesr3std3__231is_trivially_move_constructibleIS8_EE5valueEvE4typeERS4_SA_SA_RSA_ 
000167c1  _ZNSt3__216allocator_traitsINS_9allocatorIP6SpiMsgEEE20__construct_backwardIS3_EENS_9enable_ifIXaaoosr3std3__27is_sameIS4_NS1_IT_EEEE5valuentsr3std3__215__has_constructIS4_PS8_JS8_EEE5valuesr3std3__231is_trivially_move_constructibleIS8_EE5valueEvE4typeERS4_SA_SA_RSA_      
000167fd  _ZNSt3__216allocator_traitsINS_9allocatorIP6SpiMsgEEE25__construct_range_forwardIS3_EENS_9enable_ifIXaaoosr3std3__27is_sameIS4_NS1_IT_EEEE5valuentsr3std3__215__has_constructIS4_PS8_JS8_EEE5valuesr3std3__231is_trivially_move_constructibleIS8_EE5valueEvE4typeERS4_SA_SA_RSA_ 
00016839  _ZNSt3__216allocator_traitsINS_9allocatorIP7MenuRowEEE20__construct_backwardIS3_EENS_9enable_ifIXaaoosr3std3__27is_sameIS4_NS1_IT_EEEE5valuentsr3std3__215__has_constructIS4_PS8_JS8_EEE5valuesr3std3__231is_trivially_move_constructibleIS8_EE5valueEvE4typeERS4_SA_SA_RSA_     
000168b1  main                                                                                                                                                                                                                                                                             
000168ed  InternalUSBRegisterTickHandler                                                                                                                                                                                                                                                   
00016925  InternalUSBStartOfFrameTick                                                                                                                                                                                                                                                      
00016995  USBDCDConfigGetInterfaceEndpoint                                                                                                                                                                                                                                                 
000169cd  USBRingBufAdvanceWrite                                                                                                                                                                                                                                                           
00016a05  _ZNSt3__26vectorIP6I2cMsgNS_9allocatorIS2_EEE18__construct_at_endIPS2_EENS_9enable_ifIXsr3std3__221__is_forward_iteratorIT_EE5valueEvE4typeES9_S9_j                                                                                                                              
00016a3d  _ZNSt3__26vectorIP6SpiMsgNS_9allocatorIS2_EEE18__construct_at_endIPS2_EENS_9enable_ifIXsr3std3__221__is_forward_iteratorIT_EE5valueEvE4typeES9_S9_j                                                                                                                              
00016a75  __TI_writemsg                                                                                                                                                                                                                                                                    
00016aa3  C$$IO$$                                                                                                                                                                                                                                                                          
00016aad  _ZNSt3__214__split_bufferIP11ConsolePageRNS_9allocatorIS2_EEE17__destruct_at_endEPS2_NS_17integral_constantIbLb0EEE                                                                                                                                                              
00016ae3  _ZNSt3__214__split_bufferIP6I2cMsgRNS_9allocatorIS2_EEE17__destruct_at_endEPS2_NS_17integral_constantIbLb0EEE                                                                                                                                                                    
00016b19  _ZNSt3__214__split_bufferIP6SpiMsgRNS_9allocatorIS2_EEE17__destruct_at_endEPS2_NS_17integral_constantIbLb0EEE                                                                                                                                                                    
00016b4f  _ZNSt3__214__split_bufferIP7MenuRowRNS_9allocatorIS2_EEE17__destruct_at_endEPS2_NS_17integral_constantIbLb0EEE                                                                                                                                                                   
00016b85  strncpy                                                                                                                                                                                                                                                                          
00016c25  __TI_cleanup                                                                                                                                                                                                                                                                     
00016c59  __TI_readmsg                                                                                                                                                                                                                                                                     
00016c8d  _c_int00_noargs                                                                                                                                                                                                                                                                  
00016cf5  ProcessNotificationToHost                                                                                                                                                                                                                                                        
00016d27  _ZNSt3__26__copyIP6I2cMsgS2_EENS_9enable_ifIXaasr3std3__27is_sameINS_12remove_constIT_E4typeET0_EE5valuesr3std3__228is_trivially_copy_assignableIS8_EE5valueEPS8_E4typeEPS5_SC_S9_                                                                                               
00016d59  _ZNSt3__26__copyIP6SpiMsgS2_EENS_9enable_ifIXaasr3std3__27is_sameINS_12remove_constIT_E4typeET0_EE5valuesr3std3__228is_trivially_copy_assignableIS8_EE5valueEPS8_E4typeEPS5_SC_S9_                                                                                               
00016ded  InternalUSBTickInit                                                                                                                                                                                                                                                              
00016e4d  finddevice                                                                                                                                                                                                                                                                       
00016e7d  _Znwj                                                                                                                                                                                                                                                                            
00016e89  _Znaj                                                                                                                                                                                                                                                                            
00016e95  _ZdlPv                                                                                                                                                                                                                                                                           
00016ea1  _ZdaPv                                                                                                                                                                                                                                                                           
00016ead  USBBufferWrite                                                                                                                                                                                                                                                                   
00016edb  USBDCDCRxPacketAvailable                                                                                                                                                                                                                                                         
00016f37  _ZNSt3__214__split_bufferIP11ConsolePageRNS_9allocatorIS2_EEED1Ev                                                                                                                                                                                                                
00016f65  _ZNSt3__214__split_bufferIP6I2cMsgRNS_9allocatorIS2_EEED1Ev                                                                                                                                                                                                                      
00016f93  _ZNSt3__214__split_bufferIP6SpiMsgRNS_9allocatorIS2_EEED1Ev                                                                                                                                                                                                                      
00016fc1  _ZNSt3__214__split_bufferIP7MenuRowRNS_9allocatorIS2_EEED1Ev                                                                                                                                                                                                                     
00016fef  _ZNSt3__29allocatorIP11ConsolePageE9constructIS2_JRKS2_EEEvPT_DpOT0_                                                                                                                                                                                                             
0001701d  _ZNSt3__29allocatorIP6I2cMsgE9constructIS2_JS2_EEEvPT_DpOT0_                                                                                                                                                                                                                     
0001704b  _ZNSt3__29allocatorIP6SpiMsgE9constructIS2_JS2_EEEvPT_DpOT0_                                                                                                                                                                                                                     
00017079  _ZNSt3__29allocatorIP7MenuRowE9constructIS2_JRKS2_EEEvPT_DpOT0_                                                                                                                                                                                                                  
000170a7  __aeabi_i2d                                                                                                                                                                                                                                                                      
000170d5  USBDCDConfigDescGetNum                                                                                                                                                                                                                                                           
00017101  USBDescGet                                                                                                                                                                                                                                                                       
00017159  remove                                                                                                                                                                                                                                                                           
00017159  unlink                                                                                                                                                                                                                                                                           
000171af  USBDCDCSerialStateChange                                                                                                                                                                                                                                                         
000171d9  USBDescGetNum                                                                                                                                                                                                                                                                    
00017203  _ZNSt3__217__compressed_pairIPP11ConsolePageRNS_9allocatorIS2_EEEC1IDnS6_EEOT_OT0_                                                                                                                                                                                               
0001722d  _ZNSt3__217__compressed_pairIPP6I2cMsgRNS_9allocatorIS2_EEEC1IDnS6_EEOT_OT0_                                                                                                                                                                                                     
00017257  _ZNSt3__217__compressed_pairIPP6SpiMsgRNS_9allocatorIS2_EEEC1IDnS6_EEOT_OT0_                                                                                                                                                                                                     
00017281  _ZNSt3__217__compressed_pairIPP7MenuRowRNS_9allocatorIS2_EEEC1IDnS6_EEOT_OT0_                                                                                                                                                                                                    
000172ab  _ZNSt3__24copyIPP6I2cMsgS3_EET0_T_S5_S4_                                                                                                                                                                                                                                         
000172d5  _ZNSt3__24copyIPP6SpiMsgS3_EET0_T_S5_S4_                                                                                                                                                                                                                                         
000172ff  _ZNSt3__24swapIPP11ConsolePageEENS_9enable_ifIXaasr3std3__221is_move_constructibleIT_EE5valuesr3std3__218is_move_assignableIS5_EE5valueEvE4typeERS5_S8_                                                                                                                          
00017329  _ZNSt3__24swapIPP6I2cMsgEENS_9enable_ifIXaasr3std3__221is_move_constructibleIT_EE5valuesr3std3__218is_move_assignableIS5_EE5valueEvE4typeERS5_S8_                                                                                                                                
00017353  _ZNSt3__24swapIPP6SpiMsgEENS_9enable_ifIXaasr3std3__221is_move_constructibleIT_EE5valuesr3std3__218is_move_assignableIS5_EE5valueEvE4typeERS5_S8_                                                                                                                                
0001737d  _ZNSt3__24swapIPP7MenuRowEENS_9enable_ifIXaasr3std3__221is_move_constructibleIT_EE5valuesr3std3__218is_move_assignableIS5_EE5valueEvE4typeERS5_S8_                                                                                                                               
000173a7  vApplicationMallocFailedHook                                                                                                                                                                                                                                                     
000173b7  vApplicationIdleHook                                                                                                                                                                                                                                                             
000173b9  vApplicationStackOverflowHook                                                                                                                                                                                                                                                    
000173d1  USBBufferRead                                                                                                                                                                                                                                                                    
00017421  _ZNSt3__213__vector_baseIP11ConsolePageNS_9allocatorIS2_EEEC1Ev                                                                                                                                                                                                                  
00017449  _ZNSt3__213__vector_baseIP6I2cMsgNS_9allocatorIS2_EEEC1Ev                                                                                                                                                                                                                        
00017471  _ZNSt3__213__vector_baseIP6SpiMsgNS_9allocatorIS2_EEEC1Ev                                                                                                                                                                                                                        
00017499  _ZNSt3__213__vector_baseIP7MenuRowNS_9allocatorIS2_EEEC1Ev                                                                                                                                                                                                                       
000174c1  _ZNSt3__26vectorIP6I2cMsgNS_9allocatorIS2_EEE17__destruct_at_endEPS2_                                                                                                                                                                                                            
000174e9  _ZNSt3__26vectorIP6I2cMsgNS_9allocatorIS2_EEEaSERKS5_                                                                                                                                                                                                                            
00017511  _ZNSt3__26vectorIP6SpiMsgNS_9allocatorIS2_EEE17__destruct_at_endEPS2_                                                                                                                                                                                                            
00017539  _ZNSt3__26vectorIP6SpiMsgNS_9allocatorIS2_EEEaSERKS5_                                                                                                                                                                                                                            
00017561  _ZNSt3__29allocatorIP11ConsolePageE8allocateEjPKv                                                                                                                                                                                                                                
00017589  _ZNSt3__29allocatorIP6I2cMsgE8allocateEjPKv                                                                                                                                                                                                                                      
000175b1  _ZNSt3__29allocatorIP6SpiMsgE8allocateEjPKv                                                                                                                                                                                                                                      
000175d9  _ZNSt3__29allocatorIP7MenuRowE8allocateEjPKv                                                                                                                                                                                                                                     
00017629  lseek                                                                                                                                                                                                                                                                            
00017651  memmove                                                                                                                                                                                                                                                                          
00017679  write                                                                                                                                                                                                                                                                            
000176e9  USBStackModeSet                                                                                                                                                                                                                                                                  
0001770d  _ZNKSt3__26vectorIP11ConsolePageNS_9allocatorIS2_EEE8max_sizeEv                                                                                                                                                                                                                  
00017731  _ZNKSt3__26vectorIP6I2cMsgNS_9allocatorIS2_EEE8max_sizeEv                                                                                                                                                                                                                        
00017755  _ZNKSt3__26vectorIP6SpiMsgNS_9allocatorIS2_EEE8max_sizeEv                                                                                                                                                                                                                        
00017779  _ZNKSt3__26vectorIP7MenuRowNS_9allocatorIS2_EEE8max_sizeEv                                                                                                                                                                                                                       
0001779d  _ZNSt3__216allocator_traitsINS_9allocatorIP11ConsolePageEEE11__constructIS3_JRKS3_EEEvNS_17integral_constantIbLb1EEERS4_PT_DpOT0_                                                                                                                                                
000177c1  _ZNSt3__216allocator_traitsINS_9allocatorIP11ConsolePageEEE9constructIS3_JRKS3_EEEvRS4_PT_DpOT0_                                                                                                                                                                                 
000177e5  _ZNSt3__216allocator_traitsINS_9allocatorIP6I2cMsgEEE11__constructIS3_JS3_EEEvNS_17integral_constantIbLb1EEERS4_PT_DpOT0_                                                                                                                                                        
00017809  _ZNSt3__216allocator_traitsINS_9allocatorIP6I2cMsgEEE9constructIS3_JS3_EEEvRS4_PT_DpOT0_                                                                                                                                                                                         
0001782d  _ZNSt3__216allocator_traitsINS_9allocatorIP6SpiMsgEEE11__constructIS3_JS3_EEEvNS_17integral_constantIbLb1EEERS4_PT_DpOT0_                                                                                                                                                        
00017851  _ZNSt3__216allocator_traitsINS_9allocatorIP6SpiMsgEEE9constructIS3_JS3_EEEvRS4_PT_DpOT0_                                                                                                                                                                                         
00017875  _ZNSt3__216allocator_traitsINS_9allocatorIP7MenuRowEEE11__constructIS3_JRKS3_EEEvNS_17integral_constantIbLb1EEERS4_PT_DpOT0_                                                                                                                                                     
00017899  _ZNSt3__216allocator_traitsINS_9allocatorIP7MenuRowEEE9constructIS3_JRKS3_EEEvRS4_PT_DpOT0_                                                                                                                                                                                      
000178df  _ZNSt3__26vectorIP6I2cMsgNS_9allocatorIS2_EEE5clearEv                                                                                                                                                                                                                            
00017901  _ZNSt3__26vectorIP6SpiMsgNS_9allocatorIS2_EEE5clearEv                                                                                                                                                                                                                            
000179a5  USBRingBufAdvanceRead                                                                                                                                                                                                                                                            
000179c5  memchr                                                                                                                                                                                                                                                                           
000179e5  __aeabi_ui2d                                                                                                                                                                                                                                                                     
00017a05  USBRingBufContigFree                                                                                                                                                                                                                                                             
00017a23  _ZNKSt3__26__lessIjjEclERKjS3_                                                                                                                                                                                                                                                   
00017a41  _ZNSt3__217__compressed_pairIPP11ConsolePageNS_9allocatorIS2_EEEC1IDnLb1EEEOT_                                                                                                                                                                                                   
00017a5f  _ZNSt3__217__compressed_pairIPP6I2cMsgNS_9allocatorIS2_EEEC1IDnLb1EEEOT_                                                                                                                                                                                                         
00017a7d  _ZNSt3__217__compressed_pairIPP6SpiMsgNS_9allocatorIS2_EEEC1IDnLb1EEEOT_                                                                                                                                                                                                         
00017a9b  _ZNSt3__217__compressed_pairIPP7MenuRowNS_9allocatorIS2_EEEC1IDnLb1EEEOT_                                                                                                                                                                                                        
00017ab9  _ZNSt3__23maxIjNS_6__lessIjjEEEERKT_S5_S5_T0_                                                                                                                                                                                                                                    
00017ad7  _ZNSt3__23minIjNS_6__lessIjjEEEERKT_S5_S5_T0_                                                                                                                                                                                                                                    
00017af5  USBDCDConfigGetInterface                                                                                                                                                                                                                                                         
00017b11  USBDCDStallEP0                                                                                                                                                                                                                                                                   
00017b2d  USBRingBufRead                                                                                                                                                                                                                                                                   
00017b49  USBRingBufWrite                                                                                                                                                                                                                                                                  
00017b65  _ZNSt3__29__advanceIPP6I2cMsgEEvRT_NS_15iterator_traitsIS4_E15difference_typeENS_26random_access_iterator_tagE                                                                                                                                                                   
00017b81  _ZNSt3__29__advanceIPP6SpiMsgEEvRT_NS_15iterator_traitsIS4_E15difference_typeENS_26random_access_iterator_tagE                                                                                                                                                                   
00017b9d  _abort_msg                                                                                                                                                                                                                                                                       
00017bd5  memccpy                                                                                                                                                                                                                                                                          
00017c0b  USBDCDConfigDescGetSize                                                                                                                                                                                                                                                          
00017c25  copysign                                                                                                                                                                                                                                                                         
00017c25  copysignl                                                                                                                                                                                                                                                                        
00017c59  USB0DeviceIntHandler                                                                                                                                                                                                                                                             
00017c71  USBBufferInit                                                                                                                                                                                                                                                                    
00017c89  USBDCDFeatureGet                                                                                                                                                                                                                                                                 
00017cd1  _ZNSt3__210__distanceIPP6I2cMsgEENS_15iterator_traitsIT_E15difference_typeES5_S5_NS_26random_access_iterator_tagE                                                                                                                                                                
00017ce9  _ZNSt3__210__distanceIPP6SpiMsgEENS_15iterator_traitsIT_E15difference_typeES5_S5_NS_26random_access_iterator_tagE                                                                                                                                                                
00017d19  strcmp                                                                                                                                                                                                                                                                           
00017d5d  USBRingBufFlush                                                                                                                                                                                                                                                                  
00017d73  USBRingBufReadOne                                                                                                                                                                                                                                                                
00017d89  USBRingBufUsed                                                                                                                                                                                                                                                                   
00017d9f  _ZNKSt3__213__vector_baseIP11ConsolePageNS_9allocatorIS2_EEE8capacityEv                                                                                                                                                                                                          
00017db5  _ZNKSt3__213__vector_baseIP6I2cMsgNS_9allocatorIS2_EEE8capacityEv                                                                                                                                                                                                                
00017dcb  _ZNKSt3__213__vector_baseIP6SpiMsgNS_9allocatorIS2_EEE8capacityEv                                                                                                                                                                                                                
00017de1  _ZNKSt3__213__vector_baseIP7MenuRowNS_9allocatorIS2_EEE8capacityEv                                                                                                                                                                                                               
00017df7  _ZNKSt3__214__split_bufferIP11ConsolePageRNS_9allocatorIS2_EEE8capacityEv                                                                                                                                                                                                        
00017e0d  _ZNKSt3__214__split_bufferIP6I2cMsgRNS_9allocatorIS2_EEE8capacityEv                                                                                                                                                                                                              
00017e23  _ZNKSt3__214__split_bufferIP6SpiMsgRNS_9allocatorIS2_EEE8capacityEv                                                                                                                                                                                                              
00017e39  _ZNKSt3__214__split_bufferIP7MenuRowRNS_9allocatorIS2_EEE8capacityEv                                                                                                                                                                                                             
00017e4f  _ZNKSt3__26vectorIP11ConsolePageNS_9allocatorIS2_EEE4sizeEv                                                                                                                                                                                                                      
00017e65  _ZNKSt3__26vectorIP6I2cMsgNS_9allocatorIS2_EEE4sizeEv                                                                                                                                                                                                                            
00017e7b  _ZNKSt3__26vectorIP6SpiMsgNS_9allocatorIS2_EEE4sizeEv                                                                                                                                                                                                                            
00017e91  _ZNKSt3__26vectorIP7MenuRowNS_9allocatorIS2_EEE4sizeEv                                                                                                                                                                                                                           
00017ea7  _ZNSt3__222__compressed_pair_elemIPP11ConsolePageLi0ELb0EEC1IDnvEEOT_                                                                                                                                                                                                            
00017ebd  _ZNSt3__222__compressed_pair_elemIPP6I2cMsgLi0ELb0EEC1IDnvEEOT_                                                                                                                                                                                                                  
00017ed3  _ZNSt3__222__compressed_pair_elemIPP6SpiMsgLi0ELb0EEC1IDnvEEOT_                                                                                                                                                                                                                  
00017ee9  _ZNSt3__222__compressed_pair_elemIPP7MenuRowLi0ELb0EEC1IDnvEEOT_                                                                                                                                                                                                                 
00017eff  _ZNSt3__26vectorIP11ConsolePageNS_9allocatorIS2_EEEixEj                                                                                                                                                                                                                          
00017f15  _ZNSt3__26vectorIP6I2cMsgNS_9allocatorIS2_EEEixEj                                                                                                                                                                                                                                
00017f2b  _ZNSt3__26vectorIP6SpiMsgNS_9allocatorIS2_EEEixEj                                                                                                                                                                                                                                
00017f41  _ZNSt3__26vectorIP7MenuRowNS_9allocatorIS2_EEEixEj                                                                                                                                                                                                                               
00017f57  strchr                                                                                                                                                                                                                                                                           
00017f81  USBDCDCTxPacketAvailable                                                                                                                                                                                                                                                         
00017f95  USBDCDRequestDataEP0                                                                                                                                                                                                                                                             
00017fa9  USBDCDSendDataEP0                                                                                                                                                                                                                                                                
00017fbd  _ZNSt3__213__vector_baseIP6I2cMsgNS_9allocatorIS2_EEE19__copy_assign_allocERKS5_                                                                                                                                                                                                 
00017fd1  _ZNSt3__213__vector_baseIP6SpiMsgNS_9allocatorIS2_EEE19__copy_assign_allocERKS5_                                                                                                                                                                                                 
00017fe5  _ZNSt3__214__split_bufferIP11ConsolePageRNS_9allocatorIS2_EEE17__destruct_at_endEPS2_                                                                                                                                                                                            
00017ff9  _ZNSt3__214__split_bufferIP6I2cMsgRNS_9allocatorIS2_EEE17__destruct_at_endEPS2_                                                                                                                                                                                                  
0001800d  _ZNSt3__214__split_bufferIP6SpiMsgRNS_9allocatorIS2_EEE17__destruct_at_endEPS2_                                                                                                                                                                                                  
00018021  _ZNSt3__214__split_bufferIP7MenuRowRNS_9allocatorIS2_EEE17__destruct_at_endEPS2_                                                                                                                                                                                                 
00018035  _ZNSt3__216allocator_traitsINS_9allocatorIP11ConsolePageEEE10deallocateERS4_PS3_j                                                                                                                                                                                                
00018049  _ZNSt3__216allocator_traitsINS_9allocatorIP11ConsolePageEEE7destroyIS3_EEvRS4_PT_                                                                                                                                                                                                
0001805d  _ZNSt3__216allocator_traitsINS_9allocatorIP11ConsolePageEEE9__destroyIS3_EEvNS_17integral_constantIbLb1EEERS4_PT_                                                                                                                                                                
00018071  _ZNSt3__216allocator_traitsINS_9allocatorIP6I2cMsgEEE10deallocateERS4_PS3_j                                                                                                                                                                                                      
00018085  _ZNSt3__216allocator_traitsINS_9allocatorIP6I2cMsgEEE7destroyIS3_EEvRS4_PT_                                                                                                                                                                                                      
00018099  _ZNSt3__216allocator_traitsINS_9allocatorIP6I2cMsgEEE9__destroyIS3_EEvNS_17integral_constantIbLb1EEERS4_PT_                                                                                                                                                                      
000180ad  _ZNSt3__216allocator_traitsINS_9allocatorIP6SpiMsgEEE10deallocateERS4_PS3_j                                                                                                                                                                                                      
000180c1  _ZNSt3__216allocator_traitsINS_9allocatorIP6SpiMsgEEE7destroyIS3_EEvRS4_PT_                                                                                                                                                                                                      
000180d5  _ZNSt3__216allocator_traitsINS_9allocatorIP6SpiMsgEEE9__destroyIS3_EEvNS_17integral_constantIbLb1EEERS4_PT_                                                                                                                                                                      
000180e9  _ZNSt3__216allocator_traitsINS_9allocatorIP7MenuRowEEE10deallocateERS4_PS3_j                                                                                                                                                                                                     
000180fd  _ZNSt3__216allocator_traitsINS_9allocatorIP7MenuRowEEE7destroyIS3_EEvRS4_PT_                                                                                                                                                                                                     
00018111  _ZNSt3__216allocator_traitsINS_9allocatorIP7MenuRowEEE9__destroyIS3_EEvNS_17integral_constantIbLb1EEERS4_PT_                                                                                                                                                                     
00018125  _ZNSt3__222__compressed_pair_elemIRNS_9allocatorIP11ConsolePageEELi1ELb0EEC1IS5_vEEOT_                                                                                                                                                                                           
00018139  _ZNSt3__222__compressed_pair_elemIRNS_9allocatorIP6I2cMsgEELi1ELb0EEC1IS5_vEEOT_                                                                                                                                                                                                 
0001814d  _ZNSt3__222__compressed_pair_elemIRNS_9allocatorIP6SpiMsgEELi1ELb0EEC1IS5_vEEOT_                                                                                                                                                                                                 
00018161  _ZNSt3__222__compressed_pair_elemIRNS_9allocatorIP7MenuRowEELi1ELb0EEC1IS5_vEEOT_                                                                                                                                                                                                
00018175  _ZNSt3__23maxIjEERKT_S3_S3_                                                                                                                                                                                                                                                      
00018189  _ZNSt3__23minIjEERKT_S3_S3_                                                                                                                                                                                                                                                      
0001819d  _ZNSt3__27advanceIPP6I2cMsgEEvRT_NS_15iterator_traitsIS4_E15difference_typeE                                                                                                                                                                                                     
000181b1  _ZNSt3__27advanceIPP6SpiMsgEEvRT_NS_15iterator_traitsIS4_E15difference_typeE                                                                                                                                                                                                     
000181c5  _ZNSt3__28distanceIPP6I2cMsgEENS_15iterator_traitsIT_E15difference_typeES5_S5_                                                                                                                                                                                                   
000181d9  _ZNSt3__28distanceIPP6SpiMsgEENS_15iterator_traitsIT_E15difference_typeES5_S5_                                                                                                                                                                                                   
000181ed  strcpy                                                                                                                                                                                                                                                                           
00018201  strlen                                                                                                                                                                                                                                                                           
00018239  USBRingBufFree                                                                                                                                                                                                                                                                   
0001824b  _ZNSt3__216allocator_traitsINS_9allocatorIP11ConsolePageEEE8allocateERS4_j                                                                                                                                                                                                       
0001825d  _ZNSt3__216allocator_traitsINS_9allocatorIP6I2cMsgEEE8allocateERS4_j                                                                                                                                                                                                             
0001826f  _ZNSt3__216allocator_traitsINS_9allocatorIP6SpiMsgEEE8allocateERS4_j                                                                                                                                                                                                             
00018281  _ZNSt3__216allocator_traitsINS_9allocatorIP7MenuRowEEE8allocateERS4_j                                                                                                                                                                                                            
00018293  wcslen                                                                                                                                                                                                                                                                           
000182a5  USBRingBufContigUsed                                                                                                                                                                                                                                                             
000182b5  USBRingBufWriteOne                                                                                                                                                                                                                                                               
000182c5  _ZNKSt3__26vectorIP11ConsolePageNS_9allocatorIS2_EEE31__annotate_contiguous_containerEPKvS7_S7_S7_                                                                                                                                                                               
000182d5  _ZNKSt3__26vectorIP6I2cMsgNS_9allocatorIS2_EEE31__annotate_contiguous_containerEPKvS7_S7_S7_                                                                                                                                                                                     
000182e5  _ZNKSt3__26vectorIP6SpiMsgNS_9allocatorIS2_EEE31__annotate_contiguous_containerEPKvS7_S7_S7_                                                                                                                                                                                     
000182f5  _ZNKSt3__26vectorIP7MenuRowNS_9allocatorIS2_EEE31__annotate_contiguous_containerEPKvS7_S7_S7_                                                                                                                                                                                    
00018305  _ZNSt3__213__vector_baseIP6I2cMsgNS_9allocatorIS2_EEE19__copy_assign_allocERKS5_NS_17integral_constantIbLb0EEE                                                                                                                                                                   
00018315  _ZNSt3__213__vector_baseIP6I2cMsgNS_9allocatorIS2_EEE5clearEv                                                                                                                                                                                                                    
00018325  _ZNSt3__213__vector_baseIP6SpiMsgNS_9allocatorIS2_EEE19__copy_assign_allocERKS5_NS_17integral_constantIbLb0EEE                                                                                                                                                                   
00018335  _ZNSt3__213__vector_baseIP6SpiMsgNS_9allocatorIS2_EEE5clearEv                                                                                                                                                                                                                    
00018345  _ZNSt3__214__split_bufferIP11ConsolePageRNS_9allocatorIS2_EEE5clearEv                                                                                                                                                                                                            
00018355  _ZNSt3__214__split_bufferIP6I2cMsgRNS_9allocatorIS2_EEE5clearEv                                                                                                                                                                                                                  
00018365  _ZNSt3__214__split_bufferIP6SpiMsgRNS_9allocatorIS2_EEE5clearEv                                                                                                                                                                                                                  
00018375  _ZNSt3__214__split_bufferIP7MenuRowRNS_9allocatorIS2_EEE5clearEv                                                                                                                                                                                                                 
00018385  _ZNSt3__216allocator_traitsINS_9allocatorIP11ConsolePageEEE10__max_sizeENS_17integral_constantIbLb1EEERKS4_                                                                                                                                                                      
00018395  _ZNSt3__216allocator_traitsINS_9allocatorIP11ConsolePageEEE8max_sizeERKS4_                                                                                                                                                                                                       
000183a5  _ZNSt3__216allocator_traitsINS_9allocatorIP6I2cMsgEEE10__max_sizeENS_17integral_constantIbLb1EEERKS4_                                                                                                                                                                            
000183b5  _ZNSt3__216allocator_traitsINS_9allocatorIP6I2cMsgEEE8max_sizeERKS4_                                                                                                                                                                                                             
000183c5  _ZNSt3__216allocator_traitsINS_9allocatorIP6SpiMsgEEE10__max_sizeENS_17integral_constantIbLb1EEERKS4_                                                                                                                                                                            
000183d5  _ZNSt3__216allocator_traitsINS_9allocatorIP6SpiMsgEEE8max_sizeERKS4_                                                                                                                                                                                                             
000183e5  _ZNSt3__216allocator_traitsINS_9allocatorIP7MenuRowEEE10__max_sizeENS_17integral_constantIbLb1EEERKS4_                                                                                                                                                                           
000183f5  _ZNSt3__216allocator_traitsINS_9allocatorIP7MenuRowEEE8max_sizeERKS4_                                                                                                                                                                                                            
00018405  _ZNSt3__222__compressed_pair_elemIPP11ConsolePageLi0ELb0EEC2IDnvEEOT_                                                                                                                                                                                                            
00018415  _ZNSt3__222__compressed_pair_elemIPP6I2cMsgLi0ELb0EEC2IDnvEEOT_                                                                                                                                                                                                                  
00018425  _ZNSt3__222__compressed_pair_elemIPP6SpiMsgLi0ELb0EEC2IDnvEEOT_                                                                                                                                                                                                                  
00018435  _ZNSt3__222__compressed_pair_elemIPP7MenuRowLi0ELb0EEC2IDnvEEOT_                                                                                                                                                                                                                 
00018445  _ZNSt3__222__compressed_pair_elemIRNS_9allocatorIP11ConsolePageEELi1ELb0EEC2IS5_vEEOT_                                                                                                                                                                                           
00018455  _ZNSt3__222__compressed_pair_elemIRNS_9allocatorIP6I2cMsgEELi1ELb0EEC2IS5_vEEOT_                                                                                                                                                                                                 
00018465  _ZNSt3__222__compressed_pair_elemIRNS_9allocatorIP6SpiMsgEELi1ELb0EEC2IS5_vEEOT_                                                                                                                                                                                                 
00018475  _ZNSt3__222__compressed_pair_elemIRNS_9allocatorIP7MenuRowEELi1ELb0EEC2IS5_vEEOT_                                                                                                                                                                                                
00018485  _ZNSt3__26vectorIP11ConsolePageNS_9allocatorIS2_EEE24__RAII_IncreaseAnnotatorC1ERKS5_j                                                                                                                                                                                           
00018495  _ZNSt3__26vectorIP6I2cMsgNS_9allocatorIS2_EEE24__RAII_IncreaseAnnotatorC1ERKS5_j                                                                                                                                                                                                 
000184a5  _ZNSt3__26vectorIP6SpiMsgNS_9allocatorIS2_EEE24__RAII_IncreaseAnnotatorC1ERKS5_j                                                                                                                                                                                                 
000184b5  _ZNSt3__26vectorIP7MenuRowNS_9allocatorIS2_EEE24__RAII_IncreaseAnnotatorC1ERKS5_j                                                                                                                                                                                                
000184c5  _ZNSt3__29allocatorIP11ConsolePageE10deallocateEPS2_j                                                                                                                                                                                                                            
000184d5  _ZNSt3__29allocatorIP6I2cMsgE10deallocateEPS2_j                                                                                                                                                                                                                                  
000184e5  _ZNSt3__29allocatorIP6SpiMsgE10deallocateEPS2_j                                                                                                                                                                                                                                  
000184f5  _ZNSt3__29allocatorIP7MenuRowE10deallocateEPS2_j                                                                                                                                                                                                                                 
00018513  _ZN10__cxxabiv117__class_type_infoD0Ev                                                                                                                                                                                                                                           
00018521  _ZN10__cxxabiv120__si_class_type_infoD0Ev                                                                                                                                                                                                                                        
0001852f  _ZNKSt3__213__vector_baseIP11ConsolePageNS_9allocatorIS2_EEE7__allocEv                                                                                                                                                                                                           
0001853d  _ZNKSt3__213__vector_baseIP11ConsolePageNS_9allocatorIS2_EEE9__end_capEv                                                                                                                                                                                                         
0001854b  _ZNKSt3__213__vector_baseIP6I2cMsgNS_9allocatorIS2_EEE7__allocEv                                                                                                                                                                                                                 
00018559  _ZNKSt3__213__vector_baseIP6I2cMsgNS_9allocatorIS2_EEE9__end_capEv                                                                                                                                                                                                               
00018567  _ZNKSt3__213__vector_baseIP6SpiMsgNS_9allocatorIS2_EEE7__allocEv                                                                                                                                                                                                                 
00018575  _ZNKSt3__213__vector_baseIP6SpiMsgNS_9allocatorIS2_EEE9__end_capEv                                                                                                                                                                                                               
00018583  _ZNKSt3__213__vector_baseIP7MenuRowNS_9allocatorIS2_EEE7__allocEv                                                                                                                                                                                                                
00018591  _ZNKSt3__213__vector_baseIP7MenuRowNS_9allocatorIS2_EEE9__end_capEv                                                                                                                                                                                                              
0001859f  _ZNKSt3__214__split_bufferIP11ConsolePageRNS_9allocatorIS2_EEE9__end_capEv                                                                                                                                                                                                       
000185ad  _ZNKSt3__214__split_bufferIP6I2cMsgRNS_9allocatorIS2_EEE9__end_capEv                                                                                                                                                                                                             
000185bb  _ZNKSt3__214__split_bufferIP6SpiMsgRNS_9allocatorIS2_EEE9__end_capEv                                                                                                                                                                                                             
000185c9  _ZNKSt3__214__split_bufferIP7MenuRowRNS_9allocatorIS2_EEE9__end_capEv                                                                                                                                                                                                            
000185d7  _ZNKSt3__26vectorIP11ConsolePageNS_9allocatorIS2_EEE4dataEv                                                                                                                                                                                                                      
000185e5  _ZNKSt3__26vectorIP6I2cMsgNS_9allocatorIS2_EEE4dataEv                                                                                                                                                                                                                            
000185f3  _ZNKSt3__26vectorIP6SpiMsgNS_9allocatorIS2_EEE4dataEv                                                                                                                                                                                                                            
00018601  _ZNKSt3__26vectorIP7MenuRowNS_9allocatorIS2_EEE4dataEv                                                                                                                                                                                                                           
0001860f  _ZNKSt3__29allocatorIP11ConsolePageE8max_sizeEv                                                                                                                                                                                                                                  
0001861d  _ZNKSt3__29allocatorIP6I2cMsgE8max_sizeEv                                                                                                                                                                                                                                        
0001862b  _ZNKSt3__29allocatorIP6SpiMsgE8max_sizeEv                                                                                                                                                                                                                                        
00018639  _ZNKSt3__29allocatorIP7MenuRowE8max_sizeEv                                                                                                                                                                                                                                       
00018647  _ZNSt3__213__vector_baseIP11ConsolePageNS_9allocatorIS2_EEE7__allocEv                                                                                                                                                                                                            
00018655  _ZNSt3__213__vector_baseIP11ConsolePageNS_9allocatorIS2_EEE9__end_capEv                                                                                                                                                                                                          
00018663  _ZNSt3__213__vector_baseIP6I2cMsgNS_9allocatorIS2_EEE7__allocEv                                                                                                                                                                                                                  
00018671  _ZNSt3__213__vector_baseIP6I2cMsgNS_9allocatorIS2_EEE9__end_capEv                                                                                                                                                                                                                
0001867f  _ZNSt3__213__vector_baseIP6SpiMsgNS_9allocatorIS2_EEE7__allocEv                                                                                                                                                                                                                  
0001868d  _ZNSt3__213__vector_baseIP6SpiMsgNS_9allocatorIS2_EEE9__end_capEv                                                                                                                                                                                                                
0001869b  _ZNSt3__213__vector_baseIP7MenuRowNS_9allocatorIS2_EEE7__allocEv                                                                                                                                                                                                                 
000186a9  _ZNSt3__213__vector_baseIP7MenuRowNS_9allocatorIS2_EEE9__end_capEv                                                                                                                                                                                                               
000186b7  _ZNSt3__214__split_bufferIP11ConsolePageRNS_9allocatorIS2_EEE7__allocEv                                                                                                                                                                                                          
000186c5  _ZNSt3__214__split_bufferIP11ConsolePageRNS_9allocatorIS2_EEE9__end_capEv                                                                                                                                                                                                        
000186d3  _ZNSt3__214__split_bufferIP6I2cMsgRNS_9allocatorIS2_EEE7__allocEv                                                                                                                                                                                                                
000186e1  _ZNSt3__214__split_bufferIP6I2cMsgRNS_9allocatorIS2_EEE9__end_capEv                                                                                                                                                                                                              
000186ef  _ZNSt3__214__split_bufferIP6SpiMsgRNS_9allocatorIS2_EEE7__allocEv                                                                                                                                                                                                                
000186fd  _ZNSt3__214__split_bufferIP6SpiMsgRNS_9allocatorIS2_EEE9__end_capEv                                                                                                                                                                                                              
0001870b  _ZNSt3__214__split_bufferIP7MenuRowRNS_9allocatorIS2_EEE7__allocEv                                                                                                                                                                                                               
00018719  _ZNSt3__214__split_bufferIP7MenuRowRNS_9allocatorIS2_EEE9__end_capEv                                                                                                                                                                                                             
00018727  _ZNSt3__217__compressed_pairIPP11ConsolePageRNS_9allocatorIS2_EEE6secondEv                                                                                                                                                                                                       
00018735  _ZNSt3__217__compressed_pairIPP6I2cMsgRNS_9allocatorIS2_EEE6secondEv                                                                                                                                                                                                             
00018743  _ZNSt3__217__compressed_pairIPP6SpiMsgRNS_9allocatorIS2_EEE6secondEv                                                                                                                                                                                                             
00018751  _ZNSt3__217__compressed_pairIPP7MenuRowRNS_9allocatorIS2_EEE6secondEv                                                                                                                                                                                                            
0001875f  _ZNSt3__222__compressed_pair_elemINS_9allocatorIP11ConsolePageEELi1ELb1EEC1Ev                                                                                                                                                                                                    
0001876d  _ZNSt3__222__compressed_pair_elemINS_9allocatorIP6I2cMsgEELi1ELb1EEC1Ev                                                                                                                                                                                                          
0001877b  _ZNSt3__222__compressed_pair_elemINS_9allocatorIP6SpiMsgEELi1ELb1EEC1Ev                                                                                                                                                                                                          
00018789  _ZNSt3__222__compressed_pair_elemINS_9allocatorIP7MenuRowEELi1ELb1EEC1Ev                                                                                                                                                                                                         
00018797  _ZNSt3__222__compressed_pair_elemIRNS_9allocatorIP11ConsolePageEELi1ELb0EE5__getEv                                                                                                                                                                                               
000187a5  _ZNSt3__222__compressed_pair_elemIRNS_9allocatorIP6I2cMsgEELi1ELb0EE5__getEv                                                                                                                                                                                                     
000187b3  _ZNSt3__222__compressed_pair_elemIRNS_9allocatorIP6SpiMsgEELi1ELb0EE5__getEv                                                                                                                                                                                                     
000187c1  _ZNSt3__222__compressed_pair_elemIRNS_9allocatorIP7MenuRowEELi1ELb0EE5__getEv                                                                                                                                                                                                    
000187cf  _ZNSt3__26vectorIP11ConsolePageNS_9allocatorIS2_EEEC1Ev                                                                                                                                                                                                                          
000187dd  _ZNSt3__26vectorIP6I2cMsgNS_9allocatorIS2_EEEC1Ev                                                                                                                                                                                                                                
000187eb  _ZNSt3__26vectorIP6SpiMsgNS_9allocatorIS2_EEEC1Ev                                                                                                                                                                                                                                
000187f9  _ZNSt3__26vectorIP7MenuRowNS_9allocatorIS2_EEEC1Ev                                                                                                                                                                                                                               
00018807  _ZnwjPv                                                                                                                                                                                                                                                                          
00018815  __TI_decompress_none                                                                                                                                                                                                                                                             
00018823  USBRingBufInit                                                                                                                                                                                                                                                                   
0001882f  _ZNKSt3__217__compressed_pairIPP11ConsolePageNS_9allocatorIS2_EEE5firstEv                                                                                                                                                                                                        
0001883b  _ZNKSt3__217__compressed_pairIPP11ConsolePageNS_9allocatorIS2_EEE6secondEv                                                                                                                                                                                                       
00018847  _ZNKSt3__217__compressed_pairIPP11ConsolePageRNS_9allocatorIS2_EEE5firstEv                                                                                                                                                                                                       
00018853  _ZNKSt3__217__compressed_pairIPP6I2cMsgNS_9allocatorIS2_EEE5firstEv                                                                                                                                                                                                              
0001885f  _ZNKSt3__217__compressed_pairIPP6I2cMsgNS_9allocatorIS2_EEE6secondEv                                                                                                                                                                                                             
0001886b  _ZNKSt3__217__compressed_pairIPP6I2cMsgRNS_9allocatorIS2_EEE5firstEv                                                                                                                                                                                                             
00018877  _ZNKSt3__217__compressed_pairIPP6SpiMsgNS_9allocatorIS2_EEE5firstEv                                                                                                                                                                                                              
00018883  _ZNKSt3__217__compressed_pairIPP6SpiMsgNS_9allocatorIS2_EEE6secondEv                                                                                                                                                                                                             
0001888f  _ZNKSt3__217__compressed_pairIPP6SpiMsgRNS_9allocatorIS2_EEE5firstEv                                                                                                                                                                                                             
0001889b  _ZNKSt3__217__compressed_pairIPP7MenuRowNS_9allocatorIS2_EEE5firstEv                                                                                                                                                                                                             
000188a7  _ZNKSt3__217__compressed_pairIPP7MenuRowNS_9allocatorIS2_EEE6secondEv                                                                                                                                                                                                            
000188b3  _ZNKSt3__217__compressed_pairIPP7MenuRowRNS_9allocatorIS2_EEE5firstEv                                                                                                                                                                                                            
000188c1  _ZNKSt3__220__vector_base_commonILb1EE20__throw_length_errorEv                                                                                                                                                                                                                   
000188cd  _ZNKSt3__222__compressed_pair_elemINS_9allocatorIP11ConsolePageEELi1ELb1EE5__getEv                                                                                                                                                                                               
000188d9  _ZNKSt3__222__compressed_pair_elemINS_9allocatorIP6I2cMsgEELi1ELb1EE5__getEv                                                                                                                                                                                                     
000188e5  _ZNKSt3__222__compressed_pair_elemINS_9allocatorIP6SpiMsgEELi1ELb1EE5__getEv                                                                                                                                                                                                     
000188f1  _ZNKSt3__222__compressed_pair_elemINS_9allocatorIP7MenuRowEELi1ELb1EE5__getEv                                                                                                                                                                                                    
000188fd  _ZNKSt3__222__compressed_pair_elemIPP11ConsolePageLi0ELb0EE5__getEv                                                                                                                                                                                                              
00018909  _ZNKSt3__222__compressed_pair_elemIPP6I2cMsgLi0ELb0EE5__getEv                                                                                                                                                                                                                    
00018915  _ZNKSt3__222__compressed_pair_elemIPP6SpiMsgLi0ELb0EE5__getEv                                                                                                                                                                                                                    
00018921  _ZNKSt3__222__compressed_pair_elemIPP7MenuRowLi0ELb0EE5__getEv                                                                                                                                                                                                                   
0001892d  _ZNKSt3__26vectorIP11ConsolePageNS_9allocatorIS2_EEE8capacityEv                                                                                                                                                                                                                  
00018939  _ZNKSt3__26vectorIP6I2cMsgNS_9allocatorIS2_EEE8capacityEv                                                                                                                                                                                                                        
00018945  _ZNKSt3__26vectorIP6SpiMsgNS_9allocatorIS2_EEE8capacityEv                                                                                                                                                                                                                        
00018951  _ZNKSt3__26vectorIP7MenuRowNS_9allocatorIS2_EEE8capacityEv                                                                                                                                                                                                                       
0001895d  _ZNSt3__210__allocateEj                                                                                                                                                                                                                                                          
00018969  _ZNSt3__213__unwrap_iterIPP6I2cMsgEET_S4_                                                                                                                                                                                                                                        
00018975  _ZNSt3__213__unwrap_iterIPP6SpiMsgEET_S4_                                                                                                                                                                                                                                        
00018981  _ZNSt3__213__vector_baseIP11ConsolePageNS_9allocatorIS2_EEEC2Ev                                                                                                                                                                                                                  
0001898d  _ZNSt3__213__vector_baseIP6I2cMsgNS_9allocatorIS2_EEEC2Ev                                                                                                                                                                                                                        
00018999  _ZNSt3__213__vector_baseIP6SpiMsgNS_9allocatorIS2_EEEC2Ev                                                                                                                                                                                                                        
000189a5  _ZNSt3__213__vector_baseIP7MenuRowNS_9allocatorIS2_EEEC2Ev                                                                                                                                                                                                                       
000189b1  _ZNSt3__216__to_raw_pointerIP11ConsolePageEEPT_S4_                                                                                                                                                                                                                               
000189bd  _ZNSt3__216__to_raw_pointerIP6I2cMsgEEPT_S4_                                                                                                                                                                                                                                     
000189c9  _ZNSt3__216__to_raw_pointerIP6SpiMsgEEPT_S4_                                                                                                                                                                                                                                     
000189d5  _ZNSt3__216__to_raw_pointerIP7MenuRowEEPT_S4_                                                                                                                                                                                                                                    
000189e1  _ZNSt3__217__compressed_pairIPP11ConsolePageNS_9allocatorIS2_EEE5firstEv                                                                                                                                                                                                         
000189ed  _ZNSt3__217__compressed_pairIPP11ConsolePageNS_9allocatorIS2_EEE6secondEv                                                                                                                                                                                                        
000189f9  _ZNSt3__217__compressed_pairIPP11ConsolePageRNS_9allocatorIS2_EEE5firstEv                                                                                                                                                                                                        
00018a05  _ZNSt3__217__compressed_pairIPP6I2cMsgNS_9allocatorIS2_EEE5firstEv                                                                                                                                                                                                               
00018a11  _ZNSt3__217__compressed_pairIPP6I2cMsgNS_9allocatorIS2_EEE6secondEv                                                                                                                                                                                                              
00018a1d  _ZNSt3__217__compressed_pairIPP6I2cMsgRNS_9allocatorIS2_EEE5firstEv                                                                                                                                                                                                              
00018a29  _ZNSt3__217__compressed_pairIPP6SpiMsgNS_9allocatorIS2_EEE5firstEv                                                                                                                                                                                                               
00018a35  _ZNSt3__217__compressed_pairIPP6SpiMsgNS_9allocatorIS2_EEE6secondEv                                                                                                                                                                                                              
00018a41  _ZNSt3__217__compressed_pairIPP6SpiMsgRNS_9allocatorIS2_EEE5firstEv                                                                                                                                                                                                              
00018a4d  _ZNSt3__217__compressed_pairIPP7MenuRowNS_9allocatorIS2_EEE5firstEv                                                                                                                                                                                                              
00018a59  _ZNSt3__217__compressed_pairIPP7MenuRowNS_9allocatorIS2_EEE6secondEv                                                                                                                                                                                                             
00018a65  _ZNSt3__217__compressed_pairIPP7MenuRowRNS_9allocatorIS2_EEE5firstEv                                                                                                                                                                                                             
00018a71  _ZNSt3__219__libcpp_deallocateEPv                                                                                                                                                                                                                                                
00018a7d  _ZNSt3__222__compressed_pair_elemINS_9allocatorIP11ConsolePageEELi1ELb1EE5__getEv                                                                                                                                                                                                
00018a89  _ZNSt3__222__compressed_pair_elemINS_9allocatorIP11ConsolePageEELi1ELb1EEC2Ev                                                                                                                                                                                                    
00018a95  _ZNSt3__222__compressed_pair_elemINS_9allocatorIP6I2cMsgEELi1ELb1EE5__getEv                                                                                                                                                                                                      
00018aa1  _ZNSt3__222__compressed_pair_elemINS_9allocatorIP6I2cMsgEELi1ELb1EEC2Ev                                                                                                                                                                                                          
00018aad  _ZNSt3__222__compressed_pair_elemINS_9allocatorIP6SpiMsgEELi1ELb1EE5__getEv                                                                                                                                                                                                      
00018ab9  _ZNSt3__222__compressed_pair_elemINS_9allocatorIP6SpiMsgEELi1ELb1EEC2Ev                                                                                                                                                                                                          
00018ac5  _ZNSt3__222__compressed_pair_elemINS_9allocatorIP7MenuRowEELi1ELb1EE5__getEv                                                                                                                                                                                                     
00018ad1  _ZNSt3__222__compressed_pair_elemINS_9allocatorIP7MenuRowEELi1ELb1EEC2Ev                                                                                                                                                                                                         
00018add  _ZNSt3__222__compressed_pair_elemIPP11ConsolePageLi0ELb0EE5__getEv                                                                                                                                                                                                               
00018ae9  _ZNSt3__222__compressed_pair_elemIPP6I2cMsgLi0ELb0EE5__getEv                                                                                                                                                                                                                     
00018af5  _ZNSt3__222__compressed_pair_elemIPP6SpiMsgLi0ELb0EE5__getEv                                                                                                                                                                                                                     
00018b01  _ZNSt3__222__compressed_pair_elemIPP7MenuRowLi0ELb0EE5__getEv                                                                                                                                                                                                                    
00018b0d  _ZNSt3__24moveIRP6I2cMsgEEONS_16remove_referenceIT_E4typeEOS5_                                                                                                                                                                                                                   
00018b19  _ZNSt3__24moveIRP6SpiMsgEEONS_16remove_referenceIT_E4typeEOS5_                                                                                                                                                                                                                   
00018b25  _ZNSt3__24moveIRPP11ConsolePageEEONS_16remove_referenceIT_E4typeEOS6_                                                                                                                                                                                                            
00018b31  _ZNSt3__24moveIRPP6I2cMsgEEONS_16remove_referenceIT_E4typeEOS6_                                                                                                                                                                                                                  
00018b3d  _ZNSt3__24moveIRPP6SpiMsgEEONS_16remove_referenceIT_E4typeEOS6_                                                                                                                                                                                                                  
00018b49  _ZNSt3__24moveIRPP7MenuRowEEONS_16remove_referenceIT_E4typeEOS6_                                                                                                                                                                                                                 
00018b55  _ZNSt3__26vectorIP6I2cMsgNS_9allocatorIS2_EEE27__invalidate_iterators_pastEPS2_                                                                                                                                                                                                  
00018b61  _ZNSt3__26vectorIP6SpiMsgNS_9allocatorIS2_EEE27__invalidate_iterators_pastEPS2_                                                                                                                                                                                                  
00018b6d  _ZNSt3__27forwardIDnEEOT_RNS_16remove_referenceIS1_E4typeE                                                                                                                                                                                                                       
00018b79  _ZNSt3__27forwardIP6I2cMsgEEOT_RNS_16remove_referenceIS3_E4typeE                                                                                                                                                                                                                 
00018b85  _ZNSt3__27forwardIP6SpiMsgEEOT_RNS_16remove_referenceIS3_E4typeE                                                                                                                                                                                                                 
00018b91  _ZNSt3__27forwardIRKP11ConsolePageEEOT_RNS_16remove_referenceIS5_E4typeE                                                                                                                                                                                                         
00018b9d  _ZNSt3__27forwardIRKP7MenuRowEEOT_RNS_16remove_referenceIS5_E4typeE                                                                                                                                                                                                              
00018ba9  _ZNSt3__27forwardIRNS_9allocatorIP11ConsolePageEEEEOT_RNS_16remove_referenceIS6_E4typeE                                                                                                                                                                                          
00018bb5  _ZNSt3__27forwardIRNS_9allocatorIP6I2cMsgEEEEOT_RNS_16remove_referenceIS6_E4typeE                                                                                                                                                                                                
00018bc1  _ZNSt3__27forwardIRNS_9allocatorIP6SpiMsgEEEEOT_RNS_16remove_referenceIS6_E4typeE                                                                                                                                                                                                
00018bcd  _ZNSt3__27forwardIRNS_9allocatorIP7MenuRowEEEEOT_RNS_16remove_referenceIS6_E4typeE                                                                                                                                                                                               
00018bd9  _ZNSt3__29allocatorIP11ConsolePageE7destroyEPS2_                                                                                                                                                                                                                                 
00018be5  _ZNSt3__29allocatorIP11ConsolePageEC1Ev                                                                                                                                                                                                                                          
00018bf1  _ZNSt3__29allocatorIP11ConsolePageEC2Ev                                                                                                                                                                                                                                          
00018bfd  _ZNSt3__29allocatorIP6I2cMsgE7destroyEPS2_                                                                                                                                                                                                                                       
00018c09  _ZNSt3__29allocatorIP6I2cMsgEC1Ev                                                                                                                                                                                                                                                
00018c15  _ZNSt3__29allocatorIP6I2cMsgEC2Ev                                                                                                                                                                                                                                                
00018c21  _ZNSt3__29allocatorIP6SpiMsgE7destroyEPS2_                                                                                                                                                                                                                                       
00018c2d  _ZNSt3__29allocatorIP6SpiMsgEC1Ev                                                                                                                                                                                                                                                
00018c39  _ZNSt3__29allocatorIP6SpiMsgEC2Ev                                                                                                                                                                                                                                                
00018c45  _ZNSt3__29allocatorIP7MenuRowE7destroyEPS2_                                                                                                                                                                                                                                      
00018c51  _ZNSt3__29allocatorIP7MenuRowEC1Ev                                                                                                                                                                                                                                               
00018c5d  _ZNSt3__29allocatorIP7MenuRowEC2Ev                                                                                                                                                                                                                                               
00018c69  __TI_zero_init                                                                                                                                                                                                                                                                   
00018c75  ResetISR                                                                                                                                                                                                                                                                         
00018c81  _ZNSt3__220__throw_length_errorEPKc                                                                                                                                                                                                                                              
00018c8b  _ZNSt3__26vectorIP11ConsolePageNS_9allocatorIS2_EEE24__RAII_IncreaseAnnotator6__doneEv                                                                                                                                                                                           
00018c95  _ZNSt3__26vectorIP11ConsolePageNS_9allocatorIS2_EEE26__invalidate_all_iteratorsEv                                                                                                                                                                                                
00018c9f  _ZNSt3__26vectorIP6I2cMsgNS_9allocatorIS2_EEE24__RAII_IncreaseAnnotator6__doneEv                                                                                                                                                                                                 
00018ca9  _ZNSt3__26vectorIP6I2cMsgNS_9allocatorIS2_EEE26__invalidate_all_iteratorsEv                                                                                                                                                                                                      
00018cb3  _ZNSt3__26vectorIP6SpiMsgNS_9allocatorIS2_EEE24__RAII_IncreaseAnnotator6__doneEv                                                                                                                                                                                                 
00018cbd  _ZNSt3__26vectorIP6SpiMsgNS_9allocatorIS2_EEE26__invalidate_all_iteratorsEv                                                                                                                                                                                                      
00018cc7  _ZNSt3__26vectorIP7MenuRowNS_9allocatorIS2_EEE24__RAII_IncreaseAnnotator6__doneEv                                                                                                                                                                                                
00018cd1  _ZNSt3__26vectorIP7MenuRowNS_9allocatorIS2_EEE26__invalidate_all_iteratorsEv                                                                                                                                                                                                     
00018ce5  __aeabi_errno_addr                                                                                                                                                                                                                                                               
00018cfd  malloc                                                                                                                                                                                                                                                                           
00018d05  SysCtlDelay                                                                                                                                                                                                                                                                      
00018d0b  USBBufferDataAvailable                                                                                                                                                                                                                                                           
00018d11  USBBufferFlush                                                                                                                                                                                                                                                                   
00018d17  USBBufferSpaceAvailable                                                                                                                                                                                                                                                          
00018d1d  __cxa_pure_virtual                                                                                                                                                                                                                                                               
00018d2d  _ZN10__cxxabiv117__class_type_infoD1Ev                                                                                                                                                                                                                                           
00018d2d  _ZN10__cxxabiv117__class_type_infoD2Ev                                                                                                                                                                                                                                           
00018d31  _ZN10__cxxabiv120__si_class_type_infoD1Ev                                                                                                                                                                                                                                        
00018d31  _ZN10__cxxabiv120__si_class_type_infoD2Ev                                                                                                                                                                                                                                        
00018d35  _ZdlPvj                                                                                                                                                                                                                                                                          
00018d39  __abort_execution                                                                                                                                                                                                                                                                
00018d3d  _system_pre_init                                                                                                                                                                                                                                                                 
00018d41  C$$EXIT                                                                                                                                                                                                                                                                          
00018d41  _ZSt17__throw_bad_allocv                                                                                                                                                                                                                                                         
00018d41  abort                                                                                                                                                                                                                                                                            
00018e64  _ctypes_                                                                                                                                                                                                                                                                         
00019470  _ZZNSt3__29allocatorIP11ConsolePageE8allocateEjPKvEs                                                                                                                                                                                                                             
000194b4  _ZZNSt3__29allocatorIP6I2cMsgE8allocateEjPKvEs                                                                                                                                                                                                                                   
000194f8  _ZZNSt3__29allocatorIP6SpiMsgE8allocateEjPKvEs                                                                                                                                                                                                                                   
0001953c  _ZZNSt3__29allocatorIP7MenuRowE8allocateEjPKvEs                                                                                                                                                                                                                                  
00019640  g_pui8ConfigString                                                                                                                                                                                                                                                               
000196dc  g_sCDCHandlers                                                                                                                                                                                                                                                                   
0001973c  g_pui8ControlInterfaceString                                                                                                                                                                                                                                                     
00019768  _ZTSN10__cxxabiv120__si_class_type_infoE                                                                                                                                                                                                                                         
0001978d  g_pui8ManufacturerString                                                                                                                                                                                                                                                         
000197b1  g_pui8CDCSerCommInterface                                                                                                                                                                                                                                                        
000197d4  g_pui8ProductString                                                                                                                                                                                                                                                              
000197f6  _ZTSN10__cxxabiv117__class_type_infoE                                                                                                                                                                                                                                            
000198b8  _ZTV10OneWireCmd                                                                                                                                                                                                                                                                 
000198d4  _ZTV10SpiCmdTask                                                                                                                                                                                                                                                                 
000198f0  _ZTV11ConsolePage                                                                                                                                                                                                                                                                
0001990c  _ZTV11ConsoleTask                                                                                                                                                                                                                                                                
00019928  _ZTV11ErrorLogger                                                                                                                                                                                                                                                                
00019944  _ZTV11MenuOptions                                                                                                                                                                                                                                                                
00019960  _ZTV11TaskManager                                                                                                                                                                                                                                                                
0001997c  _ZTV12UartStreamer                                                                                                                                                                                                                                                               
00019998  _ZTV14I2cMonitorTask                                                                                                                                                                                                                                                             
000199b4  _ZTV14I2cSnifferTask                                                                                                                                                                                                                                                             
000199d0  _ZTV14SpiMonitorTask                                                                                                                                                                                                                                                             
000199ec  _ZTV15I2cScripterTask                                                                                                                                                                                                                                                            
00019a08  _ZTV7I2cTask                                                                                                                                                                                                                                                                     
00019a24  _ZTV7PWMpage                                                                                                                                                                                                                                                                     
00019a40  _ZTV7UartCmd                                                                                                                                                                                                                                                                     
00019a5c  _ZTV9IoCtlPage                                                                                                                                                                                                                                                                   
00019aa8  g_ppui8StringDescriptors                                                                                                                                                                                                                                                         
00019ac0  g_pui8CDCSerDataInterface                                                                                                                                                                                                                                                        
00019ad7  g_pui8CDCSerDataInterfaceHS                                                                                                                                                                                                                                                      
00019b40  g_pui8SerialNumberString                                                                                                                                                                                                                                                         
00019b66  _ZTS15I2cScripterTask                                                                                                                                                                                                                                                            
00019b78  _ZTS14I2cMonitorTask                                                                                                                                                                                                                                                             
00019b89  _ZTS14I2cSnifferTask                                                                                                                                                                                                                                                             
00019b9a  _ZTS14SpiMonitorTask                                                                                                                                                                                                                                                             
00019bac  _ZTVN10__cxxabiv117__class_type_infoE                                                                                                                                                                                                                                            
00019bbc  _ZTVN10__cxxabiv120__si_class_type_infoE                                                                                                                                                                                                                                         
00019bcc  _ZTS12UartStreamer                                                                                                                                                                                                                                                               
00019bea  _ZTS11ConsolePage                                                                                                                                                                                                                                                                
00019bf8  _ZTS11ConsoleTask                                                                                                                                                                                                                                                                
00019c06  _ZTS11ErrorLogger                                                                                                                                                                                                                                                                
00019c14  _ZTS11MenuOptions                                                                                                                                                                                                                                                                
00019c22  _ZTS11TaskManager                                                                                                                                                                                                                                                                
00019c30  _ZTS10OneWireCmd                                                                                                                                                                                                                                                                 
00019c3d  _ZTS10SpiCmdTask                                                                                                                                                                                                                                                                 
00019c4a  _ZTSSt9type_info                                                                                                                                                                                                                                                                 
00019c58  _ZTI10OneWireCmd                                                                                                                                                                                                                                                                 
00019c64  _ZTI10SpiCmdTask                                                                                                                                                                                                                                                                 
00019c70  _ZTI11ConsoleTask                                                                                                                                                                                                                                                                
00019c7c  _ZTI11ErrorLogger                                                                                                                                                                                                                                                                
00019c88  _ZTI11MenuOptions                                                                                                                                                                                                                                                                
00019c94  _ZTI11TaskManager                                                                                                                                                                                                                                                                
00019ca0  _ZTI12UartStreamer                                                                                                                                                                                                                                                               
00019cac  _ZTI14I2cMonitorTask                                                                                                                                                                                                                                                             
00019cb8  _ZTI14I2cSnifferTask                                                                                                                                                                                                                                                             
00019cc4  _ZTI14SpiMonitorTask                                                                                                                                                                                                                                                             
00019cd0  _ZTI15I2cScripterTask                                                                                                                                                                                                                                                            
00019cdc  _ZTI7I2cTask                                                                                                                                                                                                                                                                     
00019ce8  _ZTI7PWMpage                                                                                                                                                                                                                                                                     
00019cf4  _ZTI7UartCmd                                                                                                                                                                                                                                                                     
00019d00  _ZTI9IoCtlPage                                                                                                                                                                                                                                                                   
00019d0c  _ZTIN10__cxxabiv117__class_type_infoE                                                                                                                                                                                                                                            
00019d18  _ZTIN10__cxxabiv120__si_class_type_infoE                                                                                                                                                                                                                                         
00019d3c  _ZTS9IoCtlPage                                                                                                                                                                                                                                                                   
00019d47  _ZTS7I2cTask                                                                                                                                                                                                                                                                     
00019d50  _ZTS7PWMpage                                                                                                                                                                                                                                                                     
00019d59  _ZTS7UartCmd                                                                                                                                                                                                                                                                     
00019d64  _ZTI11ConsolePage                                                                                                                                                                                                                                                                
00019d6c  _ZTISt9type_info                                                                                                                                                                                                                                                                 
00019d7c  g_sCDCCompSerConfigHeader                                                                                                                                                                                                                                                        
00019d84  g_sCDCCompSerConfigHeaderHS                                                                                                                                                                                                                                                      
00019d8c  g_sCDCSerCommInterfaceSection                                                                                                                                                                                                                                                    
00019d94  g_sCDCSerConfigHeader                                                                                                                                                                                                                                                            
00019d9c  g_sCDCSerConfigHeaderHS                                                                                                                                                                                                                                                          
00019da4  g_sCDCSerConfigSection                                                                                                                                                                                                                                                           
00019dac  g_sCDCSerDataInterfaceSection                                                                                                                                                                                                                                                    
00019db4  g_sCDCSerDataInterfaceSectionHS                                                                                                                                                                                                                                                  
00019dbc  g_sIADSerConfigSection                                                                                                                                                                                                                                                           
00019dc4  ulMaxSyscallInterruptPriority                                                                                                                                                                                                                                                    
00019dcc  _ZZNKSt3__220__vector_base_commonILb1EE20__throw_length_errorEvEs                                                                                                                                                                                                                
00019dd3  g_pui8LangDescriptor                                                                                                                                                                                                                                                             
00019dd8  g_pCDCCompSerConfigDescriptors                                                                                                                                                                                                                                                   
00019ddc  g_pCDCCompSerConfigDescriptorsHS                                                                                                                                                                                                                                                 
00019de0  g_ppCDCSerConfigDescriptors                                                                                                                                                                                                                                                      
00019de4  g_ppCDCSerConfigDescriptorsHS                                                                                                                                                                                                                                                    
0001a0d4  __TI_Handler_Table_Base                                                                                                                                                                                                                                                          
0001a0e0  __TI_Handler_Table_Limit                                                                                                                                                                                                                                                         
0001a0f0  __TI_CINIT_Base                                                                                                                                                                                                                                                                  
0001a108  __TI_CINIT_Limit                                                                                                                                                                                                                                                                 
20000000  __start___llvm_prf_cnts                                                                                                                                                                                                                                                          
20000000  __stop___llvm_prf_cnts                                                                                                                                                                                                                                                           
20000000  g_pfnRAMVectors                                                                                                                                                                                                                                                                  
2000026c  ucHeap                                                                                                                                                                                                                                                                           
2000571c  __CIOBUF_                                                                                                                                                                                                                                                                        
2000594c  g_pui8USBRxBuffer                                                                                                                                                                                                                                                                
20005a4c  g_pui8USBTxBuffer                                                                                                                                                                                                                                                                
20005b4c  __TI_tmpnams                                                                                                                                                                                                                                                                     
20005c50  g_psDCDInst                                                                                                                                                                                                                                                                      
20005ce0  xQueueRegistry                                                                                                                                                                                                                                                                   
20005d20  g_pfnTickHandlers                                                                                                                                                                                                                                                                
20005d38  g_pvTickInstance                                                                                                                                                                                                                                                                 
20005ddc  parmbuf                                                                                                                                                                                                                                                                          
20005df0  g_ppsDevInfo                                                                                                                                                                                                                                                                     
20005df8  __stack                                                                                                                                                                                                                                                                          
20005ff8  __STACK_TOP                                                                                                                                                                                                                                                                      
200065f8  __STACK_END                                                                                                                                                                                                                                                                      
200065f8  _ftable                                                                                                                                                                                                                                                                          
200066e8  _device                                                                                                                                                                                                                                                                          
20006760  g_sCDCDevice                                                                                                                                                                                                                                                                     
200067c0  _stream                                                                                                                                                                                                                                                                          
20006810  g_sRxBuffer                                                                                                                                                                                                                                                                      
20006848  g_sTxBuffer                                                                                                                                                                                                                                                                      
20006880  pxCurrentTCB                                                                                                                                                                                                                                                                     
200069cc  i2c_speed_name                                                                                                                                                                                                                                                                   
200069d0  spi_mode_name                                                                                                                                                                                                                                                                    
200069d4  uart_parity_name                                                                                                                                                                                                                                                                 
200069d8  uart_stop_bit_name                                                                                                                                                                                                                                                               
200069dc  uart_mode_name                                                                                                                                                                                                                                                                   
200069e0  power_on_name                                                                                                                                                                                                                                                                    
200069e4  power_select_name                                                                                                                                                                                                                                                                
200069e8  pullup_en_name                                                                                                                                                                                                                                                                   
20006b60  g_ui32UARTTxCount                                                                                                                                                                                                                                                                
20006b64  g_ui32UARTRxCount                                                                                                                                                                                                                                                                
20006b74  gpo_obj                                                                                                                                                                                                                                                                          
20006b78  power_on_pin                                                                                                                                                                                                                                                                     
20006b7c  psel_1v8_pin                                                                                                                                                                                                                                                                     
20006b80  psel_3v3_pin                                                                                                                                                                                                                                                                     
20006b84  psel_5v_pin                                                                                                                                                                                                                                                                      
20006b88  pullup_en_pin                                                                                                                                                                                                                                                                    
20006ba4  uart_parity_menu                                                                                                                                                                                                                                                                 
20006bb8  g_pui8CDCSerDeviceDescriptor                                                                                                                                                                                                                                                     
20006c1c  g_psCDCCompSerSections                                                                                                                                                                                                                                                           
20006c2c  g_psCDCCompSerSectionsHS                                                                                                                                                                                                                                                         
20006c3c  __TI_ft_end                                                                                                                                                                                                                                                                      
20006c40  __aeabi_stdin                                                                                                                                                                                                                                                                    
20006c44  __aeabi_stdout                                                                                                                                                                                                                                                                   
20006c48  __aeabi_stderr                                                                                                                                                                                                                                                                   
20006c4c  spi_mode_menu                                                                                                                                                                                                                                                                    
20006c5c  __TI_cleanup_ptr                                                                                                                                                                                                                                                                 
20006c60  __TI_dtors_ptr                                                                                                                                                                                                                                                                   
20006c64  __TI_enable_exit_profile_output                                                                                                                                                                                                                                                  
20006c74  g_psCDCSerSections                                                                                                                                                                                                                                                               
20006c80  g_psCDCSerSectionsHS                                                                                                                                                                                                                                                             
20006c98  power_select_menu                                                                                                                                                                                                                                                                
20006ca4  g_bUSBTimerInitialized                                                                                                                                                                                                                                                           
20006ca8  g_ui32CurrentUSBTick                                                                                                                                                                                                                                                             
20006cac  g_ui32USBSOFCount                                                                                                                                                                                                                                                                
20006cb0  g_pui8CDCSerDescriptor                                                                                                                                                                                                                                                           
20006cc8  g_iUSBMode                                                                                                                                                                                                                                                                       
20006ccc  g_ui32WaitTicks                                                                                                                                                                                                                                                                  
20006cd4  _lock                                                                                                                                                                                                                                                                            
20006cd8  _unlock                                                                                                                                                                                                                                                                          
20006ce4  adc_pin_struct                                                                                                                                                                                                                                                                   
20006cec  board_gpi_info                                                                                                                                                                                                                                                                   
20006cf4  board_gpo_info                                                                                                                                                                                                                                                                   
20006cfc  board_pwm_info                                                                                                                                                                                                                                                                   
20006d08  _ZN11ErrorLogger3objE                                                                                                                                                                                                                                                            
20006d0c  g_pui8IADSerDescriptor                                                                                                                                                                                                                                                           
20006d14  i2c_speed_menu                                                                                                                                                                                                                                                                   
20006d1c  power_on_menu                                                                                                                                                                                                                                                                    
20006d24  pullup_en_menu                                                                                                                                                                                                                                                                   
20006d34  uart_mode_menu                                                                                                                                                                                                                                                                   
20006d3c  uart_stop_bit_menu                                                                                                                                                                                                                                                               
20006d5c  errno                                                                                                                                                                                                                                                                            
20006d60  _sys_memory                                                                                                                                                                                                                                                                      
ffffffff  __TI_pprof_out_hndl                                                                                                                                                                                                                                                              
ffffffff  __TI_prof_data_size                                                                                                                                                                                                                                                              
ffffffff  __TI_prof_data_start                                                                                                                                                                                                                                                             
ffffffff  __binit__                                                                                                                                                                                                                                                                        
ffffffff  __c_args__                                                                                                                                                                                                                                                                       
ffffffff  binit                                                                                                                                                                                                                                                                            
UNDEFED   __mpu_init                                                                                                                                                                                                                                                                       
UNDEFED   _system_post_cinit                                                                                                                                                                                                                                                               

[1500 symbols]
