******************************************************************************
                  TI ARM Linker PC v20.2.2                     
******************************************************************************
>> Linked Mon Aug  2 20:07:02 2021

OUTPUT FILE NAME:   <MicroMasterTM4C123G.out>
ENTRY POINT SYMBOL: "_c_int00_noargs"  address: 0000c0b5


MEMORY CONFIGURATION

         name            origin    length      used     unused   attr    fill
----------------------  --------  ---------  --------  --------  ----  --------
  FLASH                 00000000   00040000  0000dac0  00032540  R  X
  SRAM                  20000000   00008000  0000507c  00002f84  RW X


SEGMENT ALLOCATION MAP

run origin  load origin   length   init length attrs members
----------  ----------- ---------- ----------- ----- -------
00000000    00000000    0000dac0   0000dac0    r-x
  00000000    00000000    0000026c   0000026c    r-- .intvecs
  0000026c    0000026c    0000cd30   0000cd30    r-x .text
  0000cf9c    0000cf9c    00000a54   00000a54    r-- .const
  0000d9f0    0000d9f0    000000d0   000000d0    r-- .cinit
20000000    20000000    00005080   00000000    rw-
  20000000    20000000    0000026c   00000000    rw- .vtable
  2000026c    2000026c    0000439c   00000000    rw- .bss
  20004608    20004608    00000800   00000000    rw- .stack
  20004e08    20004e08    00000264   00000000    rw- .data
  20005070    20005070    00000010   00000000    rw- .sysmem


SECTION ALLOCATION MAP

 output                                  attributes/
section   page    origin      length       input sections
--------  ----  ----------  ----------   ----------------
.intvecs   0    00000000    0000026c     
                  00000000    0000026c     tm4c123gh6pm_startup_ccs.obj (.intvecs)

.text      0    0000026c    0000cd30     
                  0000026c    00001ddc     tasks.obj (.text)
                  00002048    0000113c     I2C_task.obj (.text)
                  00003184    00000fa8     queue.obj (.text)
                  0000412c    00000ef4     sysctl.obj (.text)
                  00005020    00000b88     gpio.obj (.text)
                  00005ba8    00000a4e     rtsv7M4_T_le_v4SPD16_eabi.lib : _printfi.c.obj (.text:__TI_printfi)
                  000065f6    00000002                                   : vector.cpp.obj (.text:_ZNSt3__220__vector_base_commonILb1EEC2Ev)
                  000065f8    0000069c     i2c.obj (.text)
                  00006c94    00000642     timer.obj (.text)
                  000072d6    00000002     rtsv7M4_T_le_v4SPD16_eabi.lib : stdlib_typeinfo.cpp.obj (.text:_ZNSt9type_infoD1Ev)
                  000072d8    00000618     uart.obj (.text)
                  000078f0    0000057a     console_task.obj (.text)
                  00007e6a    00000002     rtsv7M4_T_le_v4SPD16_eabi.lib : _lock.c.obj (.text:_nop)
                  00007e6c    000004a8     uartstdio.obj (.text)
                  00008314    000003c0     interrupt.obj (.text)
                  000086d4    00000290     task_manager.obj (.text)
                  00008964    0000028c     port.obj (.text)
                  00008bf0    00000288     I2C_sniffer.obj (.text)
                  00008e78    00000270     rtsv7M4_T_le_v4SPD16_eabi.lib : _printfi.c.obj (.text:_pconv_a)
                  000090e8    0000022c     error_logger.obj (.text)
                  00009314    000001fc     heap_2.obj (.text)
                  00009510    000001ec     I2C_monitor.obj (.text)
                  000096fc    000001d0     rtsv7M4_T_le_v4SPD16_eabi.lib : _printfi.c.obj (.text:_pconv_g)
                  000098cc    000001b6                                   : fd_add_t2.asm.obj (.text)
                  00009a82    00000002                                   : div0.asm.obj (.text)
                  00009a84    0000013c                                   : _printfi.c.obj (.text:_pconv_e)
                  00009bc0    00000136                                   : fd_div_t2.asm.obj (.text)
                  00009cf6    0000012a     list.obj (.text)
                  00009e20    00000124     rtsv7M4_T_le_v4SPD16_eabi.lib : _printfi.c.obj (.text:fcvt)
                  00009f44    00000120     no_booster_board.obj (.text)
                  0000a064    00000114     rtsv7M4_T_le_v4SPD16_eabi.lib : fputs.c.obj (.text:fputs)
                  0000a178    00000110                                   : s_scalbn.c.obj (.text:scalbn)
                  0000a288    00000100                                   : memory.c.obj (.text:aligned_alloc)
                  0000a388    000000fc     console_uart.obj (.text)
                  0000a484    000000fc     rtsv7M4_T_le_v4SPD16_eabi.lib : fd_mul_t2.asm.obj (.text)
                  0000a580    000000e4                                   : memory.c.obj (.text:free)
                  0000a664    000000dc                                   : setvbuf.c.obj (.text:setvbuf)
                  0000a740    000000da     portasm.obj (.text)
                  0000a81a    00000002     --HOLE-- [fill = 0]
                  0000a81c    000000d2     text_controls.obj (.text)
                  0000a8ee    00000002     --HOLE-- [fill = 0]
                  0000a8f0    000000c0     fpu.obj (.text)
                  0000a9b0    000000b1     rtsv7M4_T_le_v4SPD16_eabi.lib : _printfi.c.obj (.text:_ltostr)
                  0000aa61    00000001     --HOLE-- [fill = 0]
                  0000aa62    000000b0     I2C_monitor.obj (.text:_ZNSt3__26vectorIP6I2cMsgNS_9allocatorIS2_EEE6assignIPS2_EENS_9enable_ifIXaasr3std3__221__is_forward_iteratorIT_EE5valuesr3std3__216is_constructibleIS2_JNS_15iterator_traitsIS9_E9referenceEEEE5valueEvE4typeES9_S9_)
                  0000ab12    0000009c     rtsv7M4_T_le_v4SPD16_eabi.lib : memcpy_t2.asm.obj (.text)
                  0000abae    00000096                                   : ull_div_t2.asm.obj (.text)
                  0000ac44    00000090     test_task.obj (.text)
                  0000acd4    00000086     rtsv7M4_T_le_v4SPD16_eabi.lib : fd_cmp_t2.asm.obj (.text:__aeabi_cdcmple)
                  0000ad5a    00000086                                   : fd_cmp_t2.asm.obj (.text:__aeabi_cdrcmple)
                  0000ade0    0000007c                                   : fflush.c.obj (.text:fflush)
                  0000ae5c    0000007a                                   : memset_t2.asm.obj (.text)
                  0000aed6    00000002     --HOLE-- [fill = 0]
                  0000aed8    00000074                                   : fclose.c.obj (.text:__TI_closefile)
                  0000af4c    00000070                                   : memory.c.obj (.text:split)
                  0000afbc    0000006e                                   : _printfi.c.obj (.text:_mcpy)
                  0000b02a    00000002     --HOLE-- [fill = 0]
                  0000b02c    0000006c                                   : hostrename.c.obj (.text:HOSTrename)
                  0000b098    0000006c     console_task.obj (.text:_ZNSt3__26vectorIP11ConsolePageNS_9allocatorIS2_EEE26__swap_out_circular_bufferERNS_14__split_bufferIS2_RS4_EE)
                  0000b104    0000006c     I2C_task.obj (.text:_ZNSt3__26vectorIP6I2cMsgNS_9allocatorIS2_EEE26__swap_out_circular_bufferERNS_14__split_bufferIS2_RS4_EE)
                  0000b170    00000068     rtsv7M4_T_le_v4SPD16_eabi.lib : hostlseek.c.obj (.text:HOSTlseek)
                  0000b1d8    00000068                                   : copy_decompress_lzss.c.obj (.text:decompress:lzss:__TI_decompress_lzss)
                  0000b240    00000064     console_task.obj (.text:_ZNSt3__26vectorIP11ConsolePageNS_9allocatorIS2_EEE21__push_back_slow_pathIRKS2_EEvOT_)
                  0000b2a4    00000064     I2C_task.obj (.text:_ZNSt3__26vectorIP6I2cMsgNS_9allocatorIS2_EEE21__push_back_slow_pathIS2_EEvOT_)
                  0000b308    00000064     rtsv7M4_T_le_v4SPD16_eabi.lib : s_frexp.c.obj (.text:frexp)
                  0000b36c    00000064                                   : fseek.c.obj (.text:fseek)
                  0000b3d0    00000062     I2C_task.obj (.text:_ZNSt3__26vectorIP6I2cMsgNS_9allocatorIS2_EEE9push_backEOS2_)
                  0000b432    00000062     rtsv7M4_T_le_v4SPD16_eabi.lib : _io_perm.c.obj (.text:__TI_wrt_ok)
                  0000b494    00000060                                   : hostopen.c.obj (.text:HOSTopen)
                  0000b4f4    00000060     console_task.obj (.text:_ZNSt3__214__split_bufferIP11ConsolePageRNS_9allocatorIS2_EEEC1EjjS5_)
                  0000b554    00000060     I2C_task.obj (.text:_ZNSt3__214__split_bufferIP6I2cMsgRNS_9allocatorIS2_EEEC1EjjS5_)
                  0000b5b4    0000005c     rtsv7M4_T_le_v4SPD16_eabi.lib : close.c.obj (.text:close)
                  0000b610    00000058                                   : hostread.c.obj (.text:HOSTread)
                  0000b668    00000058                                   : hostwrite.c.obj (.text:HOSTwrite)
                  0000b6c0    00000056     console_task.obj (.text:_ZNKSt3__26vectorIP11ConsolePageNS_9allocatorIS2_EEE17__annotate_deleteEv)
                  0000b716    00000056     I2C_task.obj (.text:_ZNKSt3__26vectorIP6I2cMsgNS_9allocatorIS2_EEE17__annotate_deleteEv)
                  0000b76c    00000056     console_task.obj (.text:_ZNSt3__26vectorIP11ConsolePageNS_9allocatorIS2_EEE9push_backERKS2_)
                  0000b7c2    00000056     rtsv7M4_T_le_v4SPD16_eabi.lib : _printfi.c.obj (.text:_pconv_f)
                  0000b818    00000054     console_task.obj (.text:_ZNKSt3__26vectorIP11ConsolePageNS_9allocatorIS2_EEE14__annotate_newEj)
                  0000b86c    00000054     I2C_monitor.obj (.text:_ZNKSt3__26vectorIP6I2cMsgNS_9allocatorIS2_EEE14__annotate_newEj)
                  0000b8c0    00000054     rtsv7M4_T_le_v4SPD16_eabi.lib : _ltoa.c.obj (.text:__TI_ltoa)
                  0000b914    00000052     I2C_monitor.obj (.text:_ZNKSt3__26vectorIP6I2cMsgNS_9allocatorIS2_EEE17__annotate_shrinkEj)
                  0000b966    00000052     rtsv7M4_T_le_v4SPD16_eabi.lib : _printfi.c.obj (.text:_ecpy)
                  0000b9b8    0000004c                                   : fflush.c.obj (.text:__TI_doflush)
                  0000ba04    0000004c                                   : atoi.c.obj (.text:atoi)
                  0000ba50    0000004a     console_task.obj (.text:_ZNKSt3__26vectorIP11ConsolePageNS_9allocatorIS2_EEE11__recommendEj)
                  0000ba9a    0000004a     I2C_monitor.obj (.text:_ZNKSt3__26vectorIP6I2cMsgNS_9allocatorIS2_EEE11__recommendEj)
                  0000bae4    00000048     I2C_monitor.obj (.text:_ZNSt3__26vectorIP6I2cMsgNS_9allocatorIS2_EEE8allocateEj)
                  0000bb2c    00000048     rtsv7M4_T_le_v4SPD16_eabi.lib : exit.c.obj (.text:exit)
                  0000bb74    00000048                                   : fd_toi_t2.asm.obj (.text)
                  0000bbbc    00000044                                   : hostclose.c.obj (.text:HOSTclose)
                  0000bc00    00000044                                   : hostunlink.c.obj (.text:HOSTunlink)
                  0000bc44    00000044                                   : autoinit.c.obj (.text:__TI_auto_init_nobinit_nopinit:__TI_auto_init_nobinit_nopinit)
                  0000bc88    00000044                                   : getdevice.c.obj (.text:getdevice)
                  0000bccc    00000040     I2C_monitor.obj (.text:_ZNSt3__213__vector_baseIP6I2cMsgNS_9allocatorIS2_EEE17__destruct_at_endEPS2_)
                  0000bd0c    00000040     I2C_monitor.obj (.text:_ZNSt3__26vectorIP6I2cMsgNS_9allocatorIS2_EEE10deallocateEv)
                  0000bd4c    00000040     rtsv7M4_T_le_v4SPD16_eabi.lib : u_divt2.asm.obj (.text)
                  0000bd8c    00000040                                   : sprintf.c.obj (.text:sprintf)
                  0000bdcc    0000003e                                   : _printfi.c.obj (.text:_fcpy)
                  0000be0a    0000003e     cpu.obj (.text)
                  0000be48    0000003c     console_task.obj (.text:_ZNSt3__216allocator_traitsINS_9allocatorIP11ConsolePageEEE20__construct_backwardIS3_EENS_9enable_ifIXaaoosr3std3__27is_sameIS4_NS1_IT_EEEE5valuentsr3std3__215__has_constructIS4_PS8_JS8_EEE5valuesr3std3__231is_trivially_move_constructibleIS8_EE5valueEvE4typeERS4_SA_SA_RSA_)
                  0000be84    0000003c     I2C_task.obj (.text:_ZNSt3__216allocator_traitsINS_9allocatorIP6I2cMsgEEE20__construct_backwardIS3_EENS_9enable_ifIXaaoosr3std3__27is_sameIS4_NS1_IT_EEEE5valuentsr3std3__215__has_constructIS4_PS8_JS8_EEE5valuesr3std3__231is_trivially_move_constructibleIS8_EE5valueEvE4typeERS4_SA_SA_RSA_)
                  0000bec0    0000003c     I2C_monitor.obj (.text:_ZNSt3__216allocator_traitsINS_9allocatorIP6I2cMsgEEE25__construct_range_forwardIS3_EENS_9enable_ifIXaaoosr3std3__27is_sameIS4_NS1_IT_EEEE5valuentsr3std3__215__has_constructIS4_PS8_JS8_EEE5valuesr3std3__231is_trivially_move_constructibleIS8_EE5valueEvE4typeERS4_SA_SA_RSA_)
                  0000befc    0000003c     main.obj (.text)
                  0000bf38    00000038     I2C_monitor.obj (.text:_ZNSt3__26vectorIP6I2cMsgNS_9allocatorIS2_EEE18__construct_at_endIPS2_EENS_9enable_ifIXsr3std3__221__is_forward_iteratorIT_EE5valueEvE4typeES9_S9_j)
                  0000bf70    00000038     rtsv7M4_T_le_v4SPD16_eabi.lib : trgmsg.c.obj (.text:__TI_writemsg)
                  0000bfa8    00000036     console_task.obj (.text:_ZNSt3__214__split_bufferIP11ConsolePageRNS_9allocatorIS2_EEE17__destruct_at_endEPS2_NS_17integral_constantIbLb0EEE)
                  0000bfde    00000036     I2C_task.obj (.text:_ZNSt3__214__split_bufferIP6I2cMsgRNS_9allocatorIS2_EEE17__destruct_at_endEPS2_NS_17integral_constantIbLb0EEE)
                  0000c014    00000036     rtsv7M4_T_le_v4SPD16_eabi.lib : strncpy.c.obj (.text:strncpy)
                  0000c04a    00000002     --HOLE-- [fill = 0]
                  0000c04c    00000034                                   : fopen.c.obj (.text:__TI_cleanup)
                  0000c080    00000034                                   : trgmsg.c.obj (.text:__TI_readmsg)
                  0000c0b4    00000034                                   : boot_cortex_m.c.obj (.text:_c_int00_noargs:_c_int00_noargs)
                  0000c0e8    00000032     I2C_monitor.obj (.text:_ZNSt3__26__copyIP6I2cMsgS2_EENS_9enable_ifIXaasr3std3__27is_sameINS_12remove_constIT_E4typeET0_EE5valuesr3std3__228is_trivially_copy_assignableIS8_EE5valueEPS8_E4typeEPS5_SC_S9_)
                  0000c11a    00000002     --HOLE-- [fill = 0]
                  0000c11c    00000030     rtsv7M4_T_le_v4SPD16_eabi.lib : getdevice.c.obj (.text:finddevice)
                  0000c14c    00000030     memory_functions.obj (.text)
                  0000c17c    0000002e     console_task.obj (.text:_ZNSt3__214__split_bufferIP11ConsolePageRNS_9allocatorIS2_EEED1Ev)
                  0000c1aa    0000002e     I2C_task.obj (.text:_ZNSt3__214__split_bufferIP6I2cMsgRNS_9allocatorIS2_EEED1Ev)
                  0000c1d8    0000002e     console_task.obj (.text:_ZNSt3__29allocatorIP11ConsolePageE9constructIS2_JRKS2_EEEvPT_DpOT0_)
                  0000c206    0000002e     I2C_task.obj (.text:_ZNSt3__29allocatorIP6I2cMsgE9constructIS2_JS2_EEEvPT_DpOT0_)
                  0000c234    0000002e     rtsv7M4_T_le_v4SPD16_eabi.lib : i_tofd_t2.asm.obj (.text)
                  0000c262    00000002     --HOLE-- [fill = 0]
                  0000c264    0000002c                                   : unlink.c.obj (.text:unlink)
                  0000c290    0000002a     console_task.obj (.text:_ZNSt3__217__compressed_pairIPP11ConsolePageRNS_9allocatorIS2_EEEC1IDnS6_EEOT_OT0_)
                  0000c2ba    0000002a     I2C_task.obj (.text:_ZNSt3__217__compressed_pairIPP6I2cMsgRNS_9allocatorIS2_EEEC1IDnS6_EEOT_OT0_)
                  0000c2e4    0000002a     I2C_monitor.obj (.text:_ZNSt3__24copyIPP6I2cMsgS3_EET0_T_S5_S4_)
                  0000c30e    0000002a     console_task.obj (.text:_ZNSt3__24swapIPP11ConsolePageEENS_9enable_ifIXaasr3std3__221is_move_constructibleIT_EE5valuesr3std3__218is_move_assignableIS5_EE5valueEvE4typeERS5_S8_)
                  0000c338    0000002a     I2C_task.obj (.text:_ZNSt3__24swapIPP6I2cMsgEENS_9enable_ifIXaasr3std3__221is_move_constructibleIT_EE5valuesr3std3__218is_move_assignableIS5_EE5valueEvE4typeERS5_S8_)
                  0000c362    0000002a     hooks.obj (.text)
                  0000c38c    00000028     console_task.obj (.text:_ZNSt3__213__vector_baseIP11ConsolePageNS_9allocatorIS2_EEEC1Ev)
                  0000c3b4    00000028     I2C_monitor.obj (.text:_ZNSt3__213__vector_baseIP6I2cMsgNS_9allocatorIS2_EEEC1Ev)
                  0000c3dc    00000028     I2C_monitor.obj (.text:_ZNSt3__26vectorIP6I2cMsgNS_9allocatorIS2_EEE17__destruct_at_endEPS2_)
                  0000c404    00000028     I2C_monitor.obj (.text:_ZNSt3__26vectorIP6I2cMsgNS_9allocatorIS2_EEEaSERKS5_)
                  0000c42c    00000028     console_task.obj (.text:_ZNSt3__29allocatorIP11ConsolePageE8allocateEjPKv)
                  0000c454    00000028     I2C_monitor.obj (.text:_ZNSt3__29allocatorIP6I2cMsgE8allocateEjPKv)
                  0000c47c    00000028     rtsv7M4_T_le_v4SPD16_eabi.lib : memory.c.obj (.text:free_list_insert)
                  0000c4a4    00000028                                   : lseek.c.obj (.text:lseek)
                  0000c4cc    00000028                                   : memmov.c.obj (.text:memmove)
                  0000c4f4    00000028                                   : write.c.obj (.text:write)
                  0000c51c    00000024     console_task.obj (.text:_ZNKSt3__26vectorIP11ConsolePageNS_9allocatorIS2_EEE8max_sizeEv)
                  0000c540    00000024     I2C_monitor.obj (.text:_ZNKSt3__26vectorIP6I2cMsgNS_9allocatorIS2_EEE8max_sizeEv)
                  0000c564    00000024     console_task.obj (.text:_ZNSt3__216allocator_traitsINS_9allocatorIP11ConsolePageEEE11__constructIS3_JRKS3_EEEvNS_17integral_constantIbLb1EEERS4_PT_DpOT0_)
                  0000c588    00000024     console_task.obj (.text:_ZNSt3__216allocator_traitsINS_9allocatorIP11ConsolePageEEE9constructIS3_JRKS3_EEEvRS4_PT_DpOT0_)
                  0000c5ac    00000024     I2C_task.obj (.text:_ZNSt3__216allocator_traitsINS_9allocatorIP6I2cMsgEEE11__constructIS3_JS3_EEEvNS_17integral_constantIbLb1EEERS4_PT_DpOT0_)
                  0000c5d0    00000024     I2C_task.obj (.text:_ZNSt3__216allocator_traitsINS_9allocatorIP6I2cMsgEEE9constructIS3_JS3_EEEvRS4_PT_DpOT0_)
                  0000c5f4    00000022     I2C_monitor.obj (.text:_ZNSt3__26vectorIP6I2cMsgNS_9allocatorIS2_EEE5clearEv)
                  0000c616    00000020     rtsv7M4_T_le_v4SPD16_eabi.lib : memchr.c.obj (.text:memchr)
                  0000c636    0000001e     I2C_monitor.obj (.text:_ZNKSt3__26__lessIjjEclERKjS3_)
                  0000c654    0000001e     console_task.obj (.text:_ZNSt3__217__compressed_pairIPP11ConsolePageNS_9allocatorIS2_EEEC1IDnLb1EEEOT_)
                  0000c672    0000001e     I2C_monitor.obj (.text:_ZNSt3__217__compressed_pairIPP6I2cMsgNS_9allocatorIS2_EEEC1IDnLb1EEEOT_)
                  0000c690    0000001e     I2C_monitor.obj (.text:_ZNSt3__23maxIjNS_6__lessIjjEEEERKT_S5_S5_T0_)
                  0000c6ae    0000001e     I2C_monitor.obj (.text:_ZNSt3__23minIjNS_6__lessIjjEEEERKT_S5_S5_T0_)
                  0000c6cc    0000001c     I2C_monitor.obj (.text:_ZNSt3__29__advanceIPP6I2cMsgEEvRT_NS_15iterator_traitsIS4_E15difference_typeENS_26random_access_iterator_tagE)
                  0000c6e8    0000001c     rtsv7M4_T_le_v4SPD16_eabi.lib : assert.c.obj (.text:_abort_msg)
                  0000c704    0000001c                                   : memory.c.obj (.text:free_list_remove)
                  0000c720    0000001c                                   : memccpy.c.obj (.text:memccpy)
                  0000c73c    0000001a                                   : s_copysign.c.obj (.text:copysign)
                  0000c756    00000018     I2C_monitor.obj (.text:_ZNSt3__210__distanceIPP6I2cMsgEENS_15iterator_traitsIT_E15difference_typeES5_S5_NS_26random_access_iterator_tagE)
                  0000c76e    00000018     rtsv7M4_T_le_v4SPD16_eabi.lib : sprintf.c.obj (.text:_outs)
                  0000c786    00000018                                   : strcmp.c.obj (.text:strcmp)
                  0000c79e    00000016     console_task.obj (.text:_ZNKSt3__213__vector_baseIP11ConsolePageNS_9allocatorIS2_EEE8capacityEv)
                  0000c7b4    00000016     I2C_monitor.obj (.text:_ZNKSt3__213__vector_baseIP6I2cMsgNS_9allocatorIS2_EEE8capacityEv)
                  0000c7ca    00000016     console_task.obj (.text:_ZNKSt3__214__split_bufferIP11ConsolePageRNS_9allocatorIS2_EEE8capacityEv)
                  0000c7e0    00000016     I2C_task.obj (.text:_ZNKSt3__214__split_bufferIP6I2cMsgRNS_9allocatorIS2_EEE8capacityEv)
                  0000c7f6    00000016     console_task.obj (.text:_ZNKSt3__26vectorIP11ConsolePageNS_9allocatorIS2_EEE4sizeEv)
                  0000c80c    00000016     I2C_monitor.obj (.text:_ZNKSt3__26vectorIP6I2cMsgNS_9allocatorIS2_EEE4sizeEv)
                  0000c822    00000016     console_task.obj (.text:_ZNSt3__222__compressed_pair_elemIPP11ConsolePageLi0ELb0EEC1IDnvEEOT_)
                  0000c838    00000016     I2C_monitor.obj (.text:_ZNSt3__222__compressed_pair_elemIPP6I2cMsgLi0ELb0EEC1IDnvEEOT_)
                  0000c84e    00000016     console_task.obj (.text:_ZNSt3__26vectorIP11ConsolePageNS_9allocatorIS2_EEEixEj)
                  0000c864    00000016     I2C_monitor.obj (.text:_ZNSt3__26vectorIP6I2cMsgNS_9allocatorIS2_EEEixEj)
                  0000c87a    00000016     rtsv7M4_T_le_v4SPD16_eabi.lib : strchr.c.obj (.text:strchr)
                  0000c890    00000014     I2C_monitor.obj (.text:_ZNSt3__213__vector_baseIP6I2cMsgNS_9allocatorIS2_EEE19__copy_assign_allocERKS5_)
                  0000c8a4    00000014     console_task.obj (.text:_ZNSt3__214__split_bufferIP11ConsolePageRNS_9allocatorIS2_EEE17__destruct_at_endEPS2_)
                  0000c8b8    00000014     I2C_task.obj (.text:_ZNSt3__214__split_bufferIP6I2cMsgRNS_9allocatorIS2_EEE17__destruct_at_endEPS2_)
                  0000c8cc    00000014     console_task.obj (.text:_ZNSt3__216allocator_traitsINS_9allocatorIP11ConsolePageEEE10deallocateERS4_PS3_j)
                  0000c8e0    00000014     console_task.obj (.text:_ZNSt3__216allocator_traitsINS_9allocatorIP11ConsolePageEEE7destroyIS3_EEvRS4_PT_)
                  0000c8f4    00000014     console_task.obj (.text:_ZNSt3__216allocator_traitsINS_9allocatorIP11ConsolePageEEE9__destroyIS3_EEvNS_17integral_constantIbLb1EEERS4_PT_)
                  0000c908    00000014     I2C_monitor.obj (.text:_ZNSt3__216allocator_traitsINS_9allocatorIP6I2cMsgEEE10deallocateERS4_PS3_j)
                  0000c91c    00000014     I2C_monitor.obj (.text:_ZNSt3__216allocator_traitsINS_9allocatorIP6I2cMsgEEE7destroyIS3_EEvRS4_PT_)
                  0000c930    00000014     I2C_monitor.obj (.text:_ZNSt3__216allocator_traitsINS_9allocatorIP6I2cMsgEEE9__destroyIS3_EEvNS_17integral_constantIbLb1EEERS4_PT_)
                  0000c944    00000014     console_task.obj (.text:_ZNSt3__222__compressed_pair_elemIRNS_9allocatorIP11ConsolePageEELi1ELb0EEC1IS5_vEEOT_)
                  0000c958    00000014     I2C_task.obj (.text:_ZNSt3__222__compressed_pair_elemIRNS_9allocatorIP6I2cMsgEELi1ELb0EEC1IS5_vEEOT_)
                  0000c96c    00000014     I2C_monitor.obj (.text:_ZNSt3__23maxIjEERKT_S3_S3_)
                  0000c980    00000014     I2C_monitor.obj (.text:_ZNSt3__23minIjEERKT_S3_S3_)
                  0000c994    00000014     I2C_monitor.obj (.text:_ZNSt3__27advanceIPP6I2cMsgEEvRT_NS_15iterator_traitsIS4_E15difference_typeE)
                  0000c9a8    00000014     I2C_monitor.obj (.text:_ZNSt3__28distanceIPP6I2cMsgEENS_15iterator_traitsIT_E15difference_typeES5_S5_)
                  0000c9bc    00000014     rtsv7M4_T_le_v4SPD16_eabi.lib : strcpy.c.obj (.text:strcpy)
                  0000c9d0    00000014                                   : strlen.c.obj (.text:strlen)
                  0000c9e4    00000012     console_task.obj (.text:_ZNSt3__216allocator_traitsINS_9allocatorIP11ConsolePageEEE8allocateERS4_j)
                  0000c9f6    00000012     I2C_monitor.obj (.text:_ZNSt3__216allocator_traitsINS_9allocatorIP6I2cMsgEEE8allocateERS4_j)
                  0000ca08    00000012     rtsv7M4_T_le_v4SPD16_eabi.lib : wcslen.c.obj (.text:wcslen)
                  0000ca1a    00000010     console_task.obj (.text:_ZNKSt3__26vectorIP11ConsolePageNS_9allocatorIS2_EEE31__annotate_contiguous_containerEPKvS7_S7_S7_)
                  0000ca2a    00000010     I2C_monitor.obj (.text:_ZNKSt3__26vectorIP6I2cMsgNS_9allocatorIS2_EEE31__annotate_contiguous_containerEPKvS7_S7_S7_)
                  0000ca3a    00000010     I2C_monitor.obj (.text:_ZNSt3__213__vector_baseIP6I2cMsgNS_9allocatorIS2_EEE19__copy_assign_allocERKS5_NS_17integral_constantIbLb0EEE)
                  0000ca4a    00000010     I2C_monitor.obj (.text:_ZNSt3__213__vector_baseIP6I2cMsgNS_9allocatorIS2_EEE5clearEv)
                  0000ca5a    00000010     console_task.obj (.text:_ZNSt3__214__split_bufferIP11ConsolePageRNS_9allocatorIS2_EEE5clearEv)
                  0000ca6a    00000010     I2C_task.obj (.text:_ZNSt3__214__split_bufferIP6I2cMsgRNS_9allocatorIS2_EEE5clearEv)
                  0000ca7a    00000010     console_task.obj (.text:_ZNSt3__216allocator_traitsINS_9allocatorIP11ConsolePageEEE10__max_sizeENS_17integral_constantIbLb1EEERKS4_)
                  0000ca8a    00000010     console_task.obj (.text:_ZNSt3__216allocator_traitsINS_9allocatorIP11ConsolePageEEE8max_sizeERKS4_)
                  0000ca9a    00000010     I2C_monitor.obj (.text:_ZNSt3__216allocator_traitsINS_9allocatorIP6I2cMsgEEE10__max_sizeENS_17integral_constantIbLb1EEERKS4_)
                  0000caaa    00000010     I2C_monitor.obj (.text:_ZNSt3__216allocator_traitsINS_9allocatorIP6I2cMsgEEE8max_sizeERKS4_)
                  0000caba    00000010     console_task.obj (.text:_ZNSt3__222__compressed_pair_elemIPP11ConsolePageLi0ELb0EEC2IDnvEEOT_)
                  0000caca    00000010     I2C_monitor.obj (.text:_ZNSt3__222__compressed_pair_elemIPP6I2cMsgLi0ELb0EEC2IDnvEEOT_)
                  0000cada    00000010     console_task.obj (.text:_ZNSt3__222__compressed_pair_elemIRNS_9allocatorIP11ConsolePageEELi1ELb0EEC2IS5_vEEOT_)
                  0000caea    00000010     I2C_task.obj (.text:_ZNSt3__222__compressed_pair_elemIRNS_9allocatorIP6I2cMsgEELi1ELb0EEC2IS5_vEEOT_)
                  0000cafa    00000010     console_task.obj (.text:_ZNSt3__26vectorIP11ConsolePageNS_9allocatorIS2_EEE24__RAII_IncreaseAnnotatorC1ERKS5_j)
                  0000cb0a    00000010     I2C_monitor.obj (.text:_ZNSt3__26vectorIP6I2cMsgNS_9allocatorIS2_EEE24__RAII_IncreaseAnnotatorC1ERKS5_j)
                  0000cb1a    00000010     console_task.obj (.text:_ZNSt3__29allocatorIP11ConsolePageE10deallocateEPS2_j)
                  0000cb2a    00000010     I2C_monitor.obj (.text:_ZNSt3__29allocatorIP6I2cMsgE10deallocateEPS2_j)
                  0000cb3a    0000000e     rtsv7M4_T_le_v4SPD16_eabi.lib : typeinfo.c.obj (.text:_ZN10__cxxabiv117__class_type_infoD0Ev)
                  0000cb48    0000000e                                   : typeinfo.c.obj (.text:_ZN10__cxxabiv120__si_class_type_infoD0Ev)
                  0000cb56    0000000e     console_task.obj (.text:_ZNKSt3__213__vector_baseIP11ConsolePageNS_9allocatorIS2_EEE7__allocEv)
                  0000cb64    0000000e     console_task.obj (.text:_ZNKSt3__213__vector_baseIP11ConsolePageNS_9allocatorIS2_EEE9__end_capEv)
                  0000cb72    0000000e     I2C_monitor.obj (.text:_ZNKSt3__213__vector_baseIP6I2cMsgNS_9allocatorIS2_EEE7__allocEv)
                  0000cb80    0000000e     I2C_monitor.obj (.text:_ZNKSt3__213__vector_baseIP6I2cMsgNS_9allocatorIS2_EEE9__end_capEv)
                  0000cb8e    0000000e     console_task.obj (.text:_ZNKSt3__214__split_bufferIP11ConsolePageRNS_9allocatorIS2_EEE9__end_capEv)
                  0000cb9c    0000000e     I2C_task.obj (.text:_ZNKSt3__214__split_bufferIP6I2cMsgRNS_9allocatorIS2_EEE9__end_capEv)
                  0000cbaa    0000000e     console_task.obj (.text:_ZNKSt3__26vectorIP11ConsolePageNS_9allocatorIS2_EEE4dataEv)
                  0000cbb8    0000000e     I2C_monitor.obj (.text:_ZNKSt3__26vectorIP6I2cMsgNS_9allocatorIS2_EEE4dataEv)
                  0000cbc6    0000000e     console_task.obj (.text:_ZNKSt3__29allocatorIP11ConsolePageE8max_sizeEv)
                  0000cbd4    0000000e     I2C_monitor.obj (.text:_ZNKSt3__29allocatorIP6I2cMsgE8max_sizeEv)
                  0000cbe2    0000000e     console_task.obj (.text:_ZNSt3__213__vector_baseIP11ConsolePageNS_9allocatorIS2_EEE7__allocEv)
                  0000cbf0    0000000e     console_task.obj (.text:_ZNSt3__213__vector_baseIP11ConsolePageNS_9allocatorIS2_EEE9__end_capEv)
                  0000cbfe    0000000e     I2C_monitor.obj (.text:_ZNSt3__213__vector_baseIP6I2cMsgNS_9allocatorIS2_EEE7__allocEv)
                  0000cc0c    0000000e     I2C_monitor.obj (.text:_ZNSt3__213__vector_baseIP6I2cMsgNS_9allocatorIS2_EEE9__end_capEv)
                  0000cc1a    0000000e     console_task.obj (.text:_ZNSt3__214__split_bufferIP11ConsolePageRNS_9allocatorIS2_EEE7__allocEv)
                  0000cc28    0000000e     console_task.obj (.text:_ZNSt3__214__split_bufferIP11ConsolePageRNS_9allocatorIS2_EEE9__end_capEv)
                  0000cc36    0000000e     I2C_task.obj (.text:_ZNSt3__214__split_bufferIP6I2cMsgRNS_9allocatorIS2_EEE7__allocEv)
                  0000cc44    0000000e     I2C_task.obj (.text:_ZNSt3__214__split_bufferIP6I2cMsgRNS_9allocatorIS2_EEE9__end_capEv)
                  0000cc52    0000000e     console_task.obj (.text:_ZNSt3__217__compressed_pairIPP11ConsolePageRNS_9allocatorIS2_EEE6secondEv)
                  0000cc60    0000000e     I2C_task.obj (.text:_ZNSt3__217__compressed_pairIPP6I2cMsgRNS_9allocatorIS2_EEE6secondEv)
                  0000cc6e    0000000e     console_task.obj (.text:_ZNSt3__222__compressed_pair_elemINS_9allocatorIP11ConsolePageEELi1ELb1EEC1Ev)
                  0000cc7c    0000000e     I2C_monitor.obj (.text:_ZNSt3__222__compressed_pair_elemINS_9allocatorIP6I2cMsgEELi1ELb1EEC1Ev)
                  0000cc8a    0000000e     console_task.obj (.text:_ZNSt3__222__compressed_pair_elemIRNS_9allocatorIP11ConsolePageEELi1ELb0EE5__getEv)
                  0000cc98    0000000e     I2C_task.obj (.text:_ZNSt3__222__compressed_pair_elemIRNS_9allocatorIP6I2cMsgEELi1ELb0EE5__getEv)
                  0000cca6    0000000e     console_task.obj (.text:_ZNSt3__26vectorIP11ConsolePageNS_9allocatorIS2_EEEC1Ev)
                  0000ccb4    0000000e     I2C_monitor.obj (.text:_ZNSt3__26vectorIP6I2cMsgNS_9allocatorIS2_EEEC1Ev)
                  0000ccc2    0000000e     I2C_task.obj (.text:_ZnwjPv)
                  0000ccd0    0000000e     rtsv7M4_T_le_v4SPD16_eabi.lib : copy_decompress_none.c.obj (.text:decompress:none:__TI_decompress_none)
                  0000ccde    0000000c     console_task.obj (.text:_ZNKSt3__217__compressed_pairIPP11ConsolePageNS_9allocatorIS2_EEE5firstEv)
                  0000ccea    0000000c     console_task.obj (.text:_ZNKSt3__217__compressed_pairIPP11ConsolePageNS_9allocatorIS2_EEE6secondEv)
                  0000ccf6    0000000c     console_task.obj (.text:_ZNKSt3__217__compressed_pairIPP11ConsolePageRNS_9allocatorIS2_EEE5firstEv)
                  0000cd02    0000000c     I2C_monitor.obj (.text:_ZNKSt3__217__compressed_pairIPP6I2cMsgNS_9allocatorIS2_EEE5firstEv)
                  0000cd0e    0000000c     I2C_monitor.obj (.text:_ZNKSt3__217__compressed_pairIPP6I2cMsgNS_9allocatorIS2_EEE6secondEv)
                  0000cd1a    0000000c     I2C_task.obj (.text:_ZNKSt3__217__compressed_pairIPP6I2cMsgRNS_9allocatorIS2_EEE5firstEv)
                  0000cd26    00000002     --HOLE-- [fill = 0]
                  0000cd28    0000000c     rtsv7M4_T_le_v4SPD16_eabi.lib : vector.cpp.obj (.text:_ZNKSt3__220__vector_base_commonILb1EE20__throw_length_errorEv)
                  0000cd34    0000000c     console_task.obj (.text:_ZNKSt3__222__compressed_pair_elemINS_9allocatorIP11ConsolePageEELi1ELb1EE5__getEv)
                  0000cd40    0000000c     I2C_monitor.obj (.text:_ZNKSt3__222__compressed_pair_elemINS_9allocatorIP6I2cMsgEELi1ELb1EE5__getEv)
                  0000cd4c    0000000c     console_task.obj (.text:_ZNKSt3__222__compressed_pair_elemIPP11ConsolePageLi0ELb0EE5__getEv)
                  0000cd58    0000000c     I2C_monitor.obj (.text:_ZNKSt3__222__compressed_pair_elemIPP6I2cMsgLi0ELb0EE5__getEv)
                  0000cd64    0000000c     console_task.obj (.text:_ZNKSt3__26vectorIP11ConsolePageNS_9allocatorIS2_EEE8capacityEv)
                  0000cd70    0000000c     I2C_monitor.obj (.text:_ZNKSt3__26vectorIP6I2cMsgNS_9allocatorIS2_EEE8capacityEv)
                  0000cd7c    0000000c     I2C_monitor.obj (.text:_ZNSt3__210__allocateEj)
                  0000cd88    0000000c     I2C_monitor.obj (.text:_ZNSt3__213__unwrap_iterIPP6I2cMsgEET_S4_)
                  0000cd94    0000000c     console_task.obj (.text:_ZNSt3__213__vector_baseIP11ConsolePageNS_9allocatorIS2_EEEC2Ev)
                  0000cda0    0000000c     I2C_monitor.obj (.text:_ZNSt3__213__vector_baseIP6I2cMsgNS_9allocatorIS2_EEEC2Ev)
                  0000cdac    0000000c     console_task.obj (.text:_ZNSt3__216__to_raw_pointerIP11ConsolePageEEPT_S4_)
                  0000cdb8    0000000c     I2C_monitor.obj (.text:_ZNSt3__216__to_raw_pointerIP6I2cMsgEEPT_S4_)
                  0000cdc4    0000000c     console_task.obj (.text:_ZNSt3__217__compressed_pairIPP11ConsolePageNS_9allocatorIS2_EEE5firstEv)
                  0000cdd0    0000000c     console_task.obj (.text:_ZNSt3__217__compressed_pairIPP11ConsolePageNS_9allocatorIS2_EEE6secondEv)
                  0000cddc    0000000c     console_task.obj (.text:_ZNSt3__217__compressed_pairIPP11ConsolePageRNS_9allocatorIS2_EEE5firstEv)
                  0000cde8    0000000c     I2C_monitor.obj (.text:_ZNSt3__217__compressed_pairIPP6I2cMsgNS_9allocatorIS2_EEE5firstEv)
                  0000cdf4    0000000c     I2C_monitor.obj (.text:_ZNSt3__217__compressed_pairIPP6I2cMsgNS_9allocatorIS2_EEE6secondEv)
                  0000ce00    0000000c     I2C_task.obj (.text:_ZNSt3__217__compressed_pairIPP6I2cMsgRNS_9allocatorIS2_EEE5firstEv)
                  0000ce0c    0000000c     I2C_monitor.obj (.text:_ZNSt3__219__libcpp_deallocateEPv)
                  0000ce18    0000000c     console_task.obj (.text:_ZNSt3__222__compressed_pair_elemINS_9allocatorIP11ConsolePageEELi1ELb1EE5__getEv)
                  0000ce24    0000000c     console_task.obj (.text:_ZNSt3__222__compressed_pair_elemINS_9allocatorIP11ConsolePageEELi1ELb1EEC2Ev)
                  0000ce30    0000000c     I2C_monitor.obj (.text:_ZNSt3__222__compressed_pair_elemINS_9allocatorIP6I2cMsgEELi1ELb1EE5__getEv)
                  0000ce3c    0000000c     I2C_monitor.obj (.text:_ZNSt3__222__compressed_pair_elemINS_9allocatorIP6I2cMsgEELi1ELb1EEC2Ev)
                  0000ce48    0000000c     console_task.obj (.text:_ZNSt3__222__compressed_pair_elemIPP11ConsolePageLi0ELb0EE5__getEv)
                  0000ce54    0000000c     I2C_monitor.obj (.text:_ZNSt3__222__compressed_pair_elemIPP6I2cMsgLi0ELb0EE5__getEv)
                  0000ce60    0000000c     I2C_task.obj (.text:_ZNSt3__24moveIRP6I2cMsgEEONS_16remove_referenceIT_E4typeEOS5_)
                  0000ce6c    0000000c     console_task.obj (.text:_ZNSt3__24moveIRPP11ConsolePageEEONS_16remove_referenceIT_E4typeEOS6_)
                  0000ce78    0000000c     I2C_task.obj (.text:_ZNSt3__24moveIRPP6I2cMsgEEONS_16remove_referenceIT_E4typeEOS6_)
                  0000ce84    0000000c     I2C_monitor.obj (.text:_ZNSt3__26vectorIP6I2cMsgNS_9allocatorIS2_EEE27__invalidate_iterators_pastEPS2_)
                  0000ce90    0000000c     I2C_monitor.obj (.text:_ZNSt3__27forwardIDnEEOT_RNS_16remove_referenceIS1_E4typeE)
                  0000ce9c    0000000c     I2C_task.obj (.text:_ZNSt3__27forwardIP6I2cMsgEEOT_RNS_16remove_referenceIS3_E4typeE)
                  0000cea8    0000000c     console_task.obj (.text:_ZNSt3__27forwardIRKP11ConsolePageEEOT_RNS_16remove_referenceIS5_E4typeE)
                  0000ceb4    0000000c     console_task.obj (.text:_ZNSt3__27forwardIRNS_9allocatorIP11ConsolePageEEEEOT_RNS_16remove_referenceIS6_E4typeE)
                  0000cec0    0000000c     I2C_task.obj (.text:_ZNSt3__27forwardIRNS_9allocatorIP6I2cMsgEEEEOT_RNS_16remove_referenceIS6_E4typeE)
                  0000cecc    0000000c     console_task.obj (.text:_ZNSt3__29allocatorIP11ConsolePageE7destroyEPS2_)
                  0000ced8    0000000c     console_task.obj (.text:_ZNSt3__29allocatorIP11ConsolePageEC1Ev)
                  0000cee4    0000000c     console_task.obj (.text:_ZNSt3__29allocatorIP11ConsolePageEC2Ev)
                  0000cef0    0000000c     I2C_monitor.obj (.text:_ZNSt3__29allocatorIP6I2cMsgE7destroyEPS2_)
                  0000cefc    0000000c     I2C_monitor.obj (.text:_ZNSt3__29allocatorIP6I2cMsgEC1Ev)
                  0000cf08    0000000c     I2C_monitor.obj (.text:_ZNSt3__29allocatorIP6I2cMsgEC2Ev)
                  0000cf14    0000000c     rtsv7M4_T_le_v4SPD16_eabi.lib : copy_zero_init.c.obj (.text:decompress:ZI:__TI_zero_init)
                  0000cf20    0000000c     tm4c123gh6pm_startup_ccs.obj (.text)
                  0000cf2c    0000000a     I2C_monitor.obj (.text:_ZNSt3__220__throw_length_errorEPKc)
                  0000cf36    0000000a     console_task.obj (.text:_ZNSt3__26vectorIP11ConsolePageNS_9allocatorIS2_EEE24__RAII_IncreaseAnnotator6__doneEv)
                  0000cf40    0000000a     console_task.obj (.text:_ZNSt3__26vectorIP11ConsolePageNS_9allocatorIS2_EEE26__invalidate_all_iteratorsEv)
                  0000cf4a    0000000a     I2C_monitor.obj (.text:_ZNSt3__26vectorIP6I2cMsgNS_9allocatorIS2_EEE24__RAII_IncreaseAnnotator6__doneEv)
                  0000cf54    0000000a     I2C_monitor.obj (.text:_ZNSt3__26vectorIP6I2cMsgNS_9allocatorIS2_EEE26__invalidate_all_iteratorsEv)
                  0000cf5e    0000000a     rtsv7M4_T_le_v4SPD16_eabi.lib : sprintf.c.obj (.text:_outc)
                  0000cf68    00000008                                   : errno.c.obj (.text:__aeabi_errno_addr)
                  0000cf70    00000008                                   : memory.c.obj (.text:malloc)
                  0000cf78    00000006     sysctl.obj (.text:SysCtlDelay)
                  0000cf7e    00000006     rtsv7M4_T_le_v4SPD16_eabi.lib : pure_virt.c.obj (.text:__cxa_pure_virtual)
                  0000cf84    00000004                                   : typeinfo.c.obj (.text:_ZN10__cxxabiv117__class_type_infoD1Ev)
                  0000cf88    00000004                                   : typeinfo.c.obj (.text:_ZN10__cxxabiv120__si_class_type_infoD1Ev)
                  0000cf8c    00000004                                   : new.cpp.obj (.text:_ZdlPvj)
                  0000cf90    00000004                                   : error.c.obj (.text:__abort_execution)
                  0000cf94    00000004                                   : pre_init.c.obj (.text:_system_pre_init)
                  0000cf98    00000004                                   : exit.c.obj (.text:abort:abort)

.const     0    0000cf9c    00000a54     
                  0000cf9c    00000120     sysctl.obj (.const:g_pppui32XTALtoVCO)
                  0000d0bc    00000101     rtsv7M4_T_le_v4SPD16_eabi.lib : ctype.c.obj (.const:.string:_ctypes_)
                  0000d1bd    00000003     --HOLE-- [fill = 0]
                  0000d1c0    000000c0     gpio.obj (.const:g_ppui32GPIOIntMapBlizzard)
                  0000d280    000000c0     gpio.obj (.const:g_ppui32GPIOIntMapSnowflake)
                  0000d340    0000009c     interrupt.obj (.const:g_pui32Regs)
                  0000d3dc    00000090     gpio.obj (.const:g_pui32GPIOBaseAddrs)
                  0000d46c    0000006c     sysctl.obj (.const:g_pui32Xtals)
                  0000d4d8    00000060     timer.obj (.const:g_ppui32TimerIntMap)
                  0000d538    00000050     i2c.obj (.const:g_ppui32I2CIntMapSnowflake)
                  0000d588    00000044     console_task.obj (.const:.string:_ZZNSt3__29allocatorIP11ConsolePageE8allocateEjPKvEs)
                  0000d5cc    00000044     I2C_monitor.obj (.const:.string:_ZZNSt3__29allocatorIP6I2cMsgE8allocateEjPKvEs)
                  0000d610    00000040     timer.obj (.const:g_ppui32TimerIntMapSnowflake)
                  0000d650    00000040     uart.obj (.const:g_ppui32UARTIntMap)
                  0000d690    00000040     uart.obj (.const:g_ppui32UARTIntMapSnowflake)
                  0000d6d0    00000030     i2c.obj (.const:g_ppui32I2CIntMap)
                  0000d700    00000030     sysctl.obj (.const:g_sXTALtoMEMTIM)
                  0000d730    00000025     rtsv7M4_T_le_v4SPD16_eabi.lib : typeinfo.c.obj (.const:.typeinfo:_ZTSN10__cxxabiv120__si_class_type_infoE)
                  0000d755    00000022                                   : typeinfo.c.obj (.const:.typeinfo:_ZTSN10__cxxabiv117__class_type_infoE)
                  0000d777    00000001     --HOLE-- [fill = 0]
                  0000d778    00000020     interrupt.obj (.const:g_pui32Priority)
                  0000d798    00000014     console_task.obj (.const:_ZTV11ConsolePage)
                  0000d7ac    00000014     console_task.obj (.const:_ZTV11ConsoleTask)
                  0000d7c0    00000014     error_logger.obj (.const:_ZTV11ErrorLogger)
                  0000d7d4    00000014     task_manager.obj (.const:_ZTV11TaskManager)
                  0000d7e8    00000014     I2C_monitor.obj (.const:_ZTV14I2cMonitorTask)
                  0000d7fc    00000014     I2C_sniffer.obj (.const:_ZTV14I2cSnifferTask)
                  0000d810    00000014     I2C_task.obj (.const:_ZTV7I2cTask)
                  0000d824    00000014     test_task.obj (.const:_ZTV8TestTask)
                  0000d838    00000014     interrupt.obj (.const:g_pui32Dii16Regs)
                  0000d84c    00000014     interrupt.obj (.const:g_pui32EnRegs)
                  0000d860    00000014     interrupt.obj (.const:g_pui32PendRegs)
                  0000d874    00000014     interrupt.obj (.const:g_pui32UnpendRegs)
                  0000d888    00000012     uartstdio.obj (.const:.string)
                  0000d89a    00000011     I2C_monitor.obj (.const:.typeinfo:_ZTS14I2cMonitorTask)
                  0000d8ab    00000011     I2C_sniffer.obj (.const:.typeinfo:_ZTS14I2cSnifferTask)
                  0000d8bc    00000010     rtsv7M4_T_le_v4SPD16_eabi.lib : typeinfo.c.obj (.const:_ZTVN10__cxxabiv117__class_type_infoE)
                  0000d8cc    00000010                                   : typeinfo.c.obj (.const:_ZTVN10__cxxabiv120__si_class_type_infoE)
                  0000d8dc    0000000e     I2C_monitor.obj (.const:.typeinfo:_ZTS11ConsolePage)
                  0000d8ea    0000000e     console_task.obj (.const:.typeinfo:_ZTS11ConsoleTask)
                  0000d8f8    0000000e     error_logger.obj (.const:.typeinfo:_ZTS11ErrorLogger)
                  0000d906    0000000e     task_manager.obj (.const:.typeinfo:_ZTS11TaskManager)
                  0000d914    0000000d     rtsv7M4_T_le_v4SPD16_eabi.lib : stdlib_typeinfo.cpp.obj (.const:.typeinfo:_ZTSSt9type_info)
                  0000d921    00000003     --HOLE-- [fill = 0]
                  0000d924    0000000c     console_task.obj (.const:.typeinfo:_ZTI11ConsoleTask)
                  0000d930    0000000c     error_logger.obj (.const:.typeinfo:_ZTI11ErrorLogger)
                  0000d93c    0000000c     task_manager.obj (.const:.typeinfo:_ZTI11TaskManager)
                  0000d948    0000000c     I2C_monitor.obj (.const:.typeinfo:_ZTI14I2cMonitorTask)
                  0000d954    0000000c     I2C_sniffer.obj (.const:.typeinfo:_ZTI14I2cSnifferTask)
                  0000d960    0000000c     I2C_task.obj (.const:.typeinfo:_ZTI7I2cTask)
                  0000d96c    0000000c     test_task.obj (.const:.typeinfo:_ZTI8TestTask)
                  0000d978    0000000c     rtsv7M4_T_le_v4SPD16_eabi.lib : typeinfo.c.obj (.const:.typeinfo:_ZTIN10__cxxabiv117__class_type_infoE)
                  0000d984    0000000c                                   : typeinfo.c.obj (.const:.typeinfo:_ZTIN10__cxxabiv120__si_class_type_infoE)
                  0000d990    0000000c     uartstdio.obj (.const:g_ui32UARTBase)
                  0000d99c    0000000c     uartstdio.obj (.const:g_ui32UARTPeriph)
                  0000d9a8    0000000a     test_task.obj (.const:.typeinfo:_ZTS8TestTask)
                  0000d9b2    00000009     I2C_task.obj (.const:.typeinfo:_ZTS7I2cTask)
                  0000d9bb    00000001     --HOLE-- [fill = 0]
                  0000d9bc    00000008     I2C_monitor.obj (.const:.typeinfo:_ZTI11ConsolePage)
                  0000d9c4    00000008     rtsv7M4_T_le_v4SPD16_eabi.lib : stdlib_typeinfo.cpp.obj (.const:.typeinfo:_ZTISt9type_info)
                  0000d9cc    00000008     sysctl.obj (.const:g_pui32VCOFrequencies)
                  0000d9d4    00000008     port.obj (.const)
                  0000d9dc    00000007     rtsv7M4_T_le_v4SPD16_eabi.lib : vector.cpp.obj (.const:.string:_ZZNKSt3__220__vector_base_commonILb1EE20__throw_length_errorEvEs)
                  0000d9e3    00000001     --HOLE-- [fill = 0]
                  0000d9e4    00000006     no_booster_board.obj (.const:.string)
                  0000d9ea    00000002     --HOLE-- [fill = 0]
                  0000d9ec    00000004     uartstdio.obj (.const)

.cinit     0    0000d9f0    000000d0     
                  0000d9f0    00000099     (.cinit..data.load) [load image, compression = lzss]
                  0000da89    00000003     --HOLE-- [fill = 0]
                  0000da8c    0000000c     (__TI_handler_table)
                  0000da98    00000008     (.cinit..bss.load) [load image, compression = zero_init]
                  0000daa0    00000008     (.cinit..vtable.load) [load image, compression = zero_init]
                  0000daa8    00000018     (__TI_cinit_table)

.init_array 
*          0    00000000    00000000     UNINITIALIZED

.vtable    0    20000000    0000026c     UNINITIALIZED
                  20000000    0000026c     interrupt.obj (.vtable)

.bss       0    2000026c    0000439c     UNINITIALIZED
                  2000026c    00003c00     (.common:ucHeap)
                  20003e6c    000004b0     error_logger.obj (.bss:errors)
                  2000431c    00000120     rtsv7M4_T_le_v4SPD16_eabi.lib : trgmsg.c.obj (.bss:_CIOBUF_)
                  2000443c    000000a0     (.common:__TI_tmpnams)
                  200044dc    00000064     tasks.obj (.bss:pxReadyTasksLists)
                  20004540    00000040     (.common:xQueueRegistry)
                  20004580    00000014     tasks.obj (.bss:xDelayedTaskList1)
                  20004594    00000014     tasks.obj (.bss:xDelayedTaskList2)
                  200045a8    00000014     tasks.obj (.bss:xPendingReadyList)
                  200045bc    00000014     tasks.obj (.bss:xSuspendedTaskList)
                  200045d0    00000014     tasks.obj (.bss:xTasksWaitingTermination)
                  200045e4    00000008     tasks.obj (.bss)
                  200045ec    00000008     heap_2.obj (.bss:xEnd)
                  200045f4    00000008     heap_2.obj (.bss:xStart)
                  200045fc    00000008     (.common:parmbuf)
                  20004604    00000004     console_uart.obj (.bss)

.stack     0    20004608    00000800     UNINITIALIZED
                  20004608    00000004     rtsv7M4_T_le_v4SPD16_eabi.lib : boot_cortex_m.c.obj (.stack)
                  2000460c    000007fc     --HOLE--

.data      0    20004e08    00000264     UNINITIALIZED
                  20004e08    000000f0     rtsv7M4_T_le_v4SPD16_eabi.lib : defs.c.obj (.data:_ftable)
                  20004ef8    00000078                                   : host_device.c.obj (.data:_device)
                  20004f70    00000050                                   : host_device.c.obj (.data:_stream)
                  20004fc0    00000034     tasks.obj (.data)
                  20004ff4    00000024     no_booster_board.obj (.data:i2c0)
                  20005018    00000010     rtsv7M4_T_le_v4SPD16_eabi.lib : defs.c.obj (.data)
                  20005028    0000000c                                   : exit.c.obj (.data:$O1$$)
                  20005034    0000000c     port.obj (.data)
                  20005040    00000008     rtsv7M4_T_le_v4SPD16_eabi.lib : _lock.c.obj (.data:$O1$$)
                  20005048    00000008                                   : memory.c.obj (.data:$O1$$)
                  20005050    00000008     error_logger.obj (.data)
                  20005058    00000008     heap_2.obj (.data)
                  20005060    00000005     uartstdio.obj (.data)
                  20005065    00000001     I2C_sniffer.obj (.data)
                  20005066    00000002     --HOLE--
                  20005068    00000004     rtsv7M4_T_le_v4SPD16_eabi.lib : errno.c.obj (.data)

.sysmem    0    20005070    00000010     UNINITIALIZED
                  20005070    00000010     rtsv7M4_T_le_v4SPD16_eabi.lib : memory.c.obj (.sysmem)

__llvm_prf_cnts 
*          0    20000000    00000000     UNINITIALIZED

MODULE SUMMARY

       Module                         code    ro data   rw data
       ------                         ----    -------   -------
    .\
       I2C_monitor.obj                2494    139       15360  
       I2C_task.obj                   5512    41        0      
       console_task.obj               3342    134       0      
       error_logger.obj               556     46        1208   
       task_manager.obj               656     46        0      
       I2C_sniffer.obj                648     49        1      
       tm4c123gh6pm_startup_ccs.obj   12      620       0      
       heap_2.obj                     508     0         24     
       no_booster_board.obj           288     6         36     
       console_uart.obj               252     0         4      
       text_controls.obj              210     0         0      
       test_task.obj                  144     42        0      
       main.obj                       60      0         0      
       memory_functions.obj           48      0         0      
       hooks.obj                      42      0         0      
    +--+------------------------------+-------+---------+---------+
       Total:                         14772   1123      16633  
                                                               
    .\FreeRTOS\
       tasks.obj                      7644    0         260    
       queue.obj                      4008    0         64     
       list.obj                       298     0         0      
    +--+------------------------------+-------+---------+---------+
       Total:                         11950   0         324    
                                                               
    .\FreeRTOS\portable\CCS\ARM_CM4F\
       port.obj                       652     8         12     
       portasm.obj                    218     0         0      
    +--+------------------------------+-------+---------+---------+
       Total:                         870     8         12     
                                                               
    .\driverlib\
       sysctl.obj                     3834    452       0      
       gpio.obj                       2952    528       0      
       interrupt.obj                  960     268       620    
       i2c.obj                        1692    128       0      
       timer.obj                      1602    160       0      
       uart.obj                       1560    128       0      
       fpu.obj                        192     0         0      
       cpu.obj                        62      0         0      
    +--+------------------------------+-------+---------+---------+
       Total:                         12854   1664      620    
                                                               
    .\utils\
       uartstdio.obj                  1192    46        5      
    +--+------------------------------+-------+---------+---------+
       Total:                         1192    46        5      
                                                               
    C:\ti\ccs1020\ccs\tools\compiler\ti-cgt-arm_20.2.2.LTS\lib\rtsv7M4_T_le_v4SPD16_eabi.lib
       _printfi.c.obj                 4851    0         0      
       memory.c.obj                   672     0         8      
       fd_add_t2.asm.obj              438     0         0      
       defs.c.obj                     0       0         416    
       trgmsg.c.obj                   108     0         288    
       fd_div_t2.asm.obj              310     0         0      
       fputs.c.obj                    276     0         0      
       s_scalbn.c.obj                 272     0         0      
       fd_cmp_t2.asm.obj              268     0         0      
       ctype.c.obj                    0       257       0      
       fd_mul_t2.asm.obj              252     0         0      
       setvbuf.c.obj                  220     0         0      
       fflush.c.obj                   200     0         0      
       host_device.c.obj              0       0         200    
       typeinfo.c.obj                 36      127       0      
       memcpy_t2.asm.obj              156     0         0      
       ull_div_t2.asm.obj             150     0         0      
       memset_t2.asm.obj              122     0         0      
       fclose.c.obj                   116     0         0      
       getdevice.c.obj                116     0         0      
       hostrename.c.obj               108     0         0      
       copy_decompress_lzss.c.obj     104     0         0      
       hostlseek.c.obj                104     0         0      
       hostopen.c.obj                 96      0         8      
       fseek.c.obj                    100     0         0      
       s_frexp.c.obj                  100     0         0      
       _io_perm.c.obj                 98      0         0      
       sprintf.c.obj                  98      0         0      
       close.c.obj                    92      0         0      
       exit.c.obj                     76      0         12     
       hostread.c.obj                 88      0         0      
       hostwrite.c.obj                88      0         0      
       _ltoa.c.obj                    84      0         0      
       atoi.c.obj                     76      0         0      
       fd_toi_t2.asm.obj              72      0         0      
       autoinit.c.obj                 68      0         0      
       hostclose.c.obj                68      0         0      
       hostunlink.c.obj               68      0         0      
       u_divt2.asm.obj                64      0         0      
       strncpy.c.obj                  54      0         0      
       boot_cortex_m.c.obj            52      0         0      
       fopen.c.obj                    52      0         0      
       i_tofd_t2.asm.obj              46      0         0      
       unlink.c.obj                   44      0         0      
       lseek.c.obj                    40      0         0      
       memmov.c.obj                   40      0         0      
       write.c.obj                    40      0         0      
       memchr.c.obj                   32      0         0      
       assert.c.obj                   28      0         0      
       memccpy.c.obj                  28      0         0      
       s_copysign.c.obj               26      0         0      
       strcmp.c.obj                   24      0         0      
       stdlib_typeinfo.cpp.obj        2       21        0      
       strchr.c.obj                   22      0         0      
       vector.cpp.obj                 14      7         0      
       strcpy.c.obj                   20      0         0      
       strlen.c.obj                   20      0         0      
       wcslen.c.obj                   18      0         0      
       copy_decompress_none.c.obj     14      0         0      
       copy_zero_init.c.obj           12      0         0      
       errno.c.obj                    8       0         4      
       _lock.c.obj                    2       0         8      
       pure_virt.c.obj                6       0         0      
       error.c.obj                    4       0         0      
       new.cpp.obj                    4       0         0      
       pre_init.c.obj                 4       0         0      
       div0.asm.obj                   2       0         0      
    +--+------------------------------+-------+---------+---------+
       Total:                         10873   412       944    
                                                               
       Heap:                          0       0         16     
       Stack:                         0       0         2048   
       Linker Generated:              0       205       0      
    +--+------------------------------+-------+---------+---------+
       Grand Total:                   52511   3458      20602  


LINKER GENERATED COPY TABLES

__TI_cinit_table @ 0000daa8 records: 3, size/record: 8, table size: 24
	.data: load addr=0000d9f0, load size=00000099 bytes, run addr=20004e08, run size=00000264 bytes, compression=lzss
	.bss: load addr=0000da98, load size=00000008 bytes, run addr=2000026c, run size=0000439c bytes, compression=zero_init
	.vtable: load addr=0000daa0, load size=00000008 bytes, run addr=20000000, run size=0000026c bytes, compression=zero_init


LINKER GENERATED HANDLER TABLE

__TI_handler_table @ 0000da8c records: 3, size/record: 4, table size: 12
	index: 0, handler: __TI_zero_init
	index: 1, handler: __TI_decompress_lzss
	index: 2, handler: __TI_decompress_none


GLOBAL SYMBOLS: SORTED ALPHABETICALLY BY Name 

address   name                                                                                                                                                                                                                                                                             
-------   ----                                                                                                                                                                                                                                                                             
0000cf99  C$$EXIT                                                                                                                                                                                                                                                                          
0000bf9f  C$$IO$$                                                                                                                                                                                                                                                                          
0000be3f  CPUbasepriGet                                                                                                                                                                                                                                                                    
0000be31  CPUbasepriSet                                                                                                                                                                                                                                                                    
0000be0b  CPUcpsid                                                                                                                                                                                                                                                                         
0000be21  CPUcpsie                                                                                                                                                                                                                                                                         
0000be17  CPUprimask                                                                                                                                                                                                                                                                       
0000be2d  CPUwfi                                                                                                                                                                                                                                                                           
0000a903  FPUDisable                                                                                                                                                                                                                                                                       
0000a8f1  FPUEnable                                                                                                                                                                                                                                                                        
0000a96f  FPUFlushToZeroModeSet                                                                                                                                                                                                                                                            
0000a93b  FPUHalfPrecisionModeSet                                                                                                                                                                                                                                                          
0000a923  FPULazyStackingEnable                                                                                                                                                                                                                                                            
0000a955  FPUNaNModeSet                                                                                                                                                                                                                                                                    
0000a989  FPURoundingModeSet                                                                                                                                                                                                                                                               
0000a92f  FPUStackingDisable                                                                                                                                                                                                                                                               
0000a911  FPUStackingEnable                                                                                                                                                                                                                                                                
00005b83  GPIOADCTriggerDisable                                                                                                                                                                                                                                                            
00005b65  GPIOADCTriggerEnable                                                                                                                                                                                                                                                             
00005b47  GPIODMATriggerDisable                                                                                                                                                                                                                                                            
00005b29  GPIODMATriggerEnable                                                                                                                                                                                                                                                             
000050db  GPIODirModeGet                                                                                                                                                                                                                                                                   
0000507f  GPIODirModeSet                                                                                                                                                                                                                                                                   
00005643  GPIOIntClear                                                                                                                                                                                                                                                                     
00005607  GPIOIntDisable                                                                                                                                                                                                                                                                   
000055ed  GPIOIntEnable                                                                                                                                                                                                                                                                    
00005657  GPIOIntRegister                                                                                                                                                                                                                                                                  
00005621  GPIOIntStatus                                                                                                                                                                                                                                                                    
000051cb  GPIOIntTypeGet                                                                                                                                                                                                                                                                   
00005127  GPIOIntTypeSet                                                                                                                                                                                                                                                                   
00005675  GPIOIntUnregister                                                                                                                                                                                                                                                                
0000549b  GPIOPadConfigGet                                                                                                                                                                                                                                                                 
00005261  GPIOPadConfigSet                                                                                                                                                                                                                                                                 
00005acb  GPIOPinConfigure                                                                                                                                                                                                                                                                 
0000568f  GPIOPinRead                                                                                                                                                                                                                                                                      
000056c7  GPIOPinTypeADC                                                                                                                                                                                                                                                                   
000056eb  GPIOPinTypeCAN                                                                                                                                                                                                                                                                   
00005a97  GPIOPinTypeCIR                                                                                                                                                                                                                                                                   
0000570f  GPIOPinTypeComparator                                                                                                                                                                                                                                                            
00005733  GPIOPinTypeEPI                                                                                                                                                                                                                                                                   
00005757  GPIOPinTypeEthernetLED                                                                                                                                                                                                                                                           
0000577b  GPIOPinTypeEthernetMII                                                                                                                                                                                                                                                           
0000579f  GPIOPinTypeGPIOInput                                                                                                                                                                                                                                                             
000057c3  GPIOPinTypeGPIOOutput                                                                                                                                                                                                                                                            
000057e7  GPIOPinTypeGPIOOutputOD                                                                                                                                                                                                                                                          
0000580b  GPIOPinTypeI2C                                                                                                                                                                                                                                                                   
0000582f  GPIOPinTypeI2CSCL                                                                                                                                                                                                                                                                
00005a4f  GPIOPinTypeKBColumn                                                                                                                                                                                                                                                              
00005a2b  GPIOPinTypeKBRow                                                                                                                                                                                                                                                                 
00005853  GPIOPinTypeLCD                                                                                                                                                                                                                                                                   
00005a73  GPIOPinTypeLEDSeq                                                                                                                                                                                                                                                                
00005877  GPIOPinTypeLPC                                                                                                                                                                                                                                                                   
0000589b  GPIOPinTypePECIRx                                                                                                                                                                                                                                                                
000058bf  GPIOPinTypePECITx                                                                                                                                                                                                                                                                
000058e3  GPIOPinTypePWM                                                                                                                                                                                                                                                                   
00005907  GPIOPinTypeQEI                                                                                                                                                                                                                                                                   
0000592b  GPIOPinTypeSSI                                                                                                                                                                                                                                                                   
0000594f  GPIOPinTypeTimer                                                                                                                                                                                                                                                                 
00005973  GPIOPinTypeUART                                                                                                                                                                                                                                                                  
00005997  GPIOPinTypeUSBAnalog                                                                                                                                                                                                                                                             
000059bb  GPIOPinTypeUSBDigital                                                                                                                                                                                                                                                            
000059df  GPIOPinTypeWakeHigh                                                                                                                                                                                                                                                              
00005a05  GPIOPinTypeWakeLow                                                                                                                                                                                                                                                               
00005abb  GPIOPinWakeStatus                                                                                                                                                                                                                                                                
000056a7  GPIOPinWrite                                                                                                                                                                                                                                                                     
0000bbbd  HOSTclose                                                                                                                                                                                                                                                                        
0000b171  HOSTlseek                                                                                                                                                                                                                                                                        
0000b495  HOSTopen                                                                                                                                                                                                                                                                         
0000b611  HOSTread                                                                                                                                                                                                                                                                         
0000b02d  HOSTrename                                                                                                                                                                                                                                                                       
0000bc01  HOSTunlink                                                                                                                                                                                                                                                                       
0000b669  HOSTwrite                                                                                                                                                                                                                                                                        
00006bef  I2CFIFODataGet                                                                                                                                                                                                                                                                   
00006c09  I2CFIFODataGetNonBlocking                                                                                                                                                                                                                                                        
00006ba5  I2CFIFODataPut                                                                                                                                                                                                                                                                   
00006bc7  I2CFIFODataPutNonBlocking                                                                                                                                                                                                                                                        
00006b95  I2CFIFOStatus                                                                                                                                                                                                                                                                    
00006789  I2CIntRegister                                                                                                                                                                                                                                                                   
000067a7  I2CIntUnregister                                                                                                                                                                                                                                                                 
00006c45  I2CMasterBurstCountGet                                                                                                                                                                                                                                                           
00006c2f  I2CMasterBurstLengthSet                                                                                                                                                                                                                                                          
000069ed  I2CMasterBusBusy                                                                                                                                                                                                                                                                 
000069d5  I2CMasterBusy                                                                                                                                                                                                                                                                    
00006a05  I2CMasterControl                                                                                                                                                                                                                                                                 
00006a59  I2CMasterDataGet                                                                                                                                                                                                                                                                 
00006a43  I2CMasterDataPut                                                                                                                                                                                                                                                                 
00006755  I2CMasterDisable                                                                                                                                                                                                                                                                 
00006721  I2CMasterEnable                                                                                                                                                                                                                                                                  
00006a17  I2CMasterErr                                                                                                                                                                                                                                                                     
00006c53  I2CMasterGlitchFilterConfigSet                                                                                                                                                                                                                                                   
00006657  I2CMasterInitExpClk                                                                                                                                                                                                                                                              
0000694f  I2CMasterIntClear                                                                                                                                                                                                                                                                
0000696d  I2CMasterIntClearEx                                                                                                                                                                                                                                                              
0000681b  I2CMasterIntDisable                                                                                                                                                                                                                                                              
0000682b  I2CMasterIntDisableEx                                                                                                                                                                                                                                                            
000067c1  I2CMasterIntEnable                                                                                                                                                                                                                                                               
000067d1  I2CMasterIntEnableEx                                                                                                                                                                                                                                                             
00006875  I2CMasterIntStatus                                                                                                                                                                                                                                                               
000068b9  I2CMasterIntStatusEx                                                                                                                                                                                                                                                             
000069c7  I2CMasterLineStateGet                                                                                                                                                                                                                                                            
000069a5  I2CMasterSlaveAddrSet                                                                                                                                                                                                                                                            
00006a67  I2CMasterTimeoutSet                                                                                                                                                                                                                                                              
00006b55  I2CRxFIFOConfigSet                                                                                                                                                                                                                                                               
00006b7d  I2CRxFIFOFlush                                                                                                                                                                                                                                                                   
00006a79  I2CSlaveACKOverride                                                                                                                                                                                                                                                              
00006aab  I2CSlaveACKValueSet                                                                                                                                                                                                                                                              
000066e3  I2CSlaveAddressSet                                                                                                                                                                                                                                                               
00006b05  I2CSlaveDataGet                                                                                                                                                                                                                                                                  
00006aed  I2CSlaveDataPut                                                                                                                                                                                                                                                                  
0000676b  I2CSlaveDisable                                                                                                                                                                                                                                                                  
00006737  I2CSlaveEnable                                                                                                                                                                                                                                                                   
00006c83  I2CSlaveFIFODisable                                                                                                                                                                                                                                                              
00006c6b  I2CSlaveFIFOEnable                                                                                                                                                                                                                                                               
000066c9  I2CSlaveInit                                                                                                                                                                                                                                                                     
0000697f  I2CSlaveIntClear                                                                                                                                                                                                                                                                 
00006991  I2CSlaveIntClearEx                                                                                                                                                                                                                                                               
00006843  I2CSlaveIntDisable                                                                                                                                                                                                                                                               
0000685b  I2CSlaveIntDisableEx                                                                                                                                                                                                                                                             
000067e9  I2CSlaveIntEnable                                                                                                                                                                                                                                                                
00006801  I2CSlaveIntEnableEx                                                                                                                                                                                                                                                              
000068e5  I2CSlaveIntStatus                                                                                                                                                                                                                                                                
0000692d  I2CSlaveIntStatusEx                                                                                                                                                                                                                                                              
00006add  I2CSlaveStatus                                                                                                                                                                                                                                                                   
00006b15  I2CTxFIFOConfigSet                                                                                                                                                                                                                                                               
00006b3d  I2CTxFIFOFlush                                                                                                                                                                                                                                                                   
000084d5  IntDisable                                                                                                                                                                                                                                                                       
00008463  IntEnable                                                                                                                                                                                                                                                                        
00008547  IntIsEnabled                                                                                                                                                                                                                                                                     
00008327  IntMasterDisable                                                                                                                                                                                                                                                                 
00008317  IntMasterEnable                                                                                                                                                                                                                                                                  
0000863d  IntPendClear                                                                                                                                                                                                                                                                     
000085cd  IntPendSet                                                                                                                                                                                                                                                                       
0000843f  IntPriorityGet                                                                                                                                                                                                                                                                   
000083b7  IntPriorityGroupingGet                                                                                                                                                                                                                                                           
0000839d  IntPriorityGroupingSet                                                                                                                                                                                                                                                           
00008697  IntPriorityMaskGet                                                                                                                                                                                                                                                               
0000868b  IntPriorityMaskSet                                                                                                                                                                                                                                                               
000083ef  IntPrioritySet                                                                                                                                                                                                                                                                   
00008337  IntRegister                                                                                                                                                                                                                                                                      
0000869f  IntTrigger                                                                                                                                                                                                                                                                       
00008389  IntUnregister                                                                                                                                                                                                                                                                    
0000cf21  ResetISR                                                                                                                                                                                                                                                                         
00004fbf  SysCtlAltClkConfig                                                                                                                                                                                                                                                               
00004795  SysCtlClockFreqSet                                                                                                                                                                                                                                                               
00004c79  SysCtlClockGet                                                                                                                                                                                                                                                                   
00004fa3  SysCtlClockOutConfig                                                                                                                                                                                                                                                             
00004aad  SysCtlClockSet                                                                                                                                                                                                                                                                   
00004695  SysCtlDeepSleep                                                                                                                                                                                                                                                                  
00004e45  SysCtlDeepSleepClockConfigSet                                                                                                                                                                                                                                                    
00004e27  SysCtlDeepSleepClockSet                                                                                                                                                                                                                                                          
00004675  SysCtlDeepSleepPowerSet                                                                                                                                                                                                                                                          
0000cf79  SysCtlDelay                                                                                                                                                                                                                                                                      
00004223  SysCtlFlashSectorSizeGet                                                                                                                                                                                                                                                         
000041f7  SysCtlFlashSizeGet                                                                                                                                                                                                                                                               
00004f1b  SysCtlGPIOAHBDisable                                                                                                                                                                                                                                                             
00004eff  SysCtlGPIOAHBEnable                                                                                                                                                                                                                                                              
00004609  SysCtlIntClear                                                                                                                                                                                                                                                                   
000045f1  SysCtlIntDisable                                                                                                                                                                                                                                                                 
000045dd  SysCtlIntEnable                                                                                                                                                                                                                                                                  
000045b5  SysCtlIntRegister                                                                                                                                                                                                                                                                
00004619  SysCtlIntStatus                                                                                                                                                                                                                                                                  
000045cd  SysCtlIntUnregister                                                                                                                                                                                                                                                              
0000465b  SysCtlLDODeepSleepGet                                                                                                                                                                                                                                                            
0000464b  SysCtlLDODeepSleepSet                                                                                                                                                                                                                                                            
00004645  SysCtlLDOSleepGet                                                                                                                                                                                                                                                                
00004635  SysCtlLDOSleepSet                                                                                                                                                                                                                                                                
000046cb  SysCtlMOSCConfigSet                                                                                                                                                                                                                                                              
00004f8f  SysCtlNMIClear                                                                                                                                                                                                                                                                   
00004f89  SysCtlNMIStatus                                                                                                                                                                                                                                                                  
000046e1  SysCtlPIOSCCalibrate                                                                                                                                                                                                                                                             
00004ee9  SysCtlPWMClockGet                                                                                                                                                                                                                                                                
00004ecf  SysCtlPWMClockSet                                                                                                                                                                                                                                                                
00004561  SysCtlPeripheralClockGating                                                                                                                                                                                                                                                      
00004519  SysCtlPeripheralDeepSleepDisable                                                                                                                                                                                                                                                 
000044c9  SysCtlPeripheralDeepSleepEnable                                                                                                                                                                                                                                                  
00004405  SysCtlPeripheralDisable                                                                                                                                                                                                                                                          
000043c9  SysCtlPeripheralEnable                                                                                                                                                                                                                                                           
00004305  SysCtlPeripheralPowerOff                                                                                                                                                                                                                                                         
000042c9  SysCtlPeripheralPowerOn                                                                                                                                                                                                                                                          
00004249  SysCtlPeripheralPresent                                                                                                                                                                                                                                                          
00004289  SysCtlPeripheralReady                                                                                                                                                                                                                                                            
00004341  SysCtlPeripheralReset                                                                                                                                                                                                                                                            
0000448d  SysCtlPeripheralSleepDisable                                                                                                                                                                                                                                                     
00004449  SysCtlPeripheralSleepEnable                                                                                                                                                                                                                                                      
00004685  SysCtlReset                                                                                                                                                                                                                                                                      
00004741  SysCtlResetBehaviorGet                                                                                                                                                                                                                                                           
00004731  SysCtlResetBehaviorSet                                                                                                                                                                                                                                                           
000046b7  SysCtlResetCauseClear                                                                                                                                                                                                                                                            
000046b1  SysCtlResetCauseGet                                                                                                                                                                                                                                                              
000041ed  SysCtlSRAMSizeGet                                                                                                                                                                                                                                                                
0000468d  SysCtlSleep                                                                                                                                                                                                                                                                      
00004661  SysCtlSleepPowerSet                                                                                                                                                                                                                                                              
00004f49  SysCtlUSBPLLDisable                                                                                                                                                                                                                                                              
00004f37  SysCtlUSBPLLEnable                                                                                                                                                                                                                                                               
00004f75  SysCtlVoltageEventClear                                                                                                                                                                                                                                                          
00004f59  SysCtlVoltageEventConfig                                                                                                                                                                                                                                                         
00004f69  SysCtlVoltageEventStatus                                                                                                                                                                                                                                                         
00007255  TimerADCEventGet                                                                                                                                                                                                                                                                 
00007243  TimerADCEventSet                                                                                                                                                                                                                                                                 
00006f79  TimerClockSourceGet                                                                                                                                                                                                                                                              
00006f4f  TimerClockSourceSet                                                                                                                                                                                                                                                              
00006d43  TimerConfigure                                                                                                                                                                                                                                                                   
00006e63  TimerControlEvent                                                                                                                                                                                                                                                                
00006dbf  TimerControlLevel                                                                                                                                                                                                                                                                
00006e8d  TimerControlStall                                                                                                                                                                                                                                                                
00006df5  TimerControlTrigger                                                                                                                                                                                                                                                              
00006ec3  TimerControlWaitOnTrigger                                                                                                                                                                                                                                                        
00007275  TimerDMAEventGet                                                                                                                                                                                                                                                                 
00007263  TimerDMAEventSet                                                                                                                                                                                                                                                                 
00006d25  TimerDisable                                                                                                                                                                                                                                                                     
00006d07  TimerEnable                                                                                                                                                                                                                                                                      
0000721f  TimerIntClear                                                                                                                                                                                                                                                                    
000071e9  TimerIntDisable                                                                                                                                                                                                                                                                  
000071d1  TimerIntEnable                                                                                                                                                                                                                                                                   
0000718b  TimerIntRegister                                                                                                                                                                                                                                                                 
00007201  TimerIntStatus                                                                                                                                                                                                                                                                   
000071b3  TimerIntUnregister                                                                                                                                                                                                                                                               
00007043  TimerLoadGet                                                                                                                                                                                                                                                                     
00007079  TimerLoadGet64                                                                                                                                                                                                                                                                   
00007019  TimerLoadSet                                                                                                                                                                                                                                                                     
0000705f  TimerLoadSet64                                                                                                                                                                                                                                                                   
00007123  TimerMatchGet                                                                                                                                                                                                                                                                    
00007159  TimerMatchGet64                                                                                                                                                                                                                                                                  
000070f9  TimerMatchSet                                                                                                                                                                                                                                                                    
0000713f  TimerMatchSet64                                                                                                                                                                                                                                                                  
00006fb3  TimerPrescaleGet                                                                                                                                                                                                                                                                 
00006ffd  TimerPrescaleMatchGet                                                                                                                                                                                                                                                            
00006fcf  TimerPrescaleMatchSet                                                                                                                                                                                                                                                            
00006f89  TimerPrescaleSet                                                                                                                                                                                                                                                                 
00006f39  TimerRTCDisable                                                                                                                                                                                                                                                                  
00006f23  TimerRTCEnable                                                                                                                                                                                                                                                                   
00007231  TimerSynchronize                                                                                                                                                                                                                                                                 
00007283  TimerUpdateMode                                                                                                                                                                                                                                                                  
000070ab  TimerValueGet                                                                                                                                                                                                                                                                    
000070c7  TimerValueGet64                                                                                                                                                                                                                                                                  
000078a9  UART9BitAddrSend                                                                                                                                                                                                                                                                 
00007883  UART9BitAddrSet                                                                                                                                                                                                                                                                  
0000786d  UART9BitDisable                                                                                                                                                                                                                                                                  
00007857  UART9BitEnable                                                                                                                                                                                                                                                                   
000076fb  UARTBreakCtl                                                                                                                                                                                                                                                                     
00007725  UARTBusy                                                                                                                                                                                                                                                                         
000076a3  UARTCharGet                                                                                                                                                                                                                                                                      
00007687  UARTCharGetNonBlocking                                                                                                                                                                                                                                                           
000076dd  UARTCharPut                                                                                                                                                                                                                                                                      
000076b9  UARTCharPutNonBlocking                                                                                                                                                                                                                                                           
0000764b  UARTCharsAvail                                                                                                                                                                                                                                                                   
00007847  UARTClockSourceGet                                                                                                                                                                                                                                                               
00007833  UARTClockSourceSet                                                                                                                                                                                                                                                               
0000741b  UARTConfigGetExpClk                                                                                                                                                                                                                                                              
000073a5  UARTConfigSetExpClk                                                                                                                                                                                                                                                              
000077f9  UARTDMADisable                                                                                                                                                                                                                                                                   
000077e1  UARTDMAEnable                                                                                                                                                                                                                                                                    
0000748b  UARTDisable                                                                                                                                                                                                                                                                      
0000750f  UARTDisableSIR                                                                                                                                                                                                                                                                   
00007467  UARTEnable                                                                                                                                                                                                                                                                       
000074e1  UARTEnableSIR                                                                                                                                                                                                                                                                    
000074cb  UARTFIFODisable                                                                                                                                                                                                                                                                  
000074b5  UARTFIFOEnable                                                                                                                                                                                                                                                                   
0000737d  UARTFIFOLevelGet                                                                                                                                                                                                                                                                 
00007365  UARTFIFOLevelSet                                                                                                                                                                                                                                                                 
0000760b  UARTFlowControlGet                                                                                                                                                                                                                                                               
000075ef  UARTFlowControlSet                                                                                                                                                                                                                                                               
000077cf  UARTIntClear                                                                                                                                                                                                                                                                     
00007799  UARTIntDisable                                                                                                                                                                                                                                                                   
00007781  UARTIntEnable                                                                                                                                                                                                                                                                    
00007743  UARTIntRegister                                                                                                                                                                                                                                                                  
000077b1  UARTIntStatus                                                                                                                                                                                                                                                                    
00007761  UARTIntUnregister                                                                                                                                                                                                                                                                
000075a5  UARTModemControlClear                                                                                                                                                                                                                                                            
000075c9  UARTModemControlGet                                                                                                                                                                                                                                                              
0000756d  UARTModemControlSet                                                                                                                                                                                                                                                              
000075db  UARTModemStatusGet                                                                                                                                                                                                                                                               
00007353  UARTParityModeGet                                                                                                                                                                                                                                                                
00007337  UARTParityModeSet                                                                                                                                                                                                                                                                
00007823  UARTRxErrorClear                                                                                                                                                                                                                                                                 
00007811  UARTRxErrorGet                                                                                                                                                                                                                                                                   
00007557  UARTSmartCardDisable                                                                                                                                                                                                                                                             
00007525  UARTSmartCardEnable                                                                                                                                                                                                                                                              
00007669  UARTSpaceAvail                                                                                                                                                                                                                                                                   
00007e6d  UARTStdioConfig                                                                                                                                                                                                                                                                  
00007639  UARTTxIntModeGet                                                                                                                                                                                                                                                                 
0000761d  UARTTxIntModeSet                                                                                                                                                                                                                                                                 
00007fbd  UARTgetc                                                                                                                                                                                                                                                                         
00007f03  UARTgets                                                                                                                                                                                                                                                                         
000082df  UARTprintf                                                                                                                                                                                                                                                                       
00007fe5  UARTvprintf                                                                                                                                                                                                                                                                      
00007eb3  UARTwrite                                                                                                                                                                                                                                                                        
0000a389  _Z8get_charv                                                                                                                                                                                                                                                                     
0000cb3b  _ZN10__cxxabiv117__class_type_infoD0Ev                                                                                                                                                                                                                                           
0000cf85  _ZN10__cxxabiv117__class_type_infoD1Ev                                                                                                                                                                                                                                           
0000cf85  _ZN10__cxxabiv117__class_type_infoD2Ev                                                                                                                                                                                                                                           
0000cb49  _ZN10__cxxabiv120__si_class_type_infoD0Ev                                                                                                                                                                                                                                        
0000cf89  _ZN10__cxxabiv120__si_class_type_infoD1Ev                                                                                                                                                                                                                                        
0000cf89  _ZN10__cxxabiv120__si_class_type_infoD2Ev                                                                                                                                                                                                                                        
000078f1  _ZN11ConsolePageC1EPKcjb                                                                                                                                                                                                                                                         
000078f1  _ZN11ConsolePageC2EPKcjb                                                                                                                                                                                                                                                         
00007e47  _ZN11ConsoleTask10draw_inputEi                                                                                                                                                                                                                                                   
000079b3  _ZN11ConsoleTask14taskfunwrapperEPv                                                                                                                                                                                                                                              
00007d59  _ZN11ConsoleTask15start_draw_menuEPS_                                                                                                                                                                                                                                            
00007ab5  _ZN11ConsoleTask4taskEPS_                                                                                                                                                                                                                                                        
00007997  _ZN11ConsoleTask8add_pageEP11ConsolePage                                                                                                                                                                                                                                         
00007e3d  _ZN11ConsoleTask9draw_dataEv                                                                                                                                                                                                                                                     
00007df5  _ZN11ConsoleTask9draw_pageEv                                                                                                                                                                                                                                                     
00007925  _ZN11ConsoleTaskC1EP15QueueDefinition                                                                                                                                                                                                                                            
00007925  _ZN11ConsoleTaskC2EP15QueueDefinition                                                                                                                                                                                                                                            
0000927b  _ZN11ErrorLogger10draw_inputEi                                                                                                                                                                                                                                                   
00009113  _ZN11ErrorLogger12create_errorEPKcS1_                                                                                                                                                                                                                                            
000090e9  _ZN11ErrorLogger12get_instanceEv                                                                                                                                                                                                                                                 
20005054  _ZN11ErrorLogger3objE                                                                                                                                                                                                                                                            
000091df  _ZN11ErrorLogger9draw_dataEv                                                                                                                                                                                                                                                     
000091a3  _ZN11ErrorLogger9draw_pageEv                                                                                                                                                                                                                                                     
00009175  _ZN11ErrorLogger9set_errorEP7error_t                                                                                                                                                                                                                                             
00009189  _ZN11ErrorLoggerC1Ev                                                                                                                                                                                                                                                             
00009189  _ZN11ErrorLoggerC2Ev                                                                                                                                                                                                                                                             
00008885  _ZN11TaskManager10draw_inputEi                                                                                                                                                                                                                                                   
0000887b  _ZN11TaskManager9draw_dataEv                                                                                                                                                                                                                                                     
000086f9  _ZN11TaskManager9draw_pageEv                                                                                                                                                                                                                                                     
000086d5  _ZN11TaskManagerC1Ev                                                                                                                                                                                                                                                             
000086d5  _ZN11TaskManagerC2Ev                                                                                                                                                                                                                                                             
00009f45  _ZN13NoBoosterPackC1Ev                                                                                                                                                                                                                                                           
00009f45  _ZN13NoBoosterPackC2Ev                                                                                                                                                                                                                                                           
00009673  _ZN14I2cMonitorTask10draw_inputEi                                                                                                                                                                                                                                                
000095b7  _ZN14I2cMonitorTask14taskfunwrapperEPv                                                                                                                                                                                                                                           
00009563  _ZN14I2cMonitorTask4taskEPS_                                                                                                                                                                                                                                                     
000095f7  _ZN14I2cMonitorTask9draw_dataEv                                                                                                                                                                                                                                                  
000095c5  _ZN14I2cMonitorTask9draw_pageEv                                                                                                                                                                                                                                                  
00009511  _ZN14I2cMonitorTaskC1EP7I2cTaskRNSt3__26vectorIP6I2cMsgNS2_9allocatorIS5_EEEE                                                                                                                                                                                                    
00009511  _ZN14I2cMonitorTaskC2EP7I2cTaskRNSt3__26vectorIP6I2cMsgNS2_9allocatorIS5_EEEE                                                                                                                                                                                                    
00008d83  _ZN14I2cSnifferTask10draw_inputEi                                                                                                                                                                                                                                                
00008d5f  _ZN14I2cSnifferTask14taskfunwrapperEPv                                                                                                                                                                                                                                           
00008c5b  _ZN14I2cSnifferTask4taskEPS_                                                                                                                                                                                                                                                     
00008d79  _ZN14I2cSnifferTask9draw_dataEv                                                                                                                                                                                                                                                  
00008d6d  _ZN14I2cSnifferTask9draw_pageEv                                                                                                                                                                                                                                                  
00008bf1  _ZN14I2cSnifferTaskC1EP7I2cTask                                                                                                                                                                                                                                                  
00008bf1  _ZN14I2cSnifferTaskC2EP7I2cTask                                                                                                                                                                                                                                                  
0000208d  _ZN6I2cMsgC1E14i2c_msg_type_t                                                                                                                                                                                                                                                    
0000208d  _ZN6I2cMsgC2E14i2c_msg_type_t                                                                                                                                                                                                                                                    
00002c81  _ZN7I2cTask10draw_inputEi                                                                                                                                                                                                                                                        
00002301  _ZN7I2cTask10get_vectorEv                                                                                                                                                                                                                                                        
0000288f  _ZN7I2cTask10log_errorsEPS_                                                                                                                                                                                                                                                      
0000230f  _ZN7I2cTask11add_i2c_msgEP6I2cMsg                                                                                                                                                                                                                                                
0000291d  _ZN7I2cTask12print_errorsEPS_                                                                                                                                                                                                                                                    
00002881  _ZN7I2cTask14taskfunwrapperEPv                                                                                                                                                                                                                                                   
0000232d  _ZN7I2cTask19reset_monitor_indexEv                                                                                                                                                                                                                                               
000023b9  _ZN7I2cTask4taskEPS_                                                                                                                                                                                                                                                             
00002a05  _ZN7I2cTask9draw_dataEv                                                                                                                                                                                                                                                          
000029f9  _ZN7I2cTask9draw_pageEv                                                                                                                                                                                                                                                          
000020f5  _ZN7I2cTaskC1EP12i2c_config_t                                                                                                                                                                                                                                                    
000020f5  _ZN7I2cTaskC2EP12i2c_config_t                                                                                                                                                                                                                                                    
0000a885  _ZN7TextCtl10clear_lineEv                                                                                                                                                                                                                                                        
0000a855  _ZN7TextCtl10cursor_posEjj                                                                                                                                                                                                                                                       
0000a82b  _ZN7TextCtl10text_colorEj                                                                                                                                                                                                                                                        
0000a88f  _ZN7TextCtl13clear_in_lineEv                                                                                                                                                                                                                                                     
0000a81d  _ZN7TextCtl13set_text_modeEj                                                                                                                                                                                                                                                     
0000a87b  _ZN7TextCtl14clear_terminalEv                                                                                                                                                                                                                                                    
0000a839  _ZN7TextCtl15bold_text_colorEj                                                                                                                                                                                                                                                   
0000a867  _ZN7TextCtl15save_cursor_posEv                                                                                                                                                                                                                                                   
0000a899  _ZN7TextCtl16clear_below_lineEv                                                                                                                                                                                                                                                  
0000a871  _ZN7TextCtl18restore_cursor_posEv                                                                                                                                                                                                                                                
0000a847  _ZN7TextCtl9bgd_colorEj                                                                                                                                                                                                                                                          
0000acad  _ZN8TestTask10draw_inputEi                                                                                                                                                                                                                                                       
0000ac8b  _ZN8TestTask14taskfunwrapperEPv                                                                                                                                                                                                                                                  
0000ac75  _ZN8TestTask4taskEPS_                                                                                                                                                                                                                                                            
0000aca3  _ZN8TestTask9draw_dataEv                                                                                                                                                                                                                                                         
0000ac99  _ZN8TestTask9draw_pageEv                                                                                                                                                                                                                                                         
0000ac45  _ZN8TestTaskC1Ev                                                                                                                                                                                                                                                                 
0000ac45  _ZN8TestTaskC2Ev                                                                                                                                                                                                                                                                 
0000a3f3  _ZN8UartTaskC1EP15QueueDefinition                                                                                                                                                                                                                                                
0000a3f3  _ZN8UartTaskC2EP15QueueDefinition                                                                                                                                                                                                                                                
0000cb57  _ZNKSt3__213__vector_baseIP11ConsolePageNS_9allocatorIS2_EEE7__allocEv                                                                                                                                                                                                           
0000c79f  _ZNKSt3__213__vector_baseIP11ConsolePageNS_9allocatorIS2_EEE8capacityEv                                                                                                                                                                                                          
0000cb65  _ZNKSt3__213__vector_baseIP11ConsolePageNS_9allocatorIS2_EEE9__end_capEv                                                                                                                                                                                                         
0000cb73  _ZNKSt3__213__vector_baseIP6I2cMsgNS_9allocatorIS2_EEE7__allocEv                                                                                                                                                                                                                 
0000c7b5  _ZNKSt3__213__vector_baseIP6I2cMsgNS_9allocatorIS2_EEE8capacityEv                                                                                                                                                                                                                
0000cb81  _ZNKSt3__213__vector_baseIP6I2cMsgNS_9allocatorIS2_EEE9__end_capEv                                                                                                                                                                                                               
0000c7cb  _ZNKSt3__214__split_bufferIP11ConsolePageRNS_9allocatorIS2_EEE8capacityEv                                                                                                                                                                                                        
0000cb8f  _ZNKSt3__214__split_bufferIP11ConsolePageRNS_9allocatorIS2_EEE9__end_capEv                                                                                                                                                                                                       
0000c7e1  _ZNKSt3__214__split_bufferIP6I2cMsgRNS_9allocatorIS2_EEE8capacityEv                                                                                                                                                                                                              
0000cb9d  _ZNKSt3__214__split_bufferIP6I2cMsgRNS_9allocatorIS2_EEE9__end_capEv                                                                                                                                                                                                             
0000ccdf  _ZNKSt3__217__compressed_pairIPP11ConsolePageNS_9allocatorIS2_EEE5firstEv                                                                                                                                                                                                        
0000cceb  _ZNKSt3__217__compressed_pairIPP11ConsolePageNS_9allocatorIS2_EEE6secondEv                                                                                                                                                                                                       
0000ccf7  _ZNKSt3__217__compressed_pairIPP11ConsolePageRNS_9allocatorIS2_EEE5firstEv                                                                                                                                                                                                       
0000cd03  _ZNKSt3__217__compressed_pairIPP6I2cMsgNS_9allocatorIS2_EEE5firstEv                                                                                                                                                                                                              
0000cd0f  _ZNKSt3__217__compressed_pairIPP6I2cMsgNS_9allocatorIS2_EEE6secondEv                                                                                                                                                                                                             
0000cd1b  _ZNKSt3__217__compressed_pairIPP6I2cMsgRNS_9allocatorIS2_EEE5firstEv                                                                                                                                                                                                             
0000cd29  _ZNKSt3__220__vector_base_commonILb1EE20__throw_length_errorEv                                                                                                                                                                                                                   
0000cd35  _ZNKSt3__222__compressed_pair_elemINS_9allocatorIP11ConsolePageEELi1ELb1EE5__getEv                                                                                                                                                                                               
0000cd41  _ZNKSt3__222__compressed_pair_elemINS_9allocatorIP6I2cMsgEELi1ELb1EE5__getEv                                                                                                                                                                                                     
0000cd4d  _ZNKSt3__222__compressed_pair_elemIPP11ConsolePageLi0ELb0EE5__getEv                                                                                                                                                                                                              
0000cd59  _ZNKSt3__222__compressed_pair_elemIPP6I2cMsgLi0ELb0EE5__getEv                                                                                                                                                                                                                    
0000c637  _ZNKSt3__26__lessIjjEclERKjS3_                                                                                                                                                                                                                                                   
0000ba51  _ZNKSt3__26vectorIP11ConsolePageNS_9allocatorIS2_EEE11__recommendEj                                                                                                                                                                                                              
0000b819  _ZNKSt3__26vectorIP11ConsolePageNS_9allocatorIS2_EEE14__annotate_newEj                                                                                                                                                                                                           
0000b6c1  _ZNKSt3__26vectorIP11ConsolePageNS_9allocatorIS2_EEE17__annotate_deleteEv                                                                                                                                                                                                        
0000ca1b  _ZNKSt3__26vectorIP11ConsolePageNS_9allocatorIS2_EEE31__annotate_contiguous_containerEPKvS7_S7_S7_                                                                                                                                                                               
0000cbab  _ZNKSt3__26vectorIP11ConsolePageNS_9allocatorIS2_EEE4dataEv                                                                                                                                                                                                                      
0000c7f7  _ZNKSt3__26vectorIP11ConsolePageNS_9allocatorIS2_EEE4sizeEv                                                                                                                                                                                                                      
0000cd65  _ZNKSt3__26vectorIP11ConsolePageNS_9allocatorIS2_EEE8capacityEv                                                                                                                                                                                                                  
0000c51d  _ZNKSt3__26vectorIP11ConsolePageNS_9allocatorIS2_EEE8max_sizeEv                                                                                                                                                                                                                  
0000ba9b  _ZNKSt3__26vectorIP6I2cMsgNS_9allocatorIS2_EEE11__recommendEj                                                                                                                                                                                                                    
0000b86d  _ZNKSt3__26vectorIP6I2cMsgNS_9allocatorIS2_EEE14__annotate_newEj                                                                                                                                                                                                                 
0000b717  _ZNKSt3__26vectorIP6I2cMsgNS_9allocatorIS2_EEE17__annotate_deleteEv                                                                                                                                                                                                              
0000b915  _ZNKSt3__26vectorIP6I2cMsgNS_9allocatorIS2_EEE17__annotate_shrinkEj                                                                                                                                                                                                              
0000ca2b  _ZNKSt3__26vectorIP6I2cMsgNS_9allocatorIS2_EEE31__annotate_contiguous_containerEPKvS7_S7_S7_                                                                                                                                                                                     
0000cbb9  _ZNKSt3__26vectorIP6I2cMsgNS_9allocatorIS2_EEE4dataEv                                                                                                                                                                                                                            
0000c80d  _ZNKSt3__26vectorIP6I2cMsgNS_9allocatorIS2_EEE4sizeEv                                                                                                                                                                                                                            
0000cd71  _ZNKSt3__26vectorIP6I2cMsgNS_9allocatorIS2_EEE8capacityEv                                                                                                                                                                                                                        
0000c541  _ZNKSt3__26vectorIP6I2cMsgNS_9allocatorIS2_EEE8max_sizeEv                                                                                                                                                                                                                        
0000cbc7  _ZNKSt3__29allocatorIP11ConsolePageE8max_sizeEv                                                                                                                                                                                                                                  
0000cbd5  _ZNKSt3__29allocatorIP6I2cMsgE8max_sizeEv                                                                                                                                                                                                                                        
0000cd7d  _ZNSt3__210__allocateEj                                                                                                                                                                                                                                                          
0000c757  _ZNSt3__210__distanceIPP6I2cMsgEENS_15iterator_traitsIT_E15difference_typeES5_S5_NS_26random_access_iterator_tagE                                                                                                                                                                
0000cd89  _ZNSt3__213__unwrap_iterIPP6I2cMsgEET_S4_                                                                                                                                                                                                                                        
0000cbe3  _ZNSt3__213__vector_baseIP11ConsolePageNS_9allocatorIS2_EEE7__allocEv                                                                                                                                                                                                            
0000cbf1  _ZNSt3__213__vector_baseIP11ConsolePageNS_9allocatorIS2_EEE9__end_capEv                                                                                                                                                                                                          
0000c38d  _ZNSt3__213__vector_baseIP11ConsolePageNS_9allocatorIS2_EEEC1Ev                                                                                                                                                                                                                  
0000cd95  _ZNSt3__213__vector_baseIP11ConsolePageNS_9allocatorIS2_EEEC2Ev                                                                                                                                                                                                                  
0000bccd  _ZNSt3__213__vector_baseIP6I2cMsgNS_9allocatorIS2_EEE17__destruct_at_endEPS2_                                                                                                                                                                                                    
0000c891  _ZNSt3__213__vector_baseIP6I2cMsgNS_9allocatorIS2_EEE19__copy_assign_allocERKS5_                                                                                                                                                                                                 
0000ca3b  _ZNSt3__213__vector_baseIP6I2cMsgNS_9allocatorIS2_EEE19__copy_assign_allocERKS5_NS_17integral_constantIbLb0EEE                                                                                                                                                                   
0000ca4b  _ZNSt3__213__vector_baseIP6I2cMsgNS_9allocatorIS2_EEE5clearEv                                                                                                                                                                                                                    
0000cbff  _ZNSt3__213__vector_baseIP6I2cMsgNS_9allocatorIS2_EEE7__allocEv                                                                                                                                                                                                                  
0000cc0d  _ZNSt3__213__vector_baseIP6I2cMsgNS_9allocatorIS2_EEE9__end_capEv                                                                                                                                                                                                                
0000c3b5  _ZNSt3__213__vector_baseIP6I2cMsgNS_9allocatorIS2_EEEC1Ev                                                                                                                                                                                                                        
0000cda1  _ZNSt3__213__vector_baseIP6I2cMsgNS_9allocatorIS2_EEEC2Ev                                                                                                                                                                                                                        
0000c8a5  _ZNSt3__214__split_bufferIP11ConsolePageRNS_9allocatorIS2_EEE17__destruct_at_endEPS2_                                                                                                                                                                                            
0000bfa9  _ZNSt3__214__split_bufferIP11ConsolePageRNS_9allocatorIS2_EEE17__destruct_at_endEPS2_NS_17integral_constantIbLb0EEE                                                                                                                                                              
0000ca5b  _ZNSt3__214__split_bufferIP11ConsolePageRNS_9allocatorIS2_EEE5clearEv                                                                                                                                                                                                            
0000cc1b  _ZNSt3__214__split_bufferIP11ConsolePageRNS_9allocatorIS2_EEE7__allocEv                                                                                                                                                                                                          
0000cc29  _ZNSt3__214__split_bufferIP11ConsolePageRNS_9allocatorIS2_EEE9__end_capEv                                                                                                                                                                                                        
0000b4f5  _ZNSt3__214__split_bufferIP11ConsolePageRNS_9allocatorIS2_EEEC1EjjS5_                                                                                                                                                                                                            
0000c17d  _ZNSt3__214__split_bufferIP11ConsolePageRNS_9allocatorIS2_EEED1Ev                                                                                                                                                                                                                
0000c8b9  _ZNSt3__214__split_bufferIP6I2cMsgRNS_9allocatorIS2_EEE17__destruct_at_endEPS2_                                                                                                                                                                                                  
0000bfdf  _ZNSt3__214__split_bufferIP6I2cMsgRNS_9allocatorIS2_EEE17__destruct_at_endEPS2_NS_17integral_constantIbLb0EEE                                                                                                                                                                    
0000ca6b  _ZNSt3__214__split_bufferIP6I2cMsgRNS_9allocatorIS2_EEE5clearEv                                                                                                                                                                                                                  
0000cc37  _ZNSt3__214__split_bufferIP6I2cMsgRNS_9allocatorIS2_EEE7__allocEv                                                                                                                                                                                                                
0000cc45  _ZNSt3__214__split_bufferIP6I2cMsgRNS_9allocatorIS2_EEE9__end_capEv                                                                                                                                                                                                              
0000b555  _ZNSt3__214__split_bufferIP6I2cMsgRNS_9allocatorIS2_EEEC1EjjS5_                                                                                                                                                                                                                  
0000c1ab  _ZNSt3__214__split_bufferIP6I2cMsgRNS_9allocatorIS2_EEED1Ev                                                                                                                                                                                                                      
0000cdad  _ZNSt3__216__to_raw_pointerIP11ConsolePageEEPT_S4_                                                                                                                                                                                                                               
0000cdb9  _ZNSt3__216__to_raw_pointerIP6I2cMsgEEPT_S4_                                                                                                                                                                                                                                     
0000ca7b  _ZNSt3__216allocator_traitsINS_9allocatorIP11ConsolePageEEE10__max_sizeENS_17integral_constantIbLb1EEERKS4_                                                                                                                                                                      
0000c8cd  _ZNSt3__216allocator_traitsINS_9allocatorIP11ConsolePageEEE10deallocateERS4_PS3_j                                                                                                                                                                                                
0000c565  _ZNSt3__216allocator_traitsINS_9allocatorIP11ConsolePageEEE11__constructIS3_JRKS3_EEEvNS_17integral_constantIbLb1EEERS4_PT_DpOT0_                                                                                                                                                
0000be49  _ZNSt3__216allocator_traitsINS_9allocatorIP11ConsolePageEEE20__construct_backwardIS3_EENS_9enable_ifIXaaoosr3std3__27is_sameIS4_NS1_IT_EEEE5valuentsr3std3__215__has_constructIS4_PS8_JS8_EEE5valuesr3std3__231is_trivially_move_constructibleIS8_EE5valueEvE4typeERS4_SA_SA_RSA_
0000c8e1  _ZNSt3__216allocator_traitsINS_9allocatorIP11ConsolePageEEE7destroyIS3_EEvRS4_PT_                                                                                                                                                                                                
0000c9e5  _ZNSt3__216allocator_traitsINS_9allocatorIP11ConsolePageEEE8allocateERS4_j                                                                                                                                                                                                       
0000ca8b  _ZNSt3__216allocator_traitsINS_9allocatorIP11ConsolePageEEE8max_sizeERKS4_                                                                                                                                                                                                       
0000c8f5  _ZNSt3__216allocator_traitsINS_9allocatorIP11ConsolePageEEE9__destroyIS3_EEvNS_17integral_constantIbLb1EEERS4_PT_                                                                                                                                                                
0000c589  _ZNSt3__216allocator_traitsINS_9allocatorIP11ConsolePageEEE9constructIS3_JRKS3_EEEvRS4_PT_DpOT0_                                                                                                                                                                                 
0000ca9b  _ZNSt3__216allocator_traitsINS_9allocatorIP6I2cMsgEEE10__max_sizeENS_17integral_constantIbLb1EEERKS4_                                                                                                                                                                            
0000c909  _ZNSt3__216allocator_traitsINS_9allocatorIP6I2cMsgEEE10deallocateERS4_PS3_j                                                                                                                                                                                                      
0000c5ad  _ZNSt3__216allocator_traitsINS_9allocatorIP6I2cMsgEEE11__constructIS3_JS3_EEEvNS_17integral_constantIbLb1EEERS4_PT_DpOT0_                                                                                                                                                        
0000be85  _ZNSt3__216allocator_traitsINS_9allocatorIP6I2cMsgEEE20__construct_backwardIS3_EENS_9enable_ifIXaaoosr3std3__27is_sameIS4_NS1_IT_EEEE5valuentsr3std3__215__has_constructIS4_PS8_JS8_EEE5valuesr3std3__231is_trivially_move_constructibleIS8_EE5valueEvE4typeERS4_SA_SA_RSA_      
0000bec1  _ZNSt3__216allocator_traitsINS_9allocatorIP6I2cMsgEEE25__construct_range_forwardIS3_EENS_9enable_ifIXaaoosr3std3__27is_sameIS4_NS1_IT_EEEE5valuentsr3std3__215__has_constructIS4_PS8_JS8_EEE5valuesr3std3__231is_trivially_move_constructibleIS8_EE5valueEvE4typeERS4_SA_SA_RSA_ 
0000c91d  _ZNSt3__216allocator_traitsINS_9allocatorIP6I2cMsgEEE7destroyIS3_EEvRS4_PT_                                                                                                                                                                                                      
0000c9f7  _ZNSt3__216allocator_traitsINS_9allocatorIP6I2cMsgEEE8allocateERS4_j                                                                                                                                                                                                             
0000caab  _ZNSt3__216allocator_traitsINS_9allocatorIP6I2cMsgEEE8max_sizeERKS4_                                                                                                                                                                                                             
0000c931  _ZNSt3__216allocator_traitsINS_9allocatorIP6I2cMsgEEE9__destroyIS3_EEvNS_17integral_constantIbLb1EEERS4_PT_                                                                                                                                                                      
0000c5d1  _ZNSt3__216allocator_traitsINS_9allocatorIP6I2cMsgEEE9constructIS3_JS3_EEEvRS4_PT_DpOT0_                                                                                                                                                                                         
0000cdc5  _ZNSt3__217__compressed_pairIPP11ConsolePageNS_9allocatorIS2_EEE5firstEv                                                                                                                                                                                                         
0000cdd1  _ZNSt3__217__compressed_pairIPP11ConsolePageNS_9allocatorIS2_EEE6secondEv                                                                                                                                                                                                        
0000c655  _ZNSt3__217__compressed_pairIPP11ConsolePageNS_9allocatorIS2_EEEC1IDnLb1EEEOT_                                                                                                                                                                                                   
0000cddd  _ZNSt3__217__compressed_pairIPP11ConsolePageRNS_9allocatorIS2_EEE5firstEv                                                                                                                                                                                                        
0000cc53  _ZNSt3__217__compressed_pairIPP11ConsolePageRNS_9allocatorIS2_EEE6secondEv                                                                                                                                                                                                       
0000c291  _ZNSt3__217__compressed_pairIPP11ConsolePageRNS_9allocatorIS2_EEEC1IDnS6_EEOT_OT0_                                                                                                                                                                                               
0000cde9  _ZNSt3__217__compressed_pairIPP6I2cMsgNS_9allocatorIS2_EEE5firstEv                                                                                                                                                                                                               
0000cdf5  _ZNSt3__217__compressed_pairIPP6I2cMsgNS_9allocatorIS2_EEE6secondEv                                                                                                                                                                                                              
0000c673  _ZNSt3__217__compressed_pairIPP6I2cMsgNS_9allocatorIS2_EEEC1IDnLb1EEEOT_                                                                                                                                                                                                         
0000ce01  _ZNSt3__217__compressed_pairIPP6I2cMsgRNS_9allocatorIS2_EEE5firstEv                                                                                                                                                                                                              
0000cc61  _ZNSt3__217__compressed_pairIPP6I2cMsgRNS_9allocatorIS2_EEE6secondEv                                                                                                                                                                                                             
0000c2bb  _ZNSt3__217__compressed_pairIPP6I2cMsgRNS_9allocatorIS2_EEEC1IDnS6_EEOT_OT0_                                                                                                                                                                                                     
0000ce0d  _ZNSt3__219__libcpp_deallocateEPv                                                                                                                                                                                                                                                
0000cf2d  _ZNSt3__220__throw_length_errorEPKc                                                                                                                                                                                                                                              
000065f7  _ZNSt3__220__vector_base_commonILb1EEC2Ev                                                                                                                                                                                                                                        
0000ce19  _ZNSt3__222__compressed_pair_elemINS_9allocatorIP11ConsolePageEELi1ELb1EE5__getEv                                                                                                                                                                                                
0000cc6f  _ZNSt3__222__compressed_pair_elemINS_9allocatorIP11ConsolePageEELi1ELb1EEC1Ev                                                                                                                                                                                                    
0000ce25  _ZNSt3__222__compressed_pair_elemINS_9allocatorIP11ConsolePageEELi1ELb1EEC2Ev                                                                                                                                                                                                    
0000ce31  _ZNSt3__222__compressed_pair_elemINS_9allocatorIP6I2cMsgEELi1ELb1EE5__getEv                                                                                                                                                                                                      
0000cc7d  _ZNSt3__222__compressed_pair_elemINS_9allocatorIP6I2cMsgEELi1ELb1EEC1Ev                                                                                                                                                                                                          
0000ce3d  _ZNSt3__222__compressed_pair_elemINS_9allocatorIP6I2cMsgEELi1ELb1EEC2Ev                                                                                                                                                                                                          
0000ce49  _ZNSt3__222__compressed_pair_elemIPP11ConsolePageLi0ELb0EE5__getEv                                                                                                                                                                                                               
0000c823  _ZNSt3__222__compressed_pair_elemIPP11ConsolePageLi0ELb0EEC1IDnvEEOT_                                                                                                                                                                                                            
0000cabb  _ZNSt3__222__compressed_pair_elemIPP11ConsolePageLi0ELb0EEC2IDnvEEOT_                                                                                                                                                                                                            
0000ce55  _ZNSt3__222__compressed_pair_elemIPP6I2cMsgLi0ELb0EE5__getEv                                                                                                                                                                                                                     
0000c839  _ZNSt3__222__compressed_pair_elemIPP6I2cMsgLi0ELb0EEC1IDnvEEOT_                                                                                                                                                                                                                  
0000cacb  _ZNSt3__222__compressed_pair_elemIPP6I2cMsgLi0ELb0EEC2IDnvEEOT_                                                                                                                                                                                                                  
0000cc8b  _ZNSt3__222__compressed_pair_elemIRNS_9allocatorIP11ConsolePageEELi1ELb0EE5__getEv                                                                                                                                                                                               
0000c945  _ZNSt3__222__compressed_pair_elemIRNS_9allocatorIP11ConsolePageEELi1ELb0EEC1IS5_vEEOT_                                                                                                                                                                                           
0000cadb  _ZNSt3__222__compressed_pair_elemIRNS_9allocatorIP11ConsolePageEELi1ELb0EEC2IS5_vEEOT_                                                                                                                                                                                           
0000cc99  _ZNSt3__222__compressed_pair_elemIRNS_9allocatorIP6I2cMsgEELi1ELb0EE5__getEv                                                                                                                                                                                                     
0000c959  _ZNSt3__222__compressed_pair_elemIRNS_9allocatorIP6I2cMsgEELi1ELb0EEC1IS5_vEEOT_                                                                                                                                                                                                 
0000caeb  _ZNSt3__222__compressed_pair_elemIRNS_9allocatorIP6I2cMsgEELi1ELb0EEC2IS5_vEEOT_                                                                                                                                                                                                 
0000c96d  _ZNSt3__23maxIjEERKT_S3_S3_                                                                                                                                                                                                                                                      
0000c691  _ZNSt3__23maxIjNS_6__lessIjjEEEERKT_S5_S5_T0_                                                                                                                                                                                                                                    
0000c981  _ZNSt3__23minIjEERKT_S3_S3_                                                                                                                                                                                                                                                      
0000c6af  _ZNSt3__23minIjNS_6__lessIjjEEEERKT_S5_S5_T0_                                                                                                                                                                                                                                    
0000c2e5  _ZNSt3__24copyIPP6I2cMsgS3_EET0_T_S5_S4_                                                                                                                                                                                                                                         
0000ce61  _ZNSt3__24moveIRP6I2cMsgEEONS_16remove_referenceIT_E4typeEOS5_                                                                                                                                                                                                                   
0000ce6d  _ZNSt3__24moveIRPP11ConsolePageEEONS_16remove_referenceIT_E4typeEOS6_                                                                                                                                                                                                            
0000ce79  _ZNSt3__24moveIRPP6I2cMsgEEONS_16remove_referenceIT_E4typeEOS6_                                                                                                                                                                                                                  
0000c30f  _ZNSt3__24swapIPP11ConsolePageEENS_9enable_ifIXaasr3std3__221is_move_constructibleIT_EE5valuesr3std3__218is_move_assignableIS5_EE5valueEvE4typeERS5_S8_                                                                                                                          
0000c339  _ZNSt3__24swapIPP6I2cMsgEENS_9enable_ifIXaasr3std3__221is_move_constructibleIT_EE5valuesr3std3__218is_move_assignableIS5_EE5valueEvE4typeERS5_S8_                                                                                                                                
0000c0e9  _ZNSt3__26__copyIP6I2cMsgS2_EENS_9enable_ifIXaasr3std3__27is_sameINS_12remove_constIT_E4typeET0_EE5valuesr3std3__228is_trivially_copy_assignableIS8_EE5valueEPS8_E4typeEPS5_SC_S9_                                                                                               
0000b241  _ZNSt3__26vectorIP11ConsolePageNS_9allocatorIS2_EEE21__push_back_slow_pathIRKS2_EEvOT_                                                                                                                                                                                           
0000cf37  _ZNSt3__26vectorIP11ConsolePageNS_9allocatorIS2_EEE24__RAII_IncreaseAnnotator6__doneEv                                                                                                                                                                                           
0000cafb  _ZNSt3__26vectorIP11ConsolePageNS_9allocatorIS2_EEE24__RAII_IncreaseAnnotatorC1ERKS5_j                                                                                                                                                                                           
0000cf41  _ZNSt3__26vectorIP11ConsolePageNS_9allocatorIS2_EEE26__invalidate_all_iteratorsEv                                                                                                                                                                                                
0000b099  _ZNSt3__26vectorIP11ConsolePageNS_9allocatorIS2_EEE26__swap_out_circular_bufferERNS_14__split_bufferIS2_RS4_EE                                                                                                                                                                   
0000b76d  _ZNSt3__26vectorIP11ConsolePageNS_9allocatorIS2_EEE9push_backERKS2_                                                                                                                                                                                                              
0000cca7  _ZNSt3__26vectorIP11ConsolePageNS_9allocatorIS2_EEEC1Ev                                                                                                                                                                                                                          
0000c84f  _ZNSt3__26vectorIP11ConsolePageNS_9allocatorIS2_EEEixEj                                                                                                                                                                                                                          
0000bd0d  _ZNSt3__26vectorIP6I2cMsgNS_9allocatorIS2_EEE10deallocateEv                                                                                                                                                                                                                      
0000c3dd  _ZNSt3__26vectorIP6I2cMsgNS_9allocatorIS2_EEE17__destruct_at_endEPS2_                                                                                                                                                                                                            
0000bf39  _ZNSt3__26vectorIP6I2cMsgNS_9allocatorIS2_EEE18__construct_at_endIPS2_EENS_9enable_ifIXsr3std3__221__is_forward_iteratorIT_EE5valueEvE4typeES9_S9_j                                                                                                                              
0000b2a5  _ZNSt3__26vectorIP6I2cMsgNS_9allocatorIS2_EEE21__push_back_slow_pathIS2_EEvOT_                                                                                                                                                                                                   
0000cf4b  _ZNSt3__26vectorIP6I2cMsgNS_9allocatorIS2_EEE24__RAII_IncreaseAnnotator6__doneEv                                                                                                                                                                                                 
0000cb0b  _ZNSt3__26vectorIP6I2cMsgNS_9allocatorIS2_EEE24__RAII_IncreaseAnnotatorC1ERKS5_j                                                                                                                                                                                                 
0000cf55  _ZNSt3__26vectorIP6I2cMsgNS_9allocatorIS2_EEE26__invalidate_all_iteratorsEv                                                                                                                                                                                                      
0000b105  _ZNSt3__26vectorIP6I2cMsgNS_9allocatorIS2_EEE26__swap_out_circular_bufferERNS_14__split_bufferIS2_RS4_EE                                                                                                                                                                         
0000ce85  _ZNSt3__26vectorIP6I2cMsgNS_9allocatorIS2_EEE27__invalidate_iterators_pastEPS2_                                                                                                                                                                                                  
0000c5f5  _ZNSt3__26vectorIP6I2cMsgNS_9allocatorIS2_EEE5clearEv                                                                                                                                                                                                                            
0000aa63  _ZNSt3__26vectorIP6I2cMsgNS_9allocatorIS2_EEE6assignIPS2_EENS_9enable_ifIXaasr3std3__221__is_forward_iteratorIT_EE5valuesr3std3__216is_constructibleIS2_JNS_15iterator_traitsIS9_E9referenceEEEE5valueEvE4typeES9_S9_                                                            
0000bae5  _ZNSt3__26vectorIP6I2cMsgNS_9allocatorIS2_EEE8allocateEj                                                                                                                                                                                                                         
0000b3d1  _ZNSt3__26vectorIP6I2cMsgNS_9allocatorIS2_EEE9push_backEOS2_                                                                                                                                                                                                                     
0000ccb5  _ZNSt3__26vectorIP6I2cMsgNS_9allocatorIS2_EEEC1Ev                                                                                                                                                                                                                                
0000c405  _ZNSt3__26vectorIP6I2cMsgNS_9allocatorIS2_EEEaSERKS5_                                                                                                                                                                                                                            
0000c865  _ZNSt3__26vectorIP6I2cMsgNS_9allocatorIS2_EEEixEj                                                                                                                                                                                                                                
0000c995  _ZNSt3__27advanceIPP6I2cMsgEEvRT_NS_15iterator_traitsIS4_E15difference_typeE                                                                                                                                                                                                     
0000ce91  _ZNSt3__27forwardIDnEEOT_RNS_16remove_referenceIS1_E4typeE                                                                                                                                                                                                                       
0000ce9d  _ZNSt3__27forwardIP6I2cMsgEEOT_RNS_16remove_referenceIS3_E4typeE                                                                                                                                                                                                                 
0000cea9  _ZNSt3__27forwardIRKP11ConsolePageEEOT_RNS_16remove_referenceIS5_E4typeE                                                                                                                                                                                                         
0000ceb5  _ZNSt3__27forwardIRNS_9allocatorIP11ConsolePageEEEEOT_RNS_16remove_referenceIS6_E4typeE                                                                                                                                                                                          
0000cec1  _ZNSt3__27forwardIRNS_9allocatorIP6I2cMsgEEEEOT_RNS_16remove_referenceIS6_E4typeE                                                                                                                                                                                                
0000c9a9  _ZNSt3__28distanceIPP6I2cMsgEENS_15iterator_traitsIT_E15difference_typeES5_S5_                                                                                                                                                                                                   
0000c6cd  _ZNSt3__29__advanceIPP6I2cMsgEEvRT_NS_15iterator_traitsIS4_E15difference_typeENS_26random_access_iterator_tagE                                                                                                                                                                   
0000cb1b  _ZNSt3__29allocatorIP11ConsolePageE10deallocateEPS2_j                                                                                                                                                                                                                            
0000cecd  _ZNSt3__29allocatorIP11ConsolePageE7destroyEPS2_                                                                                                                                                                                                                                 
0000c42d  _ZNSt3__29allocatorIP11ConsolePageE8allocateEjPKv                                                                                                                                                                                                                                
0000c1d9  _ZNSt3__29allocatorIP11ConsolePageE9constructIS2_JRKS2_EEEvPT_DpOT0_                                                                                                                                                                                                             
0000ced9  _ZNSt3__29allocatorIP11ConsolePageEC1Ev                                                                                                                                                                                                                                          
0000cee5  _ZNSt3__29allocatorIP11ConsolePageEC2Ev                                                                                                                                                                                                                                          
0000cb2b  _ZNSt3__29allocatorIP6I2cMsgE10deallocateEPS2_j                                                                                                                                                                                                                                  
0000cef1  _ZNSt3__29allocatorIP6I2cMsgE7destroyEPS2_                                                                                                                                                                                                                                       
0000c455  _ZNSt3__29allocatorIP6I2cMsgE8allocateEjPKv                                                                                                                                                                                                                                      
0000c207  _ZNSt3__29allocatorIP6I2cMsgE9constructIS2_JS2_EEEvPT_DpOT0_                                                                                                                                                                                                                     
0000cefd  _ZNSt3__29allocatorIP6I2cMsgEC1Ev                                                                                                                                                                                                                                                
0000cf09  _ZNSt3__29allocatorIP6I2cMsgEC2Ev                                                                                                                                                                                                                                                
000072d7  _ZNSt9type_infoD1Ev                                                                                                                                                                                                                                                              
000072d7  _ZNSt9type_infoD2Ev                                                                                                                                                                                                                                                              
0000cf99  _ZSt17__throw_bad_allocv                                                                                                                                                                                                                                                         
0000d9bc  _ZTI11ConsolePage                                                                                                                                                                                                                                                                
0000d924  _ZTI11ConsoleTask                                                                                                                                                                                                                                                                
0000d930  _ZTI11ErrorLogger                                                                                                                                                                                                                                                                
0000d93c  _ZTI11TaskManager                                                                                                                                                                                                                                                                
0000d948  _ZTI14I2cMonitorTask                                                                                                                                                                                                                                                             
0000d954  _ZTI14I2cSnifferTask                                                                                                                                                                                                                                                             
0000d960  _ZTI7I2cTask                                                                                                                                                                                                                                                                     
0000d96c  _ZTI8TestTask                                                                                                                                                                                                                                                                    
0000d978  _ZTIN10__cxxabiv117__class_type_infoE                                                                                                                                                                                                                                            
0000d984  _ZTIN10__cxxabiv120__si_class_type_infoE                                                                                                                                                                                                                                         
0000d9c4  _ZTISt9type_info                                                                                                                                                                                                                                                                 
0000d8dc  _ZTS11ConsolePage                                                                                                                                                                                                                                                                
0000d8ea  _ZTS11ConsoleTask                                                                                                                                                                                                                                                                
0000d8f8  _ZTS11ErrorLogger                                                                                                                                                                                                                                                                
0000d906  _ZTS11TaskManager                                                                                                                                                                                                                                                                
0000d89a  _ZTS14I2cMonitorTask                                                                                                                                                                                                                                                             
0000d8ab  _ZTS14I2cSnifferTask                                                                                                                                                                                                                                                             
0000d9b2  _ZTS7I2cTask                                                                                                                                                                                                                                                                     
0000d9a8  _ZTS8TestTask                                                                                                                                                                                                                                                                    
0000d755  _ZTSN10__cxxabiv117__class_type_infoE                                                                                                                                                                                                                                            
0000d730  _ZTSN10__cxxabiv120__si_class_type_infoE                                                                                                                                                                                                                                         
0000d914  _ZTSSt9type_info                                                                                                                                                                                                                                                                 
0000d798  _ZTV11ConsolePage                                                                                                                                                                                                                                                                
0000d7ac  _ZTV11ConsoleTask                                                                                                                                                                                                                                                                
0000d7c0  _ZTV11ErrorLogger                                                                                                                                                                                                                                                                
0000d7d4  _ZTV11TaskManager                                                                                                                                                                                                                                                                
0000d7e8  _ZTV14I2cMonitorTask                                                                                                                                                                                                                                                             
0000d7fc  _ZTV14I2cSnifferTask                                                                                                                                                                                                                                                             
0000d810  _ZTV7I2cTask                                                                                                                                                                                                                                                                     
0000d824  _ZTV8TestTask                                                                                                                                                                                                                                                                    
0000d8bc  _ZTVN10__cxxabiv117__class_type_infoE                                                                                                                                                                                                                                            
0000d8cc  _ZTVN10__cxxabiv120__si_class_type_infoE                                                                                                                                                                                                                                         
0000d9dc  _ZZNKSt3__220__vector_base_commonILb1EE20__throw_length_errorEvEs                                                                                                                                                                                                                
0000d588  _ZZNSt3__29allocatorIP11ConsolePageE8allocateEjPKvEs                                                                                                                                                                                                                             
0000d5cc  _ZZNSt3__29allocatorIP6I2cMsgE8allocateEjPKvEs                                                                                                                                                                                                                                   
0000c171  _ZdaPv                                                                                                                                                                                                                                                                           
0000c165  _ZdlPv                                                                                                                                                                                                                                                                           
0000cf8d  _ZdlPvj                                                                                                                                                                                                                                                                          
0000c159  _Znaj                                                                                                                                                                                                                                                                            
0000c14d  _Znwj                                                                                                                                                                                                                                                                            
0000ccc3  _ZnwjPv                                                                                                                                                                                                                                                                          
2000431c  __CIOBUF_                                                                                                                                                                                                                                                                        
20004e08  __STACK_END                                                                                                                                                                                                                                                                      
00000800  __STACK_SIZE                                                                                                                                                                                                                                                                     
20004808  __STACK_TOP                                                                                                                                                                                                                                                                      
00000010  __SYSMEM_SIZE                                                                                                                                                                                                                                                                    
0000daa8  __TI_CINIT_Base                                                                                                                                                                                                                                                                  
0000dac0  __TI_CINIT_Limit                                                                                                                                                                                                                                                                 
0000da8c  __TI_Handler_Table_Base                                                                                                                                                                                                                                                          
0000da98  __TI_Handler_Table_Limit                                                                                                                                                                                                                                                         
0000bc45  __TI_auto_init_nobinit_nopinit                                                                                                                                                                                                                                                   
0000c04d  __TI_cleanup                                                                                                                                                                                                                                                                     
20005028  __TI_cleanup_ptr                                                                                                                                                                                                                                                                 
0000aed9  __TI_closefile                                                                                                                                                                                                                                                                   
0000b1d9  __TI_decompress_lzss                                                                                                                                                                                                                                                             
0000ccd1  __TI_decompress_none                                                                                                                                                                                                                                                             
0000b9b9  __TI_doflush                                                                                                                                                                                                                                                                     
2000502c  __TI_dtors_ptr                                                                                                                                                                                                                                                                   
20005030  __TI_enable_exit_profile_output                                                                                                                                                                                                                                                  
20005018  __TI_ft_end                                                                                                                                                                                                                                                                      
0000b8c1  __TI_ltoa                                                                                                                                                                                                                                                                        
ffffffff  __TI_pprof_out_hndl                                                                                                                                                                                                                                                              
00005ba9  __TI_printfi                                                                                                                                                                                                                                                                     
ffffffff  __TI_prof_data_size                                                                                                                                                                                                                                                              
ffffffff  __TI_prof_data_start                                                                                                                                                                                                                                                             
0000c081  __TI_readmsg                                                                                                                                                                                                                                                                     
00000000  __TI_static_base__                                                                                                                                                                                                                                                               
2000443c  __TI_tmpnams                                                                                                                                                                                                                                                                     
0000bf71  __TI_writemsg                                                                                                                                                                                                                                                                    
0000b433  __TI_wrt_ok                                                                                                                                                                                                                                                                      
0000cf15  __TI_zero_init                                                                                                                                                                                                                                                                   
0000cf91  __abort_execution                                                                                                                                                                                                                                                                
0000acd5  __aeabi_cdcmpeq                                                                                                                                                                                                                                                                  
0000acd5  __aeabi_cdcmple                                                                                                                                                                                                                                                                  
0000ad5b  __aeabi_cdrcmple                                                                                                                                                                                                                                                                 
0000bb75  __aeabi_d2iz                                                                                                                                                                                                                                                                     
000098d7  __aeabi_dadd                                                                                                                                                                                                                                                                     
00009bc1  __aeabi_ddiv                                                                                                                                                                                                                                                                     
0000a485  __aeabi_dmul                                                                                                                                                                                                                                                                     
000098cd  __aeabi_dsub                                                                                                                                                                                                                                                                     
0000cf69  __aeabi_errno_addr                                                                                                                                                                                                                                                               
0000c235  __aeabi_i2d                                                                                                                                                                                                                                                                      
00009a83  __aeabi_idiv0                                                                                                                                                                                                                                                                    
00009a83  __aeabi_ldiv0                                                                                                                                                                                                                                                                    
0000ae5d  __aeabi_memclr                                                                                                                                                                                                                                                                   
0000ae5d  __aeabi_memclr4                                                                                                                                                                                                                                                                  
0000ae5d  __aeabi_memclr8                                                                                                                                                                                                                                                                  
0000ab13  __aeabi_memcpy                                                                                                                                                                                                                                                                   
0000ab13  __aeabi_memcpy4                                                                                                                                                                                                                                                                  
0000ab13  __aeabi_memcpy8                                                                                                                                                                                                                                                                  
0000ae5f  __aeabi_memset                                                                                                                                                                                                                                                                   
0000ae5f  __aeabi_memset4                                                                                                                                                                                                                                                                  
0000ae5f  __aeabi_memset8                                                                                                                                                                                                                                                                  
20005024  __aeabi_stderr                                                                                                                                                                                                                                                                   
2000501c  __aeabi_stdin                                                                                                                                                                                                                                                                    
20005020  __aeabi_stdout                                                                                                                                                                                                                                                                   
0000bd4d  __aeabi_uidiv                                                                                                                                                                                                                                                                    
0000bd4d  __aeabi_uidivmod                                                                                                                                                                                                                                                                 
0000abaf  __aeabi_uldivmod                                                                                                                                                                                                                                                                 
ffffffff  __binit__                                                                                                                                                                                                                                                                        
ffffffff  __c_args__                                                                                                                                                                                                                                                                       
0000cf7f  __cxa_pure_virtual                                                                                                                                                                                                                                                               
UNDEFED   __mpu_init                                                                                                                                                                                                                                                                       
20004608  __stack                                                                                                                                                                                                                                                                          
20000000  __start___llvm_prf_cnts                                                                                                                                                                                                                                                          
20000000  __stop___llvm_prf_cnts                                                                                                                                                                                                                                                           
0000c6e9  _abort_msg                                                                                                                                                                                                                                                                       
0000c0b5  _c_int00_noargs                                                                                                                                                                                                                                                                  
0000d0bc  _ctypes_                                                                                                                                                                                                                                                                         
20004ef8  _device                                                                                                                                                                                                                                                                          
20004e08  _ftable                                                                                                                                                                                                                                                                          
20005040  _lock                                                                                                                                                                                                                                                                            
00007e6b  _nop                                                                                                                                                                                                                                                                             
20004f70  _stream                                                                                                                                                                                                                                                                          
20005070  _sys_memory                                                                                                                                                                                                                                                                      
UNDEFED   _system_post_cinit                                                                                                                                                                                                                                                               
0000cf95  _system_pre_init                                                                                                                                                                                                                                                                 
20005044  _unlock                                                                                                                                                                                                                                                                          
0000cf99  abort                                                                                                                                                                                                                                                                            
0000a289  aligned_alloc                                                                                                                                                                                                                                                                    
0000ba05  atoi                                                                                                                                                                                                                                                                             
ffffffff  binit                                                                                                                                                                                                                                                                            
0000b5b5  close                                                                                                                                                                                                                                                                            
0000c73d  copysign                                                                                                                                                                                                                                                                         
0000c73d  copysignl                                                                                                                                                                                                                                                                        
000006a5  eTaskGetState                                                                                                                                                                                                                                                                    
20005068  errno                                                                                                                                                                                                                                                                            
0000bb2d  exit                                                                                                                                                                                                                                                                             
0000ade1  fflush                                                                                                                                                                                                                                                                           
0000c11d  finddevice                                                                                                                                                                                                                                                                       
0000a065  fputs                                                                                                                                                                                                                                                                            
0000a581  free                                                                                                                                                                                                                                                                             
0000b309  frexp                                                                                                                                                                                                                                                                            
0000b309  frexpl                                                                                                                                                                                                                                                                           
0000b36d  fseek                                                                                                                                                                                                                                                                            
20000000  g_pfnRAMVectors                                                                                                                                                                                                                                                                  
00000000  g_pfnVectors                                                                                                                                                                                                                                                                     
0000bc89  getdevice                                                                                                                                                                                                                                                                        
0000a179  ldexp                                                                                                                                                                                                                                                                            
0000a179  ldexpl                                                                                                                                                                                                                                                                           
0000c4a5  lseek                                                                                                                                                                                                                                                                            
0000befd  main                                                                                                                                                                                                                                                                             
0000cf71  malloc                                                                                                                                                                                                                                                                           
0000a289  memalign                                                                                                                                                                                                                                                                         
0000c721  memccpy                                                                                                                                                                                                                                                                          
0000c617  memchr                                                                                                                                                                                                                                                                           
0000ab13  memcpy                                                                                                                                                                                                                                                                           
0000c4cd  memmove                                                                                                                                                                                                                                                                          
0000ae65  memset                                                                                                                                                                                                                                                                           
200045fc  parmbuf                                                                                                                                                                                                                                                                          
000040a1  pcQueueGetName                                                                                                                                                                                                                                                                   
00000d49  pcTaskGetName                                                                                                                                                                                                                                                                    
00009315  pvPortMalloc                                                                                                                                                                                                                                                                     
00001a85  pvTaskIncrementMutexHeldCount                                                                                                                                                                                                                                                    
20004fc0  pxCurrentTCB                                                                                                                                                                                                                                                                     
00008965  pxPortInitialiseStack                                                                                                                                                                                                                                                            
0000c265  remove                                                                                                                                                                                                                                                                           
0000a179  scalbn                                                                                                                                                                                                                                                                           
0000a179  scalbnl                                                                                                                                                                                                                                                                          
0000a665  setvbuf                                                                                                                                                                                                                                                                          
0000bd8d  sprintf                                                                                                                                                                                                                                                                          
0000c87b  strchr                                                                                                                                                                                                                                                                           
0000c787  strcmp                                                                                                                                                                                                                                                                           
0000c9bd  strcpy                                                                                                                                                                                                                                                                           
0000c9d1  strlen                                                                                                                                                                                                                                                                           
0000c015  strncpy                                                                                                                                                                                                                                                                          
2000026c  ucHeap                                                                                                                                                                                                                                                                           
00003dd1  ucQueueGetQueueType                                                                                                                                                                                                                                                              
0000d9d4  ulMaxSyscallInterruptPriority                                                                                                                                                                                                                                                    
0000a751  ulPortGetIPSR                                                                                                                                                                                                                                                                    
00001a9d  ulTaskNotifyTake                                                                                                                                                                                                                                                                 
0000c265  unlink                                                                                                                                                                                                                                                                           
00009dd9  uxListRemove                                                                                                                                                                                                                                                                     
00003db1  uxQueueGetQueueNumber                                                                                                                                                                                                                                                            
00003cf9  uxQueueMessagesWaiting                                                                                                                                                                                                                                                           
00003d5d  uxQueueMessagesWaitingFromISR                                                                                                                                                                                                                                                    
00003d29  uxQueueSpacesAvailable                                                                                                                                                                                                                                                           
00000d43  uxTaskGetNumberOfTasks                                                                                                                                                                                                                                                           
00000d91  uxTaskGetSystemState                                                                                                                                                                                                                                                             
0000133b  uxTaskGetTaskNumber                                                                                                                                                                                                                                                              
0000075b  uxTaskPriorityGet                                                                                                                                                                                                                                                                
0000078d  uxTaskPriorityGetFromISR                                                                                                                                                                                                                                                         
00001a63  uxTaskResetEventItemValue                                                                                                                                                                                                                                                        
0000c373  vApplicationIdleHook                                                                                                                                                                                                                                                             
0000c363  vApplicationMallocFailedHook                                                                                                                                                                                                                                                     
0000c375  vApplicationStackOverflowHook                                                                                                                                                                                                                                                    
00009cf7  vListInitialise                                                                                                                                                                                                                                                                  
00009d27  vListInitialiseItem                                                                                                                                                                                                                                                              
00009d73  vListInsert                                                                                                                                                                                                                                                                      
00009d37  vListInsertEnd                                                                                                                                                                                                                                                                   
0000a80d  vPortEnableVFP                                                                                                                                                                                                                                                                   
00008a85  vPortEndScheduler                                                                                                                                                                                                                                                                
00008aa9  vPortEnterCritical                                                                                                                                                                                                                                                               
00008aeb  vPortExitCritical                                                                                                                                                                                                                                                                
00009453  vPortFree                                                                                                                                                                                                                                                                        
000094b7  vPortInitialiseBlocks                                                                                                                                                                                                                                                            
0000a7c9  vPortSVCHandler                                                                                                                                                                                                                                                                  
00008b3d  vPortSetupTimerInterrupt                                                                                                                                                                                                                                                         
0000a7e9  vPortStartFirstTask                                                                                                                                                                                                                                                              
00008b59  vPortValidateInterruptPriority                                                                                                                                                                                                                                                   
0000405f  vQueueAddToRegistry                                                                                                                                                                                                                                                              
00003d87  vQueueDelete                                                                                                                                                                                                                                                                     
00003dbf  vQueueSetQueueNumber                                                                                                                                                                                                                                                             
000040e1  vQueueUnregisterQueue                                                                                                                                                                                                                                                            
0000063d  vTaskDelay                                                                                                                                                                                                                                                                       
00000559  vTaskDelayUntil                                                                                                                                                                                                                                                                  
0000048f  vTaskDelete                                                                                                                                                                                                                                                                      
00000be9  vTaskEndScheduler                                                                                                                                                                                                                                                                
00001441  vTaskGetInfo                                                                                                                                                                                                                                                                     
00001273  vTaskInternalSetTimeOutState                                                                                                                                                                                                                                                     
00001951  vTaskList                                                                                                                                                                                                                                                                        
00001333  vTaskMissedYield                                                                                                                                                                                                                                                                 
00001e69  vTaskNotifyGiveFromISR                                                                                                                                                                                                                                                           
0000105f  vTaskPlaceOnEventList                                                                                                                                                                                                                                                            
000010a1  vTaskPlaceOnUnorderedEventList                                                                                                                                                                                                                                                   
000017fd  vTaskPriorityDisinheritAfterTimeout                                                                                                                                                                                                                                              
000007d1  vTaskPrioritySet                                                                                                                                                                                                                                                                 
000011a9  vTaskRemoveFromUnorderedEventList                                                                                                                                                                                                                                                
00000a49  vTaskResume                                                                                                                                                                                                                                                                      
0000135b  vTaskSetTaskNumber                                                                                                                                                                                                                                                               
00001241  vTaskSetTimeOutState                                                                                                                                                                                                                                                             
00000b81  vTaskStartScheduler                                                                                                                                                                                                                                                              
00000905  vTaskSuspend                                                                                                                                                                                                                                                                     
00000c05  vTaskSuspendAll                                                                                                                                                                                                                                                                  
00000f99  vTaskSwitchContext                                                                                                                                                                                                                                                               
0000ca09  wcslen                                                                                                                                                                                                                                                                           
0000c4f5  write                                                                                                                                                                                                                                                                            
000094b1  xPortGetFreeHeapSize                                                                                                                                                                                                                                                             
0000a769  xPortPendSVHandler                                                                                                                                                                                                                                                               
000089f1  xPortStartScheduler                                                                                                                                                                                                                                                              
00008b17  xPortSysTickHandler                                                                                                                                                                                                                                                              
0000333d  xQueueCreateCountingSemaphore                                                                                                                                                                                                                                                    
00003311  xQueueCreateMutex                                                                                                                                                                                                                                                                
00003239  xQueueGenericCreate                                                                                                                                                                                                                                                              
00003185  xQueueGenericReset                                                                                                                                                                                                                                                               
00003395  xQueueGenericSend                                                                                                                                                                                                                                                                
00003529  xQueueGenericSendFromISR                                                                                                                                                                                                                                                         
0000362d  xQueueGiveFromISR                                                                                                                                                                                                                                                                
00003fcb  xQueueIsQueueEmptyFromISR                                                                                                                                                                                                                                                        
00004025  xQueueIsQueueFullFromISR                                                                                                                                                                                                                                                         
00003a1d  xQueuePeek                                                                                                                                                                                                                                                                       
00003c4d  xQueuePeekFromISR                                                                                                                                                                                                                                                                
00003721  xQueueReceive                                                                                                                                                                                                                                                                    
00003b75  xQueueReceiveFromISR                                                                                                                                                                                                                                                             
20004540  xQueueRegistry                                                                                                                                                                                                                                                                   
00003873  xQueueSemaphoreTake                                                                                                                                                                                                                                                              
0000128d  xTaskCheckForTimeOut                                                                                                                                                                                                                                                             
0000026d  xTaskCreate                                                                                                                                                                                                                                                                      
00001bc9  xTaskGenericNotify                                                                                                                                                                                                                                                               
00001d09  xTaskGenericNotifyFromISR                                                                                                                                                                                                                                                        
00001615  xTaskGetCurrentTaskHandle                                                                                                                                                                                                                                                        
00000d1f  xTaskGetTickCount                                                                                                                                                                                                                                                                
00000d2f  xTaskGetTickCountFromISR                                                                                                                                                                                                                                                         
00000e7d  xTaskIncrementTick                                                                                                                                                                                                                                                               
00001f51  xTaskNotifyStateClear                                                                                                                                                                                                                                                            
00001b13  xTaskNotifyWait                                                                                                                                                                                                                                                                  
00001727  xTaskPriorityDisinherit                                                                                                                                                                                                                                                          
0000164d  xTaskPriorityInherit                                                                                                                                                                                                                                                             
00001105  xTaskRemoveFromEventList                                                                                                                                                                                                                                                         
00000c1d  xTaskResumeAll                                                                                                                                                                                                                                                                   
00000add  xTaskResumeFromISR                                                                                                                                                                                                                                                               


GLOBAL SYMBOLS: SORTED BY Symbol Address 

address   name                                                                                                                                                                                                                                                                             
-------   ----                                                                                                                                                                                                                                                                             
00000000  __TI_static_base__                                                                                                                                                                                                                                                               
00000000  g_pfnVectors                                                                                                                                                                                                                                                                     
00000010  __SYSMEM_SIZE                                                                                                                                                                                                                                                                    
0000026d  xTaskCreate                                                                                                                                                                                                                                                                      
0000048f  vTaskDelete                                                                                                                                                                                                                                                                      
00000559  vTaskDelayUntil                                                                                                                                                                                                                                                                  
0000063d  vTaskDelay                                                                                                                                                                                                                                                                       
000006a5  eTaskGetState                                                                                                                                                                                                                                                                    
0000075b  uxTaskPriorityGet                                                                                                                                                                                                                                                                
0000078d  uxTaskPriorityGetFromISR                                                                                                                                                                                                                                                         
000007d1  vTaskPrioritySet                                                                                                                                                                                                                                                                 
00000800  __STACK_SIZE                                                                                                                                                                                                                                                                     
00000905  vTaskSuspend                                                                                                                                                                                                                                                                     
00000a49  vTaskResume                                                                                                                                                                                                                                                                      
00000add  xTaskResumeFromISR                                                                                                                                                                                                                                                               
00000b81  vTaskStartScheduler                                                                                                                                                                                                                                                              
00000be9  vTaskEndScheduler                                                                                                                                                                                                                                                                
00000c05  vTaskSuspendAll                                                                                                                                                                                                                                                                  
00000c1d  xTaskResumeAll                                                                                                                                                                                                                                                                   
00000d1f  xTaskGetTickCount                                                                                                                                                                                                                                                                
00000d2f  xTaskGetTickCountFromISR                                                                                                                                                                                                                                                         
00000d43  uxTaskGetNumberOfTasks                                                                                                                                                                                                                                                           
00000d49  pcTaskGetName                                                                                                                                                                                                                                                                    
00000d91  uxTaskGetSystemState                                                                                                                                                                                                                                                             
00000e7d  xTaskIncrementTick                                                                                                                                                                                                                                                               
00000f99  vTaskSwitchContext                                                                                                                                                                                                                                                               
0000105f  vTaskPlaceOnEventList                                                                                                                                                                                                                                                            
000010a1  vTaskPlaceOnUnorderedEventList                                                                                                                                                                                                                                                   
00001105  xTaskRemoveFromEventList                                                                                                                                                                                                                                                         
000011a9  vTaskRemoveFromUnorderedEventList                                                                                                                                                                                                                                                
00001241  vTaskSetTimeOutState                                                                                                                                                                                                                                                             
00001273  vTaskInternalSetTimeOutState                                                                                                                                                                                                                                                     
0000128d  xTaskCheckForTimeOut                                                                                                                                                                                                                                                             
00001333  vTaskMissedYield                                                                                                                                                                                                                                                                 
0000133b  uxTaskGetTaskNumber                                                                                                                                                                                                                                                              
0000135b  vTaskSetTaskNumber                                                                                                                                                                                                                                                               
00001441  vTaskGetInfo                                                                                                                                                                                                                                                                     
00001615  xTaskGetCurrentTaskHandle                                                                                                                                                                                                                                                        
0000164d  xTaskPriorityInherit                                                                                                                                                                                                                                                             
00001727  xTaskPriorityDisinherit                                                                                                                                                                                                                                                          
000017fd  vTaskPriorityDisinheritAfterTimeout                                                                                                                                                                                                                                              
00001951  vTaskList                                                                                                                                                                                                                                                                        
00001a63  uxTaskResetEventItemValue                                                                                                                                                                                                                                                        
00001a85  pvTaskIncrementMutexHeldCount                                                                                                                                                                                                                                                    
00001a9d  ulTaskNotifyTake                                                                                                                                                                                                                                                                 
00001b13  xTaskNotifyWait                                                                                                                                                                                                                                                                  
00001bc9  xTaskGenericNotify                                                                                                                                                                                                                                                               
00001d09  xTaskGenericNotifyFromISR                                                                                                                                                                                                                                                        
00001e69  vTaskNotifyGiveFromISR                                                                                                                                                                                                                                                           
00001f51  xTaskNotifyStateClear                                                                                                                                                                                                                                                            
0000208d  _ZN6I2cMsgC1E14i2c_msg_type_t                                                                                                                                                                                                                                                    
0000208d  _ZN6I2cMsgC2E14i2c_msg_type_t                                                                                                                                                                                                                                                    
000020f5  _ZN7I2cTaskC1EP12i2c_config_t                                                                                                                                                                                                                                                    
000020f5  _ZN7I2cTaskC2EP12i2c_config_t                                                                                                                                                                                                                                                    
00002301  _ZN7I2cTask10get_vectorEv                                                                                                                                                                                                                                                        
0000230f  _ZN7I2cTask11add_i2c_msgEP6I2cMsg                                                                                                                                                                                                                                                
0000232d  _ZN7I2cTask19reset_monitor_indexEv                                                                                                                                                                                                                                               
000023b9  _ZN7I2cTask4taskEPS_                                                                                                                                                                                                                                                             
00002881  _ZN7I2cTask14taskfunwrapperEPv                                                                                                                                                                                                                                                   
0000288f  _ZN7I2cTask10log_errorsEPS_                                                                                                                                                                                                                                                      
0000291d  _ZN7I2cTask12print_errorsEPS_                                                                                                                                                                                                                                                    
000029f9  _ZN7I2cTask9draw_pageEv                                                                                                                                                                                                                                                          
00002a05  _ZN7I2cTask9draw_dataEv                                                                                                                                                                                                                                                          
00002c81  _ZN7I2cTask10draw_inputEi                                                                                                                                                                                                                                                        
00003185  xQueueGenericReset                                                                                                                                                                                                                                                               
00003239  xQueueGenericCreate                                                                                                                                                                                                                                                              
00003311  xQueueCreateMutex                                                                                                                                                                                                                                                                
0000333d  xQueueCreateCountingSemaphore                                                                                                                                                                                                                                                    
00003395  xQueueGenericSend                                                                                                                                                                                                                                                                
00003529  xQueueGenericSendFromISR                                                                                                                                                                                                                                                         
0000362d  xQueueGiveFromISR                                                                                                                                                                                                                                                                
00003721  xQueueReceive                                                                                                                                                                                                                                                                    
00003873  xQueueSemaphoreTake                                                                                                                                                                                                                                                              
00003a1d  xQueuePeek                                                                                                                                                                                                                                                                       
00003b75  xQueueReceiveFromISR                                                                                                                                                                                                                                                             
00003c4d  xQueuePeekFromISR                                                                                                                                                                                                                                                                
00003cf9  uxQueueMessagesWaiting                                                                                                                                                                                                                                                           
00003d29  uxQueueSpacesAvailable                                                                                                                                                                                                                                                           
00003d5d  uxQueueMessagesWaitingFromISR                                                                                                                                                                                                                                                    
00003d87  vQueueDelete                                                                                                                                                                                                                                                                     
00003db1  uxQueueGetQueueNumber                                                                                                                                                                                                                                                            
00003dbf  vQueueSetQueueNumber                                                                                                                                                                                                                                                             
00003dd1  ucQueueGetQueueType                                                                                                                                                                                                                                                              
00003fcb  xQueueIsQueueEmptyFromISR                                                                                                                                                                                                                                                        
00004025  xQueueIsQueueFullFromISR                                                                                                                                                                                                                                                         
0000405f  vQueueAddToRegistry                                                                                                                                                                                                                                                              
000040a1  pcQueueGetName                                                                                                                                                                                                                                                                   
000040e1  vQueueUnregisterQueue                                                                                                                                                                                                                                                            
000041ed  SysCtlSRAMSizeGet                                                                                                                                                                                                                                                                
000041f7  SysCtlFlashSizeGet                                                                                                                                                                                                                                                               
00004223  SysCtlFlashSectorSizeGet                                                                                                                                                                                                                                                         
00004249  SysCtlPeripheralPresent                                                                                                                                                                                                                                                          
00004289  SysCtlPeripheralReady                                                                                                                                                                                                                                                            
000042c9  SysCtlPeripheralPowerOn                                                                                                                                                                                                                                                          
00004305  SysCtlPeripheralPowerOff                                                                                                                                                                                                                                                         
00004341  SysCtlPeripheralReset                                                                                                                                                                                                                                                            
000043c9  SysCtlPeripheralEnable                                                                                                                                                                                                                                                           
00004405  SysCtlPeripheralDisable                                                                                                                                                                                                                                                          
00004449  SysCtlPeripheralSleepEnable                                                                                                                                                                                                                                                      
0000448d  SysCtlPeripheralSleepDisable                                                                                                                                                                                                                                                     
000044c9  SysCtlPeripheralDeepSleepEnable                                                                                                                                                                                                                                                  
00004519  SysCtlPeripheralDeepSleepDisable                                                                                                                                                                                                                                                 
00004561  SysCtlPeripheralClockGating                                                                                                                                                                                                                                                      
000045b5  SysCtlIntRegister                                                                                                                                                                                                                                                                
000045cd  SysCtlIntUnregister                                                                                                                                                                                                                                                              
000045dd  SysCtlIntEnable                                                                                                                                                                                                                                                                  
000045f1  SysCtlIntDisable                                                                                                                                                                                                                                                                 
00004609  SysCtlIntClear                                                                                                                                                                                                                                                                   
00004619  SysCtlIntStatus                                                                                                                                                                                                                                                                  
00004635  SysCtlLDOSleepSet                                                                                                                                                                                                                                                                
00004645  SysCtlLDOSleepGet                                                                                                                                                                                                                                                                
0000464b  SysCtlLDODeepSleepSet                                                                                                                                                                                                                                                            
0000465b  SysCtlLDODeepSleepGet                                                                                                                                                                                                                                                            
00004661  SysCtlSleepPowerSet                                                                                                                                                                                                                                                              
00004675  SysCtlDeepSleepPowerSet                                                                                                                                                                                                                                                          
00004685  SysCtlReset                                                                                                                                                                                                                                                                      
0000468d  SysCtlSleep                                                                                                                                                                                                                                                                      
00004695  SysCtlDeepSleep                                                                                                                                                                                                                                                                  
000046b1  SysCtlResetCauseGet                                                                                                                                                                                                                                                              
000046b7  SysCtlResetCauseClear                                                                                                                                                                                                                                                            
000046cb  SysCtlMOSCConfigSet                                                                                                                                                                                                                                                              
000046e1  SysCtlPIOSCCalibrate                                                                                                                                                                                                                                                             
00004731  SysCtlResetBehaviorSet                                                                                                                                                                                                                                                           
00004741  SysCtlResetBehaviorGet                                                                                                                                                                                                                                                           
00004795  SysCtlClockFreqSet                                                                                                                                                                                                                                                               
00004aad  SysCtlClockSet                                                                                                                                                                                                                                                                   
00004c79  SysCtlClockGet                                                                                                                                                                                                                                                                   
00004e27  SysCtlDeepSleepClockSet                                                                                                                                                                                                                                                          
00004e45  SysCtlDeepSleepClockConfigSet                                                                                                                                                                                                                                                    
00004ecf  SysCtlPWMClockSet                                                                                                                                                                                                                                                                
00004ee9  SysCtlPWMClockGet                                                                                                                                                                                                                                                                
00004eff  SysCtlGPIOAHBEnable                                                                                                                                                                                                                                                              
00004f1b  SysCtlGPIOAHBDisable                                                                                                                                                                                                                                                             
00004f37  SysCtlUSBPLLEnable                                                                                                                                                                                                                                                               
00004f49  SysCtlUSBPLLDisable                                                                                                                                                                                                                                                              
00004f59  SysCtlVoltageEventConfig                                                                                                                                                                                                                                                         
00004f69  SysCtlVoltageEventStatus                                                                                                                                                                                                                                                         
00004f75  SysCtlVoltageEventClear                                                                                                                                                                                                                                                          
00004f89  SysCtlNMIStatus                                                                                                                                                                                                                                                                  
00004f8f  SysCtlNMIClear                                                                                                                                                                                                                                                                   
00004fa3  SysCtlClockOutConfig                                                                                                                                                                                                                                                             
00004fbf  SysCtlAltClkConfig                                                                                                                                                                                                                                                               
0000507f  GPIODirModeSet                                                                                                                                                                                                                                                                   
000050db  GPIODirModeGet                                                                                                                                                                                                                                                                   
00005127  GPIOIntTypeSet                                                                                                                                                                                                                                                                   
000051cb  GPIOIntTypeGet                                                                                                                                                                                                                                                                   
00005261  GPIOPadConfigSet                                                                                                                                                                                                                                                                 
0000549b  GPIOPadConfigGet                                                                                                                                                                                                                                                                 
000055ed  GPIOIntEnable                                                                                                                                                                                                                                                                    
00005607  GPIOIntDisable                                                                                                                                                                                                                                                                   
00005621  GPIOIntStatus                                                                                                                                                                                                                                                                    
00005643  GPIOIntClear                                                                                                                                                                                                                                                                     
00005657  GPIOIntRegister                                                                                                                                                                                                                                                                  
00005675  GPIOIntUnregister                                                                                                                                                                                                                                                                
0000568f  GPIOPinRead                                                                                                                                                                                                                                                                      
000056a7  GPIOPinWrite                                                                                                                                                                                                                                                                     
000056c7  GPIOPinTypeADC                                                                                                                                                                                                                                                                   
000056eb  GPIOPinTypeCAN                                                                                                                                                                                                                                                                   
0000570f  GPIOPinTypeComparator                                                                                                                                                                                                                                                            
00005733  GPIOPinTypeEPI                                                                                                                                                                                                                                                                   
00005757  GPIOPinTypeEthernetLED                                                                                                                                                                                                                                                           
0000577b  GPIOPinTypeEthernetMII                                                                                                                                                                                                                                                           
0000579f  GPIOPinTypeGPIOInput                                                                                                                                                                                                                                                             
000057c3  GPIOPinTypeGPIOOutput                                                                                                                                                                                                                                                            
000057e7  GPIOPinTypeGPIOOutputOD                                                                                                                                                                                                                                                          
0000580b  GPIOPinTypeI2C                                                                                                                                                                                                                                                                   
0000582f  GPIOPinTypeI2CSCL                                                                                                                                                                                                                                                                
00005853  GPIOPinTypeLCD                                                                                                                                                                                                                                                                   
00005877  GPIOPinTypeLPC                                                                                                                                                                                                                                                                   
0000589b  GPIOPinTypePECIRx                                                                                                                                                                                                                                                                
000058bf  GPIOPinTypePECITx                                                                                                                                                                                                                                                                
000058e3  GPIOPinTypePWM                                                                                                                                                                                                                                                                   
00005907  GPIOPinTypeQEI                                                                                                                                                                                                                                                                   
0000592b  GPIOPinTypeSSI                                                                                                                                                                                                                                                                   
0000594f  GPIOPinTypeTimer                                                                                                                                                                                                                                                                 
00005973  GPIOPinTypeUART                                                                                                                                                                                                                                                                  
00005997  GPIOPinTypeUSBAnalog                                                                                                                                                                                                                                                             
000059bb  GPIOPinTypeUSBDigital                                                                                                                                                                                                                                                            
000059df  GPIOPinTypeWakeHigh                                                                                                                                                                                                                                                              
00005a05  GPIOPinTypeWakeLow                                                                                                                                                                                                                                                               
00005a2b  GPIOPinTypeKBRow                                                                                                                                                                                                                                                                 
00005a4f  GPIOPinTypeKBColumn                                                                                                                                                                                                                                                              
00005a73  GPIOPinTypeLEDSeq                                                                                                                                                                                                                                                                
00005a97  GPIOPinTypeCIR                                                                                                                                                                                                                                                                   
00005abb  GPIOPinWakeStatus                                                                                                                                                                                                                                                                
00005acb  GPIOPinConfigure                                                                                                                                                                                                                                                                 
00005b29  GPIODMATriggerEnable                                                                                                                                                                                                                                                             
00005b47  GPIODMATriggerDisable                                                                                                                                                                                                                                                            
00005b65  GPIOADCTriggerEnable                                                                                                                                                                                                                                                             
00005b83  GPIOADCTriggerDisable                                                                                                                                                                                                                                                            
00005ba9  __TI_printfi                                                                                                                                                                                                                                                                     
000065f7  _ZNSt3__220__vector_base_commonILb1EEC2Ev                                                                                                                                                                                                                                        
00006657  I2CMasterInitExpClk                                                                                                                                                                                                                                                              
000066c9  I2CSlaveInit                                                                                                                                                                                                                                                                     
000066e3  I2CSlaveAddressSet                                                                                                                                                                                                                                                               
00006721  I2CMasterEnable                                                                                                                                                                                                                                                                  
00006737  I2CSlaveEnable                                                                                                                                                                                                                                                                   
00006755  I2CMasterDisable                                                                                                                                                                                                                                                                 
0000676b  I2CSlaveDisable                                                                                                                                                                                                                                                                  
00006789  I2CIntRegister                                                                                                                                                                                                                                                                   
000067a7  I2CIntUnregister                                                                                                                                                                                                                                                                 
000067c1  I2CMasterIntEnable                                                                                                                                                                                                                                                               
000067d1  I2CMasterIntEnableEx                                                                                                                                                                                                                                                             
000067e9  I2CSlaveIntEnable                                                                                                                                                                                                                                                                
00006801  I2CSlaveIntEnableEx                                                                                                                                                                                                                                                              
0000681b  I2CMasterIntDisable                                                                                                                                                                                                                                                              
0000682b  I2CMasterIntDisableEx                                                                                                                                                                                                                                                            
00006843  I2CSlaveIntDisable                                                                                                                                                                                                                                                               
0000685b  I2CSlaveIntDisableEx                                                                                                                                                                                                                                                             
00006875  I2CMasterIntStatus                                                                                                                                                                                                                                                               
000068b9  I2CMasterIntStatusEx                                                                                                                                                                                                                                                             
000068e5  I2CSlaveIntStatus                                                                                                                                                                                                                                                                
0000692d  I2CSlaveIntStatusEx                                                                                                                                                                                                                                                              
0000694f  I2CMasterIntClear                                                                                                                                                                                                                                                                
0000696d  I2CMasterIntClearEx                                                                                                                                                                                                                                                              
0000697f  I2CSlaveIntClear                                                                                                                                                                                                                                                                 
00006991  I2CSlaveIntClearEx                                                                                                                                                                                                                                                               
000069a5  I2CMasterSlaveAddrSet                                                                                                                                                                                                                                                            
000069c7  I2CMasterLineStateGet                                                                                                                                                                                                                                                            
000069d5  I2CMasterBusy                                                                                                                                                                                                                                                                    
000069ed  I2CMasterBusBusy                                                                                                                                                                                                                                                                 
00006a05  I2CMasterControl                                                                                                                                                                                                                                                                 
00006a17  I2CMasterErr                                                                                                                                                                                                                                                                     
00006a43  I2CMasterDataPut                                                                                                                                                                                                                                                                 
00006a59  I2CMasterDataGet                                                                                                                                                                                                                                                                 
00006a67  I2CMasterTimeoutSet                                                                                                                                                                                                                                                              
00006a79  I2CSlaveACKOverride                                                                                                                                                                                                                                                              
00006aab  I2CSlaveACKValueSet                                                                                                                                                                                                                                                              
00006add  I2CSlaveStatus                                                                                                                                                                                                                                                                   
00006aed  I2CSlaveDataPut                                                                                                                                                                                                                                                                  
00006b05  I2CSlaveDataGet                                                                                                                                                                                                                                                                  
00006b15  I2CTxFIFOConfigSet                                                                                                                                                                                                                                                               
00006b3d  I2CTxFIFOFlush                                                                                                                                                                                                                                                                   
00006b55  I2CRxFIFOConfigSet                                                                                                                                                                                                                                                               
00006b7d  I2CRxFIFOFlush                                                                                                                                                                                                                                                                   
00006b95  I2CFIFOStatus                                                                                                                                                                                                                                                                    
00006ba5  I2CFIFODataPut                                                                                                                                                                                                                                                                   
00006bc7  I2CFIFODataPutNonBlocking                                                                                                                                                                                                                                                        
00006bef  I2CFIFODataGet                                                                                                                                                                                                                                                                   
00006c09  I2CFIFODataGetNonBlocking                                                                                                                                                                                                                                                        
00006c2f  I2CMasterBurstLengthSet                                                                                                                                                                                                                                                          
00006c45  I2CMasterBurstCountGet                                                                                                                                                                                                                                                           
00006c53  I2CMasterGlitchFilterConfigSet                                                                                                                                                                                                                                                   
00006c6b  I2CSlaveFIFOEnable                                                                                                                                                                                                                                                               
00006c83  I2CSlaveFIFODisable                                                                                                                                                                                                                                                              
00006d07  TimerEnable                                                                                                                                                                                                                                                                      
00006d25  TimerDisable                                                                                                                                                                                                                                                                     
00006d43  TimerConfigure                                                                                                                                                                                                                                                                   
00006dbf  TimerControlLevel                                                                                                                                                                                                                                                                
00006df5  TimerControlTrigger                                                                                                                                                                                                                                                              
00006e63  TimerControlEvent                                                                                                                                                                                                                                                                
00006e8d  TimerControlStall                                                                                                                                                                                                                                                                
00006ec3  TimerControlWaitOnTrigger                                                                                                                                                                                                                                                        
00006f23  TimerRTCEnable                                                                                                                                                                                                                                                                   
00006f39  TimerRTCDisable                                                                                                                                                                                                                                                                  
00006f4f  TimerClockSourceSet                                                                                                                                                                                                                                                              
00006f79  TimerClockSourceGet                                                                                                                                                                                                                                                              
00006f89  TimerPrescaleSet                                                                                                                                                                                                                                                                 
00006fb3  TimerPrescaleGet                                                                                                                                                                                                                                                                 
00006fcf  TimerPrescaleMatchSet                                                                                                                                                                                                                                                            
00006ffd  TimerPrescaleMatchGet                                                                                                                                                                                                                                                            
00007019  TimerLoadSet                                                                                                                                                                                                                                                                     
00007043  TimerLoadGet                                                                                                                                                                                                                                                                     
0000705f  TimerLoadSet64                                                                                                                                                                                                                                                                   
00007079  TimerLoadGet64                                                                                                                                                                                                                                                                   
000070ab  TimerValueGet                                                                                                                                                                                                                                                                    
000070c7  TimerValueGet64                                                                                                                                                                                                                                                                  
000070f9  TimerMatchSet                                                                                                                                                                                                                                                                    
00007123  TimerMatchGet                                                                                                                                                                                                                                                                    
0000713f  TimerMatchSet64                                                                                                                                                                                                                                                                  
00007159  TimerMatchGet64                                                                                                                                                                                                                                                                  
0000718b  TimerIntRegister                                                                                                                                                                                                                                                                 
000071b3  TimerIntUnregister                                                                                                                                                                                                                                                               
000071d1  TimerIntEnable                                                                                                                                                                                                                                                                   
000071e9  TimerIntDisable                                                                                                                                                                                                                                                                  
00007201  TimerIntStatus                                                                                                                                                                                                                                                                   
0000721f  TimerIntClear                                                                                                                                                                                                                                                                    
00007231  TimerSynchronize                                                                                                                                                                                                                                                                 
00007243  TimerADCEventSet                                                                                                                                                                                                                                                                 
00007255  TimerADCEventGet                                                                                                                                                                                                                                                                 
00007263  TimerDMAEventSet                                                                                                                                                                                                                                                                 
00007275  TimerDMAEventGet                                                                                                                                                                                                                                                                 
00007283  TimerUpdateMode                                                                                                                                                                                                                                                                  
000072d7  _ZNSt9type_infoD1Ev                                                                                                                                                                                                                                                              
000072d7  _ZNSt9type_infoD2Ev                                                                                                                                                                                                                                                              
00007337  UARTParityModeSet                                                                                                                                                                                                                                                                
00007353  UARTParityModeGet                                                                                                                                                                                                                                                                
00007365  UARTFIFOLevelSet                                                                                                                                                                                                                                                                 
0000737d  UARTFIFOLevelGet                                                                                                                                                                                                                                                                 
000073a5  UARTConfigSetExpClk                                                                                                                                                                                                                                                              
0000741b  UARTConfigGetExpClk                                                                                                                                                                                                                                                              
00007467  UARTEnable                                                                                                                                                                                                                                                                       
0000748b  UARTDisable                                                                                                                                                                                                                                                                      
000074b5  UARTFIFOEnable                                                                                                                                                                                                                                                                   
000074cb  UARTFIFODisable                                                                                                                                                                                                                                                                  
000074e1  UARTEnableSIR                                                                                                                                                                                                                                                                    
0000750f  UARTDisableSIR                                                                                                                                                                                                                                                                   
00007525  UARTSmartCardEnable                                                                                                                                                                                                                                                              
00007557  UARTSmartCardDisable                                                                                                                                                                                                                                                             
0000756d  UARTModemControlSet                                                                                                                                                                                                                                                              
000075a5  UARTModemControlClear                                                                                                                                                                                                                                                            
000075c9  UARTModemControlGet                                                                                                                                                                                                                                                              
000075db  UARTModemStatusGet                                                                                                                                                                                                                                                               
000075ef  UARTFlowControlSet                                                                                                                                                                                                                                                               
0000760b  UARTFlowControlGet                                                                                                                                                                                                                                                               
0000761d  UARTTxIntModeSet                                                                                                                                                                                                                                                                 
00007639  UARTTxIntModeGet                                                                                                                                                                                                                                                                 
0000764b  UARTCharsAvail                                                                                                                                                                                                                                                                   
00007669  UARTSpaceAvail                                                                                                                                                                                                                                                                   
00007687  UARTCharGetNonBlocking                                                                                                                                                                                                                                                           
000076a3  UARTCharGet                                                                                                                                                                                                                                                                      
000076b9  UARTCharPutNonBlocking                                                                                                                                                                                                                                                           
000076dd  UARTCharPut                                                                                                                                                                                                                                                                      
000076fb  UARTBreakCtl                                                                                                                                                                                                                                                                     
00007725  UARTBusy                                                                                                                                                                                                                                                                         
00007743  UARTIntRegister                                                                                                                                                                                                                                                                  
00007761  UARTIntUnregister                                                                                                                                                                                                                                                                
00007781  UARTIntEnable                                                                                                                                                                                                                                                                    
00007799  UARTIntDisable                                                                                                                                                                                                                                                                   
000077b1  UARTIntStatus                                                                                                                                                                                                                                                                    
000077cf  UARTIntClear                                                                                                                                                                                                                                                                     
000077e1  UARTDMAEnable                                                                                                                                                                                                                                                                    
000077f9  UARTDMADisable                                                                                                                                                                                                                                                                   
00007811  UARTRxErrorGet                                                                                                                                                                                                                                                                   
00007823  UARTRxErrorClear                                                                                                                                                                                                                                                                 
00007833  UARTClockSourceSet                                                                                                                                                                                                                                                               
00007847  UARTClockSourceGet                                                                                                                                                                                                                                                               
00007857  UART9BitEnable                                                                                                                                                                                                                                                                   
0000786d  UART9BitDisable                                                                                                                                                                                                                                                                  
00007883  UART9BitAddrSet                                                                                                                                                                                                                                                                  
000078a9  UART9BitAddrSend                                                                                                                                                                                                                                                                 
000078f1  _ZN11ConsolePageC1EPKcjb                                                                                                                                                                                                                                                         
000078f1  _ZN11ConsolePageC2EPKcjb                                                                                                                                                                                                                                                         
00007925  _ZN11ConsoleTaskC1EP15QueueDefinition                                                                                                                                                                                                                                            
00007925  _ZN11ConsoleTaskC2EP15QueueDefinition                                                                                                                                                                                                                                            
00007997  _ZN11ConsoleTask8add_pageEP11ConsolePage                                                                                                                                                                                                                                         
000079b3  _ZN11ConsoleTask14taskfunwrapperEPv                                                                                                                                                                                                                                              
00007ab5  _ZN11ConsoleTask4taskEPS_                                                                                                                                                                                                                                                        
00007d59  _ZN11ConsoleTask15start_draw_menuEPS_                                                                                                                                                                                                                                            
00007df5  _ZN11ConsoleTask9draw_pageEv                                                                                                                                                                                                                                                     
00007e3d  _ZN11ConsoleTask9draw_dataEv                                                                                                                                                                                                                                                     
00007e47  _ZN11ConsoleTask10draw_inputEi                                                                                                                                                                                                                                                   
00007e6b  _nop                                                                                                                                                                                                                                                                             
00007e6d  UARTStdioConfig                                                                                                                                                                                                                                                                  
00007eb3  UARTwrite                                                                                                                                                                                                                                                                        
00007f03  UARTgets                                                                                                                                                                                                                                                                         
00007fbd  UARTgetc                                                                                                                                                                                                                                                                         
00007fe5  UARTvprintf                                                                                                                                                                                                                                                                      
000082df  UARTprintf                                                                                                                                                                                                                                                                       
00008317  IntMasterEnable                                                                                                                                                                                                                                                                  
00008327  IntMasterDisable                                                                                                                                                                                                                                                                 
00008337  IntRegister                                                                                                                                                                                                                                                                      
00008389  IntUnregister                                                                                                                                                                                                                                                                    
0000839d  IntPriorityGroupingSet                                                                                                                                                                                                                                                           
000083b7  IntPriorityGroupingGet                                                                                                                                                                                                                                                           
000083ef  IntPrioritySet                                                                                                                                                                                                                                                                   
0000843f  IntPriorityGet                                                                                                                                                                                                                                                                   
00008463  IntEnable                                                                                                                                                                                                                                                                        
000084d5  IntDisable                                                                                                                                                                                                                                                                       
00008547  IntIsEnabled                                                                                                                                                                                                                                                                     
000085cd  IntPendSet                                                                                                                                                                                                                                                                       
0000863d  IntPendClear                                                                                                                                                                                                                                                                     
0000868b  IntPriorityMaskSet                                                                                                                                                                                                                                                               
00008697  IntPriorityMaskGet                                                                                                                                                                                                                                                               
0000869f  IntTrigger                                                                                                                                                                                                                                                                       
000086d5  _ZN11TaskManagerC1Ev                                                                                                                                                                                                                                                             
000086d5  _ZN11TaskManagerC2Ev                                                                                                                                                                                                                                                             
000086f9  _ZN11TaskManager9draw_pageEv                                                                                                                                                                                                                                                     
0000887b  _ZN11TaskManager9draw_dataEv                                                                                                                                                                                                                                                     
00008885  _ZN11TaskManager10draw_inputEi                                                                                                                                                                                                                                                   
00008965  pxPortInitialiseStack                                                                                                                                                                                                                                                            
000089f1  xPortStartScheduler                                                                                                                                                                                                                                                              
00008a85  vPortEndScheduler                                                                                                                                                                                                                                                                
00008aa9  vPortEnterCritical                                                                                                                                                                                                                                                               
00008aeb  vPortExitCritical                                                                                                                                                                                                                                                                
00008b17  xPortSysTickHandler                                                                                                                                                                                                                                                              
00008b3d  vPortSetupTimerInterrupt                                                                                                                                                                                                                                                         
00008b59  vPortValidateInterruptPriority                                                                                                                                                                                                                                                   
00008bf1  _ZN14I2cSnifferTaskC1EP7I2cTask                                                                                                                                                                                                                                                  
00008bf1  _ZN14I2cSnifferTaskC2EP7I2cTask                                                                                                                                                                                                                                                  
00008c5b  _ZN14I2cSnifferTask4taskEPS_                                                                                                                                                                                                                                                     
00008d5f  _ZN14I2cSnifferTask14taskfunwrapperEPv                                                                                                                                                                                                                                           
00008d6d  _ZN14I2cSnifferTask9draw_pageEv                                                                                                                                                                                                                                                  
00008d79  _ZN14I2cSnifferTask9draw_dataEv                                                                                                                                                                                                                                                  
00008d83  _ZN14I2cSnifferTask10draw_inputEi                                                                                                                                                                                                                                                
000090e9  _ZN11ErrorLogger12get_instanceEv                                                                                                                                                                                                                                                 
00009113  _ZN11ErrorLogger12create_errorEPKcS1_                                                                                                                                                                                                                                            
00009175  _ZN11ErrorLogger9set_errorEP7error_t                                                                                                                                                                                                                                             
00009189  _ZN11ErrorLoggerC1Ev                                                                                                                                                                                                                                                             
00009189  _ZN11ErrorLoggerC2Ev                                                                                                                                                                                                                                                             
000091a3  _ZN11ErrorLogger9draw_pageEv                                                                                                                                                                                                                                                     
000091df  _ZN11ErrorLogger9draw_dataEv                                                                                                                                                                                                                                                     
0000927b  _ZN11ErrorLogger10draw_inputEi                                                                                                                                                                                                                                                   
00009315  pvPortMalloc                                                                                                                                                                                                                                                                     
00009453  vPortFree                                                                                                                                                                                                                                                                        
000094b1  xPortGetFreeHeapSize                                                                                                                                                                                                                                                             
000094b7  vPortInitialiseBlocks                                                                                                                                                                                                                                                            
00009511  _ZN14I2cMonitorTaskC1EP7I2cTaskRNSt3__26vectorIP6I2cMsgNS2_9allocatorIS5_EEEE                                                                                                                                                                                                    
00009511  _ZN14I2cMonitorTaskC2EP7I2cTaskRNSt3__26vectorIP6I2cMsgNS2_9allocatorIS5_EEEE                                                                                                                                                                                                    
00009563  _ZN14I2cMonitorTask4taskEPS_                                                                                                                                                                                                                                                     
000095b7  _ZN14I2cMonitorTask14taskfunwrapperEPv                                                                                                                                                                                                                                           
000095c5  _ZN14I2cMonitorTask9draw_pageEv                                                                                                                                                                                                                                                  
000095f7  _ZN14I2cMonitorTask9draw_dataEv                                                                                                                                                                                                                                                  
00009673  _ZN14I2cMonitorTask10draw_inputEi                                                                                                                                                                                                                                                
000098cd  __aeabi_dsub                                                                                                                                                                                                                                                                     
000098d7  __aeabi_dadd                                                                                                                                                                                                                                                                     
00009a83  __aeabi_idiv0                                                                                                                                                                                                                                                                    
00009a83  __aeabi_ldiv0                                                                                                                                                                                                                                                                    
00009bc1  __aeabi_ddiv                                                                                                                                                                                                                                                                     
00009cf7  vListInitialise                                                                                                                                                                                                                                                                  
00009d27  vListInitialiseItem                                                                                                                                                                                                                                                              
00009d37  vListInsertEnd                                                                                                                                                                                                                                                                   
00009d73  vListInsert                                                                                                                                                                                                                                                                      
00009dd9  uxListRemove                                                                                                                                                                                                                                                                     
00009f45  _ZN13NoBoosterPackC1Ev                                                                                                                                                                                                                                                           
00009f45  _ZN13NoBoosterPackC2Ev                                                                                                                                                                                                                                                           
0000a065  fputs                                                                                                                                                                                                                                                                            
0000a179  ldexp                                                                                                                                                                                                                                                                            
0000a179  ldexpl                                                                                                                                                                                                                                                                           
0000a179  scalbn                                                                                                                                                                                                                                                                           
0000a179  scalbnl                                                                                                                                                                                                                                                                          
0000a289  aligned_alloc                                                                                                                                                                                                                                                                    
0000a289  memalign                                                                                                                                                                                                                                                                         
0000a389  _Z8get_charv                                                                                                                                                                                                                                                                     
0000a3f3  _ZN8UartTaskC1EP15QueueDefinition                                                                                                                                                                                                                                                
0000a3f3  _ZN8UartTaskC2EP15QueueDefinition                                                                                                                                                                                                                                                
0000a485  __aeabi_dmul                                                                                                                                                                                                                                                                     
0000a581  free                                                                                                                                                                                                                                                                             
0000a665  setvbuf                                                                                                                                                                                                                                                                          
0000a751  ulPortGetIPSR                                                                                                                                                                                                                                                                    
0000a769  xPortPendSVHandler                                                                                                                                                                                                                                                               
0000a7c9  vPortSVCHandler                                                                                                                                                                                                                                                                  
0000a7e9  vPortStartFirstTask                                                                                                                                                                                                                                                              
0000a80d  vPortEnableVFP                                                                                                                                                                                                                                                                   
0000a81d  _ZN7TextCtl13set_text_modeEj                                                                                                                                                                                                                                                     
0000a82b  _ZN7TextCtl10text_colorEj                                                                                                                                                                                                                                                        
0000a839  _ZN7TextCtl15bold_text_colorEj                                                                                                                                                                                                                                                   
0000a847  _ZN7TextCtl9bgd_colorEj                                                                                                                                                                                                                                                          
0000a855  _ZN7TextCtl10cursor_posEjj                                                                                                                                                                                                                                                       
0000a867  _ZN7TextCtl15save_cursor_posEv                                                                                                                                                                                                                                                   
0000a871  _ZN7TextCtl18restore_cursor_posEv                                                                                                                                                                                                                                                
0000a87b  _ZN7TextCtl14clear_terminalEv                                                                                                                                                                                                                                                    
0000a885  _ZN7TextCtl10clear_lineEv                                                                                                                                                                                                                                                        
0000a88f  _ZN7TextCtl13clear_in_lineEv                                                                                                                                                                                                                                                     
0000a899  _ZN7TextCtl16clear_below_lineEv                                                                                                                                                                                                                                                  
0000a8f1  FPUEnable                                                                                                                                                                                                                                                                        
0000a903  FPUDisable                                                                                                                                                                                                                                                                       
0000a911  FPUStackingEnable                                                                                                                                                                                                                                                                
0000a923  FPULazyStackingEnable                                                                                                                                                                                                                                                            
0000a92f  FPUStackingDisable                                                                                                                                                                                                                                                               
0000a93b  FPUHalfPrecisionModeSet                                                                                                                                                                                                                                                          
0000a955  FPUNaNModeSet                                                                                                                                                                                                                                                                    
0000a96f  FPUFlushToZeroModeSet                                                                                                                                                                                                                                                            
0000a989  FPURoundingModeSet                                                                                                                                                                                                                                                               
0000aa63  _ZNSt3__26vectorIP6I2cMsgNS_9allocatorIS2_EEE6assignIPS2_EENS_9enable_ifIXaasr3std3__221__is_forward_iteratorIT_EE5valuesr3std3__216is_constructibleIS2_JNS_15iterator_traitsIS9_E9referenceEEEE5valueEvE4typeES9_S9_                                                            
0000ab13  __aeabi_memcpy                                                                                                                                                                                                                                                                   
0000ab13  __aeabi_memcpy4                                                                                                                                                                                                                                                                  
0000ab13  __aeabi_memcpy8                                                                                                                                                                                                                                                                  
0000ab13  memcpy                                                                                                                                                                                                                                                                           
0000abaf  __aeabi_uldivmod                                                                                                                                                                                                                                                                 
0000ac45  _ZN8TestTaskC1Ev                                                                                                                                                                                                                                                                 
0000ac45  _ZN8TestTaskC2Ev                                                                                                                                                                                                                                                                 
0000ac75  _ZN8TestTask4taskEPS_                                                                                                                                                                                                                                                            
0000ac8b  _ZN8TestTask14taskfunwrapperEPv                                                                                                                                                                                                                                                  
0000ac99  _ZN8TestTask9draw_pageEv                                                                                                                                                                                                                                                         
0000aca3  _ZN8TestTask9draw_dataEv                                                                                                                                                                                                                                                         
0000acad  _ZN8TestTask10draw_inputEi                                                                                                                                                                                                                                                       
0000acd5  __aeabi_cdcmpeq                                                                                                                                                                                                                                                                  
0000acd5  __aeabi_cdcmple                                                                                                                                                                                                                                                                  
0000ad5b  __aeabi_cdrcmple                                                                                                                                                                                                                                                                 
0000ade1  fflush                                                                                                                                                                                                                                                                           
0000ae5d  __aeabi_memclr                                                                                                                                                                                                                                                                   
0000ae5d  __aeabi_memclr4                                                                                                                                                                                                                                                                  
0000ae5d  __aeabi_memclr8                                                                                                                                                                                                                                                                  
0000ae5f  __aeabi_memset                                                                                                                                                                                                                                                                   
0000ae5f  __aeabi_memset4                                                                                                                                                                                                                                                                  
0000ae5f  __aeabi_memset8                                                                                                                                                                                                                                                                  
0000ae65  memset                                                                                                                                                                                                                                                                           
0000aed9  __TI_closefile                                                                                                                                                                                                                                                                   
0000b02d  HOSTrename                                                                                                                                                                                                                                                                       
0000b099  _ZNSt3__26vectorIP11ConsolePageNS_9allocatorIS2_EEE26__swap_out_circular_bufferERNS_14__split_bufferIS2_RS4_EE                                                                                                                                                                   
0000b105  _ZNSt3__26vectorIP6I2cMsgNS_9allocatorIS2_EEE26__swap_out_circular_bufferERNS_14__split_bufferIS2_RS4_EE                                                                                                                                                                         
0000b171  HOSTlseek                                                                                                                                                                                                                                                                        
0000b1d9  __TI_decompress_lzss                                                                                                                                                                                                                                                             
0000b241  _ZNSt3__26vectorIP11ConsolePageNS_9allocatorIS2_EEE21__push_back_slow_pathIRKS2_EEvOT_                                                                                                                                                                                           
0000b2a5  _ZNSt3__26vectorIP6I2cMsgNS_9allocatorIS2_EEE21__push_back_slow_pathIS2_EEvOT_                                                                                                                                                                                                   
0000b309  frexp                                                                                                                                                                                                                                                                            
0000b309  frexpl                                                                                                                                                                                                                                                                           
0000b36d  fseek                                                                                                                                                                                                                                                                            
0000b3d1  _ZNSt3__26vectorIP6I2cMsgNS_9allocatorIS2_EEE9push_backEOS2_                                                                                                                                                                                                                     
0000b433  __TI_wrt_ok                                                                                                                                                                                                                                                                      
0000b495  HOSTopen                                                                                                                                                                                                                                                                         
0000b4f5  _ZNSt3__214__split_bufferIP11ConsolePageRNS_9allocatorIS2_EEEC1EjjS5_                                                                                                                                                                                                            
0000b555  _ZNSt3__214__split_bufferIP6I2cMsgRNS_9allocatorIS2_EEEC1EjjS5_                                                                                                                                                                                                                  
0000b5b5  close                                                                                                                                                                                                                                                                            
0000b611  HOSTread                                                                                                                                                                                                                                                                         
0000b669  HOSTwrite                                                                                                                                                                                                                                                                        
0000b6c1  _ZNKSt3__26vectorIP11ConsolePageNS_9allocatorIS2_EEE17__annotate_deleteEv                                                                                                                                                                                                        
0000b717  _ZNKSt3__26vectorIP6I2cMsgNS_9allocatorIS2_EEE17__annotate_deleteEv                                                                                                                                                                                                              
0000b76d  _ZNSt3__26vectorIP11ConsolePageNS_9allocatorIS2_EEE9push_backERKS2_                                                                                                                                                                                                              
0000b819  _ZNKSt3__26vectorIP11ConsolePageNS_9allocatorIS2_EEE14__annotate_newEj                                                                                                                                                                                                           
0000b86d  _ZNKSt3__26vectorIP6I2cMsgNS_9allocatorIS2_EEE14__annotate_newEj                                                                                                                                                                                                                 
0000b8c1  __TI_ltoa                                                                                                                                                                                                                                                                        
0000b915  _ZNKSt3__26vectorIP6I2cMsgNS_9allocatorIS2_EEE17__annotate_shrinkEj                                                                                                                                                                                                              
0000b9b9  __TI_doflush                                                                                                                                                                                                                                                                     
0000ba05  atoi                                                                                                                                                                                                                                                                             
0000ba51  _ZNKSt3__26vectorIP11ConsolePageNS_9allocatorIS2_EEE11__recommendEj                                                                                                                                                                                                              
0000ba9b  _ZNKSt3__26vectorIP6I2cMsgNS_9allocatorIS2_EEE11__recommendEj                                                                                                                                                                                                                    
0000bae5  _ZNSt3__26vectorIP6I2cMsgNS_9allocatorIS2_EEE8allocateEj                                                                                                                                                                                                                         
0000bb2d  exit                                                                                                                                                                                                                                                                             
0000bb75  __aeabi_d2iz                                                                                                                                                                                                                                                                     
0000bbbd  HOSTclose                                                                                                                                                                                                                                                                        
0000bc01  HOSTunlink                                                                                                                                                                                                                                                                       
0000bc45  __TI_auto_init_nobinit_nopinit                                                                                                                                                                                                                                                   
0000bc89  getdevice                                                                                                                                                                                                                                                                        
0000bccd  _ZNSt3__213__vector_baseIP6I2cMsgNS_9allocatorIS2_EEE17__destruct_at_endEPS2_                                                                                                                                                                                                    
0000bd0d  _ZNSt3__26vectorIP6I2cMsgNS_9allocatorIS2_EEE10deallocateEv                                                                                                                                                                                                                      
0000bd4d  __aeabi_uidiv                                                                                                                                                                                                                                                                    
0000bd4d  __aeabi_uidivmod                                                                                                                                                                                                                                                                 
0000bd8d  sprintf                                                                                                                                                                                                                                                                          
0000be0b  CPUcpsid                                                                                                                                                                                                                                                                         
0000be17  CPUprimask                                                                                                                                                                                                                                                                       
0000be21  CPUcpsie                                                                                                                                                                                                                                                                         
0000be2d  CPUwfi                                                                                                                                                                                                                                                                           
0000be31  CPUbasepriSet                                                                                                                                                                                                                                                                    
0000be3f  CPUbasepriGet                                                                                                                                                                                                                                                                    
0000be49  _ZNSt3__216allocator_traitsINS_9allocatorIP11ConsolePageEEE20__construct_backwardIS3_EENS_9enable_ifIXaaoosr3std3__27is_sameIS4_NS1_IT_EEEE5valuentsr3std3__215__has_constructIS4_PS8_JS8_EEE5valuesr3std3__231is_trivially_move_constructibleIS8_EE5valueEvE4typeERS4_SA_SA_RSA_
0000be85  _ZNSt3__216allocator_traitsINS_9allocatorIP6I2cMsgEEE20__construct_backwardIS3_EENS_9enable_ifIXaaoosr3std3__27is_sameIS4_NS1_IT_EEEE5valuentsr3std3__215__has_constructIS4_PS8_JS8_EEE5valuesr3std3__231is_trivially_move_constructibleIS8_EE5valueEvE4typeERS4_SA_SA_RSA_      
0000bec1  _ZNSt3__216allocator_traitsINS_9allocatorIP6I2cMsgEEE25__construct_range_forwardIS3_EENS_9enable_ifIXaaoosr3std3__27is_sameIS4_NS1_IT_EEEE5valuentsr3std3__215__has_constructIS4_PS8_JS8_EEE5valuesr3std3__231is_trivially_move_constructibleIS8_EE5valueEvE4typeERS4_SA_SA_RSA_ 
0000befd  main                                                                                                                                                                                                                                                                             
0000bf39  _ZNSt3__26vectorIP6I2cMsgNS_9allocatorIS2_EEE18__construct_at_endIPS2_EENS_9enable_ifIXsr3std3__221__is_forward_iteratorIT_EE5valueEvE4typeES9_S9_j                                                                                                                              
0000bf71  __TI_writemsg                                                                                                                                                                                                                                                                    
0000bf9f  C$$IO$$                                                                                                                                                                                                                                                                          
0000bfa9  _ZNSt3__214__split_bufferIP11ConsolePageRNS_9allocatorIS2_EEE17__destruct_at_endEPS2_NS_17integral_constantIbLb0EEE                                                                                                                                                              
0000bfdf  _ZNSt3__214__split_bufferIP6I2cMsgRNS_9allocatorIS2_EEE17__destruct_at_endEPS2_NS_17integral_constantIbLb0EEE                                                                                                                                                                    
0000c015  strncpy                                                                                                                                                                                                                                                                          
0000c04d  __TI_cleanup                                                                                                                                                                                                                                                                     
0000c081  __TI_readmsg                                                                                                                                                                                                                                                                     
0000c0b5  _c_int00_noargs                                                                                                                                                                                                                                                                  
0000c0e9  _ZNSt3__26__copyIP6I2cMsgS2_EENS_9enable_ifIXaasr3std3__27is_sameINS_12remove_constIT_E4typeET0_EE5valuesr3std3__228is_trivially_copy_assignableIS8_EE5valueEPS8_E4typeEPS5_SC_S9_                                                                                               
0000c11d  finddevice                                                                                                                                                                                                                                                                       
0000c14d  _Znwj                                                                                                                                                                                                                                                                            
0000c159  _Znaj                                                                                                                                                                                                                                                                            
0000c165  _ZdlPv                                                                                                                                                                                                                                                                           
0000c171  _ZdaPv                                                                                                                                                                                                                                                                           
0000c17d  _ZNSt3__214__split_bufferIP11ConsolePageRNS_9allocatorIS2_EEED1Ev                                                                                                                                                                                                                
0000c1ab  _ZNSt3__214__split_bufferIP6I2cMsgRNS_9allocatorIS2_EEED1Ev                                                                                                                                                                                                                      
0000c1d9  _ZNSt3__29allocatorIP11ConsolePageE9constructIS2_JRKS2_EEEvPT_DpOT0_                                                                                                                                                                                                             
0000c207  _ZNSt3__29allocatorIP6I2cMsgE9constructIS2_JS2_EEEvPT_DpOT0_                                                                                                                                                                                                                     
0000c235  __aeabi_i2d                                                                                                                                                                                                                                                                      
0000c265  remove                                                                                                                                                                                                                                                                           
0000c265  unlink                                                                                                                                                                                                                                                                           
0000c291  _ZNSt3__217__compressed_pairIPP11ConsolePageRNS_9allocatorIS2_EEEC1IDnS6_EEOT_OT0_                                                                                                                                                                                               
0000c2bb  _ZNSt3__217__compressed_pairIPP6I2cMsgRNS_9allocatorIS2_EEEC1IDnS6_EEOT_OT0_                                                                                                                                                                                                     
0000c2e5  _ZNSt3__24copyIPP6I2cMsgS3_EET0_T_S5_S4_                                                                                                                                                                                                                                         
0000c30f  _ZNSt3__24swapIPP11ConsolePageEENS_9enable_ifIXaasr3std3__221is_move_constructibleIT_EE5valuesr3std3__218is_move_assignableIS5_EE5valueEvE4typeERS5_S8_                                                                                                                          
0000c339  _ZNSt3__24swapIPP6I2cMsgEENS_9enable_ifIXaasr3std3__221is_move_constructibleIT_EE5valuesr3std3__218is_move_assignableIS5_EE5valueEvE4typeERS5_S8_                                                                                                                                
0000c363  vApplicationMallocFailedHook                                                                                                                                                                                                                                                     
0000c373  vApplicationIdleHook                                                                                                                                                                                                                                                             
0000c375  vApplicationStackOverflowHook                                                                                                                                                                                                                                                    
0000c38d  _ZNSt3__213__vector_baseIP11ConsolePageNS_9allocatorIS2_EEEC1Ev                                                                                                                                                                                                                  
0000c3b5  _ZNSt3__213__vector_baseIP6I2cMsgNS_9allocatorIS2_EEEC1Ev                                                                                                                                                                                                                        
0000c3dd  _ZNSt3__26vectorIP6I2cMsgNS_9allocatorIS2_EEE17__destruct_at_endEPS2_                                                                                                                                                                                                            
0000c405  _ZNSt3__26vectorIP6I2cMsgNS_9allocatorIS2_EEEaSERKS5_                                                                                                                                                                                                                            
0000c42d  _ZNSt3__29allocatorIP11ConsolePageE8allocateEjPKv                                                                                                                                                                                                                                
0000c455  _ZNSt3__29allocatorIP6I2cMsgE8allocateEjPKv                                                                                                                                                                                                                                      
0000c4a5  lseek                                                                                                                                                                                                                                                                            
0000c4cd  memmove                                                                                                                                                                                                                                                                          
0000c4f5  write                                                                                                                                                                                                                                                                            
0000c51d  _ZNKSt3__26vectorIP11ConsolePageNS_9allocatorIS2_EEE8max_sizeEv                                                                                                                                                                                                                  
0000c541  _ZNKSt3__26vectorIP6I2cMsgNS_9allocatorIS2_EEE8max_sizeEv                                                                                                                                                                                                                        
0000c565  _ZNSt3__216allocator_traitsINS_9allocatorIP11ConsolePageEEE11__constructIS3_JRKS3_EEEvNS_17integral_constantIbLb1EEERS4_PT_DpOT0_                                                                                                                                                
0000c589  _ZNSt3__216allocator_traitsINS_9allocatorIP11ConsolePageEEE9constructIS3_JRKS3_EEEvRS4_PT_DpOT0_                                                                                                                                                                                 
0000c5ad  _ZNSt3__216allocator_traitsINS_9allocatorIP6I2cMsgEEE11__constructIS3_JS3_EEEvNS_17integral_constantIbLb1EEERS4_PT_DpOT0_                                                                                                                                                        
0000c5d1  _ZNSt3__216allocator_traitsINS_9allocatorIP6I2cMsgEEE9constructIS3_JS3_EEEvRS4_PT_DpOT0_                                                                                                                                                                                         
0000c5f5  _ZNSt3__26vectorIP6I2cMsgNS_9allocatorIS2_EEE5clearEv                                                                                                                                                                                                                            
0000c617  memchr                                                                                                                                                                                                                                                                           
0000c637  _ZNKSt3__26__lessIjjEclERKjS3_                                                                                                                                                                                                                                                   
0000c655  _ZNSt3__217__compressed_pairIPP11ConsolePageNS_9allocatorIS2_EEEC1IDnLb1EEEOT_                                                                                                                                                                                                   
0000c673  _ZNSt3__217__compressed_pairIPP6I2cMsgNS_9allocatorIS2_EEEC1IDnLb1EEEOT_                                                                                                                                                                                                         
0000c691  _ZNSt3__23maxIjNS_6__lessIjjEEEERKT_S5_S5_T0_                                                                                                                                                                                                                                    
0000c6af  _ZNSt3__23minIjNS_6__lessIjjEEEERKT_S5_S5_T0_                                                                                                                                                                                                                                    
0000c6cd  _ZNSt3__29__advanceIPP6I2cMsgEEvRT_NS_15iterator_traitsIS4_E15difference_typeENS_26random_access_iterator_tagE                                                                                                                                                                   
0000c6e9  _abort_msg                                                                                                                                                                                                                                                                       
0000c721  memccpy                                                                                                                                                                                                                                                                          
0000c73d  copysign                                                                                                                                                                                                                                                                         
0000c73d  copysignl                                                                                                                                                                                                                                                                        
0000c757  _ZNSt3__210__distanceIPP6I2cMsgEENS_15iterator_traitsIT_E15difference_typeES5_S5_NS_26random_access_iterator_tagE                                                                                                                                                                
0000c787  strcmp                                                                                                                                                                                                                                                                           
0000c79f  _ZNKSt3__213__vector_baseIP11ConsolePageNS_9allocatorIS2_EEE8capacityEv                                                                                                                                                                                                          
0000c7b5  _ZNKSt3__213__vector_baseIP6I2cMsgNS_9allocatorIS2_EEE8capacityEv                                                                                                                                                                                                                
0000c7cb  _ZNKSt3__214__split_bufferIP11ConsolePageRNS_9allocatorIS2_EEE8capacityEv                                                                                                                                                                                                        
0000c7e1  _ZNKSt3__214__split_bufferIP6I2cMsgRNS_9allocatorIS2_EEE8capacityEv                                                                                                                                                                                                              
0000c7f7  _ZNKSt3__26vectorIP11ConsolePageNS_9allocatorIS2_EEE4sizeEv                                                                                                                                                                                                                      
0000c80d  _ZNKSt3__26vectorIP6I2cMsgNS_9allocatorIS2_EEE4sizeEv                                                                                                                                                                                                                            
0000c823  _ZNSt3__222__compressed_pair_elemIPP11ConsolePageLi0ELb0EEC1IDnvEEOT_                                                                                                                                                                                                            
0000c839  _ZNSt3__222__compressed_pair_elemIPP6I2cMsgLi0ELb0EEC1IDnvEEOT_                                                                                                                                                                                                                  
0000c84f  _ZNSt3__26vectorIP11ConsolePageNS_9allocatorIS2_EEEixEj                                                                                                                                                                                                                          
0000c865  _ZNSt3__26vectorIP6I2cMsgNS_9allocatorIS2_EEEixEj                                                                                                                                                                                                                                
0000c87b  strchr                                                                                                                                                                                                                                                                           
0000c891  _ZNSt3__213__vector_baseIP6I2cMsgNS_9allocatorIS2_EEE19__copy_assign_allocERKS5_                                                                                                                                                                                                 
0000c8a5  _ZNSt3__214__split_bufferIP11ConsolePageRNS_9allocatorIS2_EEE17__destruct_at_endEPS2_                                                                                                                                                                                            
0000c8b9  _ZNSt3__214__split_bufferIP6I2cMsgRNS_9allocatorIS2_EEE17__destruct_at_endEPS2_                                                                                                                                                                                                  
0000c8cd  _ZNSt3__216allocator_traitsINS_9allocatorIP11ConsolePageEEE10deallocateERS4_PS3_j                                                                                                                                                                                                
0000c8e1  _ZNSt3__216allocator_traitsINS_9allocatorIP11ConsolePageEEE7destroyIS3_EEvRS4_PT_                                                                                                                                                                                                
0000c8f5  _ZNSt3__216allocator_traitsINS_9allocatorIP11ConsolePageEEE9__destroyIS3_EEvNS_17integral_constantIbLb1EEERS4_PT_                                                                                                                                                                
0000c909  _ZNSt3__216allocator_traitsINS_9allocatorIP6I2cMsgEEE10deallocateERS4_PS3_j                                                                                                                                                                                                      
0000c91d  _ZNSt3__216allocator_traitsINS_9allocatorIP6I2cMsgEEE7destroyIS3_EEvRS4_PT_                                                                                                                                                                                                      
0000c931  _ZNSt3__216allocator_traitsINS_9allocatorIP6I2cMsgEEE9__destroyIS3_EEvNS_17integral_constantIbLb1EEERS4_PT_                                                                                                                                                                      
0000c945  _ZNSt3__222__compressed_pair_elemIRNS_9allocatorIP11ConsolePageEELi1ELb0EEC1IS5_vEEOT_                                                                                                                                                                                           
0000c959  _ZNSt3__222__compressed_pair_elemIRNS_9allocatorIP6I2cMsgEELi1ELb0EEC1IS5_vEEOT_                                                                                                                                                                                                 
0000c96d  _ZNSt3__23maxIjEERKT_S3_S3_                                                                                                                                                                                                                                                      
0000c981  _ZNSt3__23minIjEERKT_S3_S3_                                                                                                                                                                                                                                                      
0000c995  _ZNSt3__27advanceIPP6I2cMsgEEvRT_NS_15iterator_traitsIS4_E15difference_typeE                                                                                                                                                                                                     
0000c9a9  _ZNSt3__28distanceIPP6I2cMsgEENS_15iterator_traitsIT_E15difference_typeES5_S5_                                                                                                                                                                                                   
0000c9bd  strcpy                                                                                                                                                                                                                                                                           
0000c9d1  strlen                                                                                                                                                                                                                                                                           
0000c9e5  _ZNSt3__216allocator_traitsINS_9allocatorIP11ConsolePageEEE8allocateERS4_j                                                                                                                                                                                                       
0000c9f7  _ZNSt3__216allocator_traitsINS_9allocatorIP6I2cMsgEEE8allocateERS4_j                                                                                                                                                                                                             
0000ca09  wcslen                                                                                                                                                                                                                                                                           
0000ca1b  _ZNKSt3__26vectorIP11ConsolePageNS_9allocatorIS2_EEE31__annotate_contiguous_containerEPKvS7_S7_S7_                                                                                                                                                                               
0000ca2b  _ZNKSt3__26vectorIP6I2cMsgNS_9allocatorIS2_EEE31__annotate_contiguous_containerEPKvS7_S7_S7_                                                                                                                                                                                     
0000ca3b  _ZNSt3__213__vector_baseIP6I2cMsgNS_9allocatorIS2_EEE19__copy_assign_allocERKS5_NS_17integral_constantIbLb0EEE                                                                                                                                                                   
0000ca4b  _ZNSt3__213__vector_baseIP6I2cMsgNS_9allocatorIS2_EEE5clearEv                                                                                                                                                                                                                    
0000ca5b  _ZNSt3__214__split_bufferIP11ConsolePageRNS_9allocatorIS2_EEE5clearEv                                                                                                                                                                                                            
0000ca6b  _ZNSt3__214__split_bufferIP6I2cMsgRNS_9allocatorIS2_EEE5clearEv                                                                                                                                                                                                                  
0000ca7b  _ZNSt3__216allocator_traitsINS_9allocatorIP11ConsolePageEEE10__max_sizeENS_17integral_constantIbLb1EEERKS4_                                                                                                                                                                      
0000ca8b  _ZNSt3__216allocator_traitsINS_9allocatorIP11ConsolePageEEE8max_sizeERKS4_                                                                                                                                                                                                       
0000ca9b  _ZNSt3__216allocator_traitsINS_9allocatorIP6I2cMsgEEE10__max_sizeENS_17integral_constantIbLb1EEERKS4_                                                                                                                                                                            
0000caab  _ZNSt3__216allocator_traitsINS_9allocatorIP6I2cMsgEEE8max_sizeERKS4_                                                                                                                                                                                                             
0000cabb  _ZNSt3__222__compressed_pair_elemIPP11ConsolePageLi0ELb0EEC2IDnvEEOT_                                                                                                                                                                                                            
0000cacb  _ZNSt3__222__compressed_pair_elemIPP6I2cMsgLi0ELb0EEC2IDnvEEOT_                                                                                                                                                                                                                  
0000cadb  _ZNSt3__222__compressed_pair_elemIRNS_9allocatorIP11ConsolePageEELi1ELb0EEC2IS5_vEEOT_                                                                                                                                                                                           
0000caeb  _ZNSt3__222__compressed_pair_elemIRNS_9allocatorIP6I2cMsgEELi1ELb0EEC2IS5_vEEOT_                                                                                                                                                                                                 
0000cafb  _ZNSt3__26vectorIP11ConsolePageNS_9allocatorIS2_EEE24__RAII_IncreaseAnnotatorC1ERKS5_j                                                                                                                                                                                           
0000cb0b  _ZNSt3__26vectorIP6I2cMsgNS_9allocatorIS2_EEE24__RAII_IncreaseAnnotatorC1ERKS5_j                                                                                                                                                                                                 
0000cb1b  _ZNSt3__29allocatorIP11ConsolePageE10deallocateEPS2_j                                                                                                                                                                                                                            
0000cb2b  _ZNSt3__29allocatorIP6I2cMsgE10deallocateEPS2_j                                                                                                                                                                                                                                  
0000cb3b  _ZN10__cxxabiv117__class_type_infoD0Ev                                                                                                                                                                                                                                           
0000cb49  _ZN10__cxxabiv120__si_class_type_infoD0Ev                                                                                                                                                                                                                                        
0000cb57  _ZNKSt3__213__vector_baseIP11ConsolePageNS_9allocatorIS2_EEE7__allocEv                                                                                                                                                                                                           
0000cb65  _ZNKSt3__213__vector_baseIP11ConsolePageNS_9allocatorIS2_EEE9__end_capEv                                                                                                                                                                                                         
0000cb73  _ZNKSt3__213__vector_baseIP6I2cMsgNS_9allocatorIS2_EEE7__allocEv                                                                                                                                                                                                                 
0000cb81  _ZNKSt3__213__vector_baseIP6I2cMsgNS_9allocatorIS2_EEE9__end_capEv                                                                                                                                                                                                               
0000cb8f  _ZNKSt3__214__split_bufferIP11ConsolePageRNS_9allocatorIS2_EEE9__end_capEv                                                                                                                                                                                                       
0000cb9d  _ZNKSt3__214__split_bufferIP6I2cMsgRNS_9allocatorIS2_EEE9__end_capEv                                                                                                                                                                                                             
0000cbab  _ZNKSt3__26vectorIP11ConsolePageNS_9allocatorIS2_EEE4dataEv                                                                                                                                                                                                                      
0000cbb9  _ZNKSt3__26vectorIP6I2cMsgNS_9allocatorIS2_EEE4dataEv                                                                                                                                                                                                                            
0000cbc7  _ZNKSt3__29allocatorIP11ConsolePageE8max_sizeEv                                                                                                                                                                                                                                  
0000cbd5  _ZNKSt3__29allocatorIP6I2cMsgE8max_sizeEv                                                                                                                                                                                                                                        
0000cbe3  _ZNSt3__213__vector_baseIP11ConsolePageNS_9allocatorIS2_EEE7__allocEv                                                                                                                                                                                                            
0000cbf1  _ZNSt3__213__vector_baseIP11ConsolePageNS_9allocatorIS2_EEE9__end_capEv                                                                                                                                                                                                          
0000cbff  _ZNSt3__213__vector_baseIP6I2cMsgNS_9allocatorIS2_EEE7__allocEv                                                                                                                                                                                                                  
0000cc0d  _ZNSt3__213__vector_baseIP6I2cMsgNS_9allocatorIS2_EEE9__end_capEv                                                                                                                                                                                                                
0000cc1b  _ZNSt3__214__split_bufferIP11ConsolePageRNS_9allocatorIS2_EEE7__allocEv                                                                                                                                                                                                          
0000cc29  _ZNSt3__214__split_bufferIP11ConsolePageRNS_9allocatorIS2_EEE9__end_capEv                                                                                                                                                                                                        
0000cc37  _ZNSt3__214__split_bufferIP6I2cMsgRNS_9allocatorIS2_EEE7__allocEv                                                                                                                                                                                                                
0000cc45  _ZNSt3__214__split_bufferIP6I2cMsgRNS_9allocatorIS2_EEE9__end_capEv                                                                                                                                                                                                              
0000cc53  _ZNSt3__217__compressed_pairIPP11ConsolePageRNS_9allocatorIS2_EEE6secondEv                                                                                                                                                                                                       
0000cc61  _ZNSt3__217__compressed_pairIPP6I2cMsgRNS_9allocatorIS2_EEE6secondEv                                                                                                                                                                                                             
0000cc6f  _ZNSt3__222__compressed_pair_elemINS_9allocatorIP11ConsolePageEELi1ELb1EEC1Ev                                                                                                                                                                                                    
0000cc7d  _ZNSt3__222__compressed_pair_elemINS_9allocatorIP6I2cMsgEELi1ELb1EEC1Ev                                                                                                                                                                                                          
0000cc8b  _ZNSt3__222__compressed_pair_elemIRNS_9allocatorIP11ConsolePageEELi1ELb0EE5__getEv                                                                                                                                                                                               
0000cc99  _ZNSt3__222__compressed_pair_elemIRNS_9allocatorIP6I2cMsgEELi1ELb0EE5__getEv                                                                                                                                                                                                     
0000cca7  _ZNSt3__26vectorIP11ConsolePageNS_9allocatorIS2_EEEC1Ev                                                                                                                                                                                                                          
0000ccb5  _ZNSt3__26vectorIP6I2cMsgNS_9allocatorIS2_EEEC1Ev                                                                                                                                                                                                                                
0000ccc3  _ZnwjPv                                                                                                                                                                                                                                                                          
0000ccd1  __TI_decompress_none                                                                                                                                                                                                                                                             
0000ccdf  _ZNKSt3__217__compressed_pairIPP11ConsolePageNS_9allocatorIS2_EEE5firstEv                                                                                                                                                                                                        
0000cceb  _ZNKSt3__217__compressed_pairIPP11ConsolePageNS_9allocatorIS2_EEE6secondEv                                                                                                                                                                                                       
0000ccf7  _ZNKSt3__217__compressed_pairIPP11ConsolePageRNS_9allocatorIS2_EEE5firstEv                                                                                                                                                                                                       
0000cd03  _ZNKSt3__217__compressed_pairIPP6I2cMsgNS_9allocatorIS2_EEE5firstEv                                                                                                                                                                                                              
0000cd0f  _ZNKSt3__217__compressed_pairIPP6I2cMsgNS_9allocatorIS2_EEE6secondEv                                                                                                                                                                                                             
0000cd1b  _ZNKSt3__217__compressed_pairIPP6I2cMsgRNS_9allocatorIS2_EEE5firstEv                                                                                                                                                                                                             
0000cd29  _ZNKSt3__220__vector_base_commonILb1EE20__throw_length_errorEv                                                                                                                                                                                                                   
0000cd35  _ZNKSt3__222__compressed_pair_elemINS_9allocatorIP11ConsolePageEELi1ELb1EE5__getEv                                                                                                                                                                                               
0000cd41  _ZNKSt3__222__compressed_pair_elemINS_9allocatorIP6I2cMsgEELi1ELb1EE5__getEv                                                                                                                                                                                                     
0000cd4d  _ZNKSt3__222__compressed_pair_elemIPP11ConsolePageLi0ELb0EE5__getEv                                                                                                                                                                                                              
0000cd59  _ZNKSt3__222__compressed_pair_elemIPP6I2cMsgLi0ELb0EE5__getEv                                                                                                                                                                                                                    
0000cd65  _ZNKSt3__26vectorIP11ConsolePageNS_9allocatorIS2_EEE8capacityEv                                                                                                                                                                                                                  
0000cd71  _ZNKSt3__26vectorIP6I2cMsgNS_9allocatorIS2_EEE8capacityEv                                                                                                                                                                                                                        
0000cd7d  _ZNSt3__210__allocateEj                                                                                                                                                                                                                                                          
0000cd89  _ZNSt3__213__unwrap_iterIPP6I2cMsgEET_S4_                                                                                                                                                                                                                                        
0000cd95  _ZNSt3__213__vector_baseIP11ConsolePageNS_9allocatorIS2_EEEC2Ev                                                                                                                                                                                                                  
0000cda1  _ZNSt3__213__vector_baseIP6I2cMsgNS_9allocatorIS2_EEEC2Ev                                                                                                                                                                                                                        
0000cdad  _ZNSt3__216__to_raw_pointerIP11ConsolePageEEPT_S4_                                                                                                                                                                                                                               
0000cdb9  _ZNSt3__216__to_raw_pointerIP6I2cMsgEEPT_S4_                                                                                                                                                                                                                                     
0000cdc5  _ZNSt3__217__compressed_pairIPP11ConsolePageNS_9allocatorIS2_EEE5firstEv                                                                                                                                                                                                         
0000cdd1  _ZNSt3__217__compressed_pairIPP11ConsolePageNS_9allocatorIS2_EEE6secondEv                                                                                                                                                                                                        
0000cddd  _ZNSt3__217__compressed_pairIPP11ConsolePageRNS_9allocatorIS2_EEE5firstEv                                                                                                                                                                                                        
0000cde9  _ZNSt3__217__compressed_pairIPP6I2cMsgNS_9allocatorIS2_EEE5firstEv                                                                                                                                                                                                               
0000cdf5  _ZNSt3__217__compressed_pairIPP6I2cMsgNS_9allocatorIS2_EEE6secondEv                                                                                                                                                                                                              
0000ce01  _ZNSt3__217__compressed_pairIPP6I2cMsgRNS_9allocatorIS2_EEE5firstEv                                                                                                                                                                                                              
0000ce0d  _ZNSt3__219__libcpp_deallocateEPv                                                                                                                                                                                                                                                
0000ce19  _ZNSt3__222__compressed_pair_elemINS_9allocatorIP11ConsolePageEELi1ELb1EE5__getEv                                                                                                                                                                                                
0000ce25  _ZNSt3__222__compressed_pair_elemINS_9allocatorIP11ConsolePageEELi1ELb1EEC2Ev                                                                                                                                                                                                    
0000ce31  _ZNSt3__222__compressed_pair_elemINS_9allocatorIP6I2cMsgEELi1ELb1EE5__getEv                                                                                                                                                                                                      
0000ce3d  _ZNSt3__222__compressed_pair_elemINS_9allocatorIP6I2cMsgEELi1ELb1EEC2Ev                                                                                                                                                                                                          
0000ce49  _ZNSt3__222__compressed_pair_elemIPP11ConsolePageLi0ELb0EE5__getEv                                                                                                                                                                                                               
0000ce55  _ZNSt3__222__compressed_pair_elemIPP6I2cMsgLi0ELb0EE5__getEv                                                                                                                                                                                                                     
0000ce61  _ZNSt3__24moveIRP6I2cMsgEEONS_16remove_referenceIT_E4typeEOS5_                                                                                                                                                                                                                   
0000ce6d  _ZNSt3__24moveIRPP11ConsolePageEEONS_16remove_referenceIT_E4typeEOS6_                                                                                                                                                                                                            
0000ce79  _ZNSt3__24moveIRPP6I2cMsgEEONS_16remove_referenceIT_E4typeEOS6_                                                                                                                                                                                                                  
0000ce85  _ZNSt3__26vectorIP6I2cMsgNS_9allocatorIS2_EEE27__invalidate_iterators_pastEPS2_                                                                                                                                                                                                  
0000ce91  _ZNSt3__27forwardIDnEEOT_RNS_16remove_referenceIS1_E4typeE                                                                                                                                                                                                                       
0000ce9d  _ZNSt3__27forwardIP6I2cMsgEEOT_RNS_16remove_referenceIS3_E4typeE                                                                                                                                                                                                                 
0000cea9  _ZNSt3__27forwardIRKP11ConsolePageEEOT_RNS_16remove_referenceIS5_E4typeE                                                                                                                                                                                                         
0000ceb5  _ZNSt3__27forwardIRNS_9allocatorIP11ConsolePageEEEEOT_RNS_16remove_referenceIS6_E4typeE                                                                                                                                                                                          
0000cec1  _ZNSt3__27forwardIRNS_9allocatorIP6I2cMsgEEEEOT_RNS_16remove_referenceIS6_E4typeE                                                                                                                                                                                                
0000cecd  _ZNSt3__29allocatorIP11ConsolePageE7destroyEPS2_                                                                                                                                                                                                                                 
0000ced9  _ZNSt3__29allocatorIP11ConsolePageEC1Ev                                                                                                                                                                                                                                          
0000cee5  _ZNSt3__29allocatorIP11ConsolePageEC2Ev                                                                                                                                                                                                                                          
0000cef1  _ZNSt3__29allocatorIP6I2cMsgE7destroyEPS2_                                                                                                                                                                                                                                       
0000cefd  _ZNSt3__29allocatorIP6I2cMsgEC1Ev                                                                                                                                                                                                                                                
0000cf09  _ZNSt3__29allocatorIP6I2cMsgEC2Ev                                                                                                                                                                                                                                                
0000cf15  __TI_zero_init                                                                                                                                                                                                                                                                   
0000cf21  ResetISR                                                                                                                                                                                                                                                                         
0000cf2d  _ZNSt3__220__throw_length_errorEPKc                                                                                                                                                                                                                                              
0000cf37  _ZNSt3__26vectorIP11ConsolePageNS_9allocatorIS2_EEE24__RAII_IncreaseAnnotator6__doneEv                                                                                                                                                                                           
0000cf41  _ZNSt3__26vectorIP11ConsolePageNS_9allocatorIS2_EEE26__invalidate_all_iteratorsEv                                                                                                                                                                                                
0000cf4b  _ZNSt3__26vectorIP6I2cMsgNS_9allocatorIS2_EEE24__RAII_IncreaseAnnotator6__doneEv                                                                                                                                                                                                 
0000cf55  _ZNSt3__26vectorIP6I2cMsgNS_9allocatorIS2_EEE26__invalidate_all_iteratorsEv                                                                                                                                                                                                      
0000cf69  __aeabi_errno_addr                                                                                                                                                                                                                                                               
0000cf71  malloc                                                                                                                                                                                                                                                                           
0000cf79  SysCtlDelay                                                                                                                                                                                                                                                                      
0000cf7f  __cxa_pure_virtual                                                                                                                                                                                                                                                               
0000cf85  _ZN10__cxxabiv117__class_type_infoD1Ev                                                                                                                                                                                                                                           
0000cf85  _ZN10__cxxabiv117__class_type_infoD2Ev                                                                                                                                                                                                                                           
0000cf89  _ZN10__cxxabiv120__si_class_type_infoD1Ev                                                                                                                                                                                                                                        
0000cf89  _ZN10__cxxabiv120__si_class_type_infoD2Ev                                                                                                                                                                                                                                        
0000cf8d  _ZdlPvj                                                                                                                                                                                                                                                                          
0000cf91  __abort_execution                                                                                                                                                                                                                                                                
0000cf95  _system_pre_init                                                                                                                                                                                                                                                                 
0000cf99  C$$EXIT                                                                                                                                                                                                                                                                          
0000cf99  _ZSt17__throw_bad_allocv                                                                                                                                                                                                                                                         
0000cf99  abort                                                                                                                                                                                                                                                                            
0000d0bc  _ctypes_                                                                                                                                                                                                                                                                         
0000d588  _ZZNSt3__29allocatorIP11ConsolePageE8allocateEjPKvEs                                                                                                                                                                                                                             
0000d5cc  _ZZNSt3__29allocatorIP6I2cMsgE8allocateEjPKvEs                                                                                                                                                                                                                                   
0000d730  _ZTSN10__cxxabiv120__si_class_type_infoE                                                                                                                                                                                                                                         
0000d755  _ZTSN10__cxxabiv117__class_type_infoE                                                                                                                                                                                                                                            
0000d798  _ZTV11ConsolePage                                                                                                                                                                                                                                                                
0000d7ac  _ZTV11ConsoleTask                                                                                                                                                                                                                                                                
0000d7c0  _ZTV11ErrorLogger                                                                                                                                                                                                                                                                
0000d7d4  _ZTV11TaskManager                                                                                                                                                                                                                                                                
0000d7e8  _ZTV14I2cMonitorTask                                                                                                                                                                                                                                                             
0000d7fc  _ZTV14I2cSnifferTask                                                                                                                                                                                                                                                             
0000d810  _ZTV7I2cTask                                                                                                                                                                                                                                                                     
0000d824  _ZTV8TestTask                                                                                                                                                                                                                                                                    
0000d89a  _ZTS14I2cMonitorTask                                                                                                                                                                                                                                                             
0000d8ab  _ZTS14I2cSnifferTask                                                                                                                                                                                                                                                             
0000d8bc  _ZTVN10__cxxabiv117__class_type_infoE                                                                                                                                                                                                                                            
0000d8cc  _ZTVN10__cxxabiv120__si_class_type_infoE                                                                                                                                                                                                                                         
0000d8dc  _ZTS11ConsolePage                                                                                                                                                                                                                                                                
0000d8ea  _ZTS11ConsoleTask                                                                                                                                                                                                                                                                
0000d8f8  _ZTS11ErrorLogger                                                                                                                                                                                                                                                                
0000d906  _ZTS11TaskManager                                                                                                                                                                                                                                                                
0000d914  _ZTSSt9type_info                                                                                                                                                                                                                                                                 
0000d924  _ZTI11ConsoleTask                                                                                                                                                                                                                                                                
0000d930  _ZTI11ErrorLogger                                                                                                                                                                                                                                                                
0000d93c  _ZTI11TaskManager                                                                                                                                                                                                                                                                
0000d948  _ZTI14I2cMonitorTask                                                                                                                                                                                                                                                             
0000d954  _ZTI14I2cSnifferTask                                                                                                                                                                                                                                                             
0000d960  _ZTI7I2cTask                                                                                                                                                                                                                                                                     
0000d96c  _ZTI8TestTask                                                                                                                                                                                                                                                                    
0000d978  _ZTIN10__cxxabiv117__class_type_infoE                                                                                                                                                                                                                                            
0000d984  _ZTIN10__cxxabiv120__si_class_type_infoE                                                                                                                                                                                                                                         
0000d9a8  _ZTS8TestTask                                                                                                                                                                                                                                                                    
0000d9b2  _ZTS7I2cTask                                                                                                                                                                                                                                                                     
0000d9bc  _ZTI11ConsolePage                                                                                                                                                                                                                                                                
0000d9c4  _ZTISt9type_info                                                                                                                                                                                                                                                                 
0000d9d4  ulMaxSyscallInterruptPriority                                                                                                                                                                                                                                                    
0000d9dc  _ZZNKSt3__220__vector_base_commonILb1EE20__throw_length_errorEvEs                                                                                                                                                                                                                
0000da8c  __TI_Handler_Table_Base                                                                                                                                                                                                                                                          
0000da98  __TI_Handler_Table_Limit                                                                                                                                                                                                                                                         
0000daa8  __TI_CINIT_Base                                                                                                                                                                                                                                                                  
0000dac0  __TI_CINIT_Limit                                                                                                                                                                                                                                                                 
20000000  __start___llvm_prf_cnts                                                                                                                                                                                                                                                          
20000000  __stop___llvm_prf_cnts                                                                                                                                                                                                                                                           
20000000  g_pfnRAMVectors                                                                                                                                                                                                                                                                  
2000026c  ucHeap                                                                                                                                                                                                                                                                           
2000431c  __CIOBUF_                                                                                                                                                                                                                                                                        
2000443c  __TI_tmpnams                                                                                                                                                                                                                                                                     
20004540  xQueueRegistry                                                                                                                                                                                                                                                                   
200045fc  parmbuf                                                                                                                                                                                                                                                                          
20004608  __stack                                                                                                                                                                                                                                                                          
20004808  __STACK_TOP                                                                                                                                                                                                                                                                      
20004e08  __STACK_END                                                                                                                                                                                                                                                                      
20004e08  _ftable                                                                                                                                                                                                                                                                          
20004ef8  _device                                                                                                                                                                                                                                                                          
20004f70  _stream                                                                                                                                                                                                                                                                          
20004fc0  pxCurrentTCB                                                                                                                                                                                                                                                                     
20005018  __TI_ft_end                                                                                                                                                                                                                                                                      
2000501c  __aeabi_stdin                                                                                                                                                                                                                                                                    
20005020  __aeabi_stdout                                                                                                                                                                                                                                                                   
20005024  __aeabi_stderr                                                                                                                                                                                                                                                                   
20005028  __TI_cleanup_ptr                                                                                                                                                                                                                                                                 
2000502c  __TI_dtors_ptr                                                                                                                                                                                                                                                                   
20005030  __TI_enable_exit_profile_output                                                                                                                                                                                                                                                  
20005040  _lock                                                                                                                                                                                                                                                                            
20005044  _unlock                                                                                                                                                                                                                                                                          
20005054  _ZN11ErrorLogger3objE                                                                                                                                                                                                                                                            
20005068  errno                                                                                                                                                                                                                                                                            
20005070  _sys_memory                                                                                                                                                                                                                                                                      
ffffffff  __TI_pprof_out_hndl                                                                                                                                                                                                                                                              
ffffffff  __TI_prof_data_size                                                                                                                                                                                                                                                              
ffffffff  __TI_prof_data_start                                                                                                                                                                                                                                                             
ffffffff  __binit__                                                                                                                                                                                                                                                                        
ffffffff  __c_args__                                                                                                                                                                                                                                                                       
ffffffff  binit                                                                                                                                                                                                                                                                            
UNDEFED   __mpu_init                                                                                                                                                                                                                                                                       
UNDEFED   _system_post_cinit                                                                                                                                                                                                                                                               

[812 symbols]
