******************************************************************************
                  TI ARM Linker PC v20.2.2                     
******************************************************************************
>> Linked Wed Aug 11 15:48:24 2021

OUTPUT FILE NAME:   <MicroMasterTM4C123G.out>
ENTRY POINT SYMBOL: "_c_int00_noargs"  address: 000107bd


MEMORY CONFIGURATION

         name            origin    length      used     unused   attr    fill
----------------------  --------  ---------  --------  --------  ----  --------
  FLASH                 00000000   00040000  00012e84  0002d17c  R  X
  SRAM                  20000000   00008000  000051d8  00002e28  RW X


SEGMENT ALLOCATION MAP

run origin  load origin   length   init length attrs members
----------  ----------- ---------- ----------- ----- -------
00000000    00000000    00012e88   00012e88    r-x
  00000000    00000000    0000026c   0000026c    r-- .intvecs
  0000026c    0000026c    00011db4   00011db4    r-x .text
  00012020    00012020    00000ce4   00000ce4    r-- .const
  00012d08    00012d08    00000180   00000180    r-- .cinit
20000000    20000000    000051d8   00000000    rw-
  20000000    20000000    0000026c   00000000    rw- .vtable
  2000026c    2000026c    000043a4   00000000    rw- .bss
  20004610    20004610    00000800   00000000    rw- .stack
  20004e10    20004e10    000003b8   00000000    rw- .data
  200051c8    200051c8    00000010   00000000    rw- .sysmem


SECTION ALLOCATION MAP

 output                                  attributes/
section   page    origin      length       input sections
--------  ----  ----------  ----------   ----------------
.intvecs   0    00000000    0000026c     
                  00000000    0000026c     tm4c123gh6pm_startup_ccs.obj (.intvecs)

.text      0    0000026c    00011db4     
                  0000026c    00001ddc     tasks.obj (.text)
                  00002048    00001238     I2C_task.obj (.text)
                  00003280    00000fa8     queue.obj (.text)
                  00004228    00000ef4     sysctl.obj (.text)
                  0000511c    00000b88     gpio.obj (.text)
                  00005ca4    00000b86     SPI_command.obj (.text)
                  0000682a    00000002     rtsv7M4_T_le_v4SPD16_eabi.lib : vector.cpp.obj (.text:_ZNSt3__220__vector_base_commonILb1EEC2Ev)
                  0000682c    00000a4e                                   : _printfi.c.obj (.text:__TI_printfi)
                  0000727a    00000002                                   : stdlib_typeinfo.cpp.obj (.text:_ZNSt9type_infoD1Ev)
                  0000727c    000007c2     adc.obj (.text)
                  00007a3e    00000002     rtsv7M4_T_le_v4SPD16_eabi.lib : _lock.c.obj (.text:_nop)
                  00007a40    00000718     pwm.obj (.text)
                  00008158    0000069c     i2c.obj (.text)
                  000087f4    00000662     console_task.obj (.text)
                  00008e56    00000002     rtsv7M4_T_le_v4SPD16_eabi.lib : div0.asm.obj (.text)
                  00008e58    00000642     timer.obj (.text)
                  0000949a    00000002     --HOLE-- [fill = 0]
                  0000949c    00000618     uart.obj (.text)
                  00009ab4    000005dd     I2C_monitor.obj (.text)
                  0000a091    00000003     --HOLE-- [fill = 0]
                  0000a094    000005a4     I2C_scripter.obj (.text)
                  0000a638    000004a8     uartstdio.obj (.text)
                  0000aae0    0000046b     PWM_page.obj (.text)
                  0000af4b    00000001     --HOLE-- [fill = 0]
                  0000af4c    00000454     heap_4.obj (.text)
                  0000b3a0    00000402     menu_page.obj (.text)
                  0000b7a2    00000002     --HOLE-- [fill = 0]
                  0000b7a4    000003c0     interrupt.obj (.text)
                  0000bb64    000003b4     io_control_page.obj (.text)
                  0000bf18    00000346     ssi.obj (.text)
                  0000c25e    00000002     --HOLE-- [fill = 0]
                  0000c260    000002a4     task_manager.obj (.text)
                  0000c504    000002a0     error_logger.obj (.text)
                  0000c7a4    0000029c     I2C_sniffer.obj (.text)
                  0000ca40    0000028c     ADC_task.obj (.text)
                  0000cccc    0000028c     port.obj (.text)
                  0000cf58    00000284     no_booster_board.obj (.text)
                  0000d1dc    00000270     rtsv7M4_T_le_v4SPD16_eabi.lib : _printfi.c.obj (.text:_pconv_a)
                  0000d44c    00000214     GPIs.obj (.text)
                  0000d660    000001d4     GPOs.obj (.text)
                  0000d834    000001d0     rtsv7M4_T_le_v4SPD16_eabi.lib : _printfi.c.obj (.text:_pconv_g)
                  0000da04    000001b6                                   : fd_add_t2.asm.obj (.text)
                  0000dbba    00000002     --HOLE-- [fill = 0]
                  0000dbbc    0000013c                                   : _printfi.c.obj (.text:_pconv_e)
                  0000dcf8    00000136                                   : fd_div_t2.asm.obj (.text)
                  0000de2e    0000012a     list.obj (.text)
                  0000df58    00000124     rtsv7M4_T_le_v4SPD16_eabi.lib : _printfi.c.obj (.text:fcvt)
                  0000e07c    00000114                                   : fputs.c.obj (.text:fputs)
                  0000e190    00000110                                   : s_scalbn.c.obj (.text:scalbn)
                  0000e2a0    00000100                                   : memory.c.obj (.text:aligned_alloc)
                  0000e3a0    000000fc     console_uart.obj (.text)
                  0000e49c    000000fc     rtsv7M4_T_le_v4SPD16_eabi.lib : fd_mul_t2.asm.obj (.text)
                  0000e598    000000f4     test_task.obj (.text)
                  0000e68c    000000e4     rtsv7M4_T_le_v4SPD16_eabi.lib : memory.c.obj (.text:free)
                  0000e770    000000dc                                   : setvbuf.c.obj (.text:setvbuf)
                  0000e84c    000000da     portasm.obj (.text)
                  0000e926    00000002     --HOLE-- [fill = 0]
                  0000e928    000000d2     text_controls.obj (.text)
                  0000e9fa    00000002     --HOLE-- [fill = 0]
                  0000e9fc    000000c0     fpu.obj (.text)
                  0000eabc    000000b1     rtsv7M4_T_le_v4SPD16_eabi.lib : _printfi.c.obj (.text:_ltostr)
                  0000eb6d    00000001     --HOLE-- [fill = 0]
                  0000eb6e    000000b0     I2C_monitor.obj (.text:_ZNSt3__26vectorIP6I2cMsgNS_9allocatorIS2_EEE6assignIPS2_EENS_9enable_ifIXaasr3std3__221__is_forward_iteratorIT_EE5valuesr3std3__216is_constructibleIS2_JNS_15iterator_traitsIS9_E9referenceEEEE5valueEvE4typeES9_S9_)
                  0000ec1e    0000009c     rtsv7M4_T_le_v4SPD16_eabi.lib : memcpy_t2.asm.obj (.text)
                  0000ecba    00000096                                   : ull_div_t2.asm.obj (.text)
                  0000ed50    00000086                                   : fd_cmp_t2.asm.obj (.text:__aeabi_cdcmple)
                  0000edd6    00000086                                   : fd_cmp_t2.asm.obj (.text:__aeabi_cdrcmple)
                  0000ee5c    0000007c                                   : fflush.c.obj (.text:fflush)
                  0000eed8    0000007a                                   : memset_t2.asm.obj (.text)
                  0000ef52    00000002     --HOLE-- [fill = 0]
                  0000ef54    00000074                                   : fclose.c.obj (.text:__TI_closefile)
                  0000efc8    00000070                                   : memory.c.obj (.text:split)
                  0000f038    0000006e                                   : _printfi.c.obj (.text:_mcpy)
                  0000f0a6    00000002     --HOLE-- [fill = 0]
                  0000f0a8    0000006c                                   : hostrename.c.obj (.text:HOSTrename)
                  0000f114    0000006c     console_task.obj (.text:_ZNSt3__26vectorIP11ConsolePageNS_9allocatorIS2_EEE26__swap_out_circular_bufferERNS_14__split_bufferIS2_RS4_EE)
                  0000f180    0000006c     I2C_task.obj (.text:_ZNSt3__26vectorIP6I2cMsgNS_9allocatorIS2_EEE26__swap_out_circular_bufferERNS_14__split_bufferIS2_RS4_EE)
                  0000f1ec    0000006c     SPI_command.obj (.text:_ZNSt3__26vectorIP6SpiMsgNS_9allocatorIS2_EEE26__swap_out_circular_bufferERNS_14__split_bufferIS2_RS4_EE)
                  0000f258    0000006c     menu_page.obj (.text:_ZNSt3__26vectorIP7MenuRowNS_9allocatorIS2_EEE26__swap_out_circular_bufferERNS_14__split_bufferIS2_RS4_EE)
                  0000f2c4    00000068     rtsv7M4_T_le_v4SPD16_eabi.lib : hostlseek.c.obj (.text:HOSTlseek)
                  0000f32c    00000068                                   : copy_decompress_lzss.c.obj (.text:decompress:lzss:__TI_decompress_lzss)
                  0000f394    00000064     console_task.obj (.text:_ZNSt3__26vectorIP11ConsolePageNS_9allocatorIS2_EEE21__push_back_slow_pathIRKS2_EEvOT_)
                  0000f3f8    00000064     I2C_task.obj (.text:_ZNSt3__26vectorIP6I2cMsgNS_9allocatorIS2_EEE21__push_back_slow_pathIS2_EEvOT_)
                  0000f45c    00000064     SPI_command.obj (.text:_ZNSt3__26vectorIP6SpiMsgNS_9allocatorIS2_EEE21__push_back_slow_pathIS2_EEvOT_)
                  0000f4c0    00000064     menu_page.obj (.text:_ZNSt3__26vectorIP7MenuRowNS_9allocatorIS2_EEE21__push_back_slow_pathIRKS2_EEvOT_)
                  0000f524    00000064     rtsv7M4_T_le_v4SPD16_eabi.lib : s_frexp.c.obj (.text:frexp)
                  0000f588    00000064                                   : fseek.c.obj (.text:fseek)
                  0000f5ec    00000062     I2C_task.obj (.text:_ZNSt3__26vectorIP6I2cMsgNS_9allocatorIS2_EEE9push_backEOS2_)
                  0000f64e    00000062     SPI_command.obj (.text:_ZNSt3__26vectorIP6SpiMsgNS_9allocatorIS2_EEE9push_backEOS2_)
                  0000f6b0    00000062     rtsv7M4_T_le_v4SPD16_eabi.lib : _io_perm.c.obj (.text:__TI_wrt_ok)
                  0000f712    00000002     --HOLE-- [fill = 0]
                  0000f714    00000060                                   : hostopen.c.obj (.text:HOSTopen)
                  0000f774    00000060     console_task.obj (.text:_ZNSt3__214__split_bufferIP11ConsolePageRNS_9allocatorIS2_EEEC1EjjS5_)
                  0000f7d4    00000060     I2C_task.obj (.text:_ZNSt3__214__split_bufferIP6I2cMsgRNS_9allocatorIS2_EEEC1EjjS5_)
                  0000f834    00000060     SPI_command.obj (.text:_ZNSt3__214__split_bufferIP6SpiMsgRNS_9allocatorIS2_EEEC1EjjS5_)
                  0000f894    00000060     menu_page.obj (.text:_ZNSt3__214__split_bufferIP7MenuRowRNS_9allocatorIS2_EEEC1EjjS5_)
                  0000f8f4    00000060     utils.obj (.text)
                  0000f954    0000005c     rtsv7M4_T_le_v4SPD16_eabi.lib : close.c.obj (.text:close)
                  0000f9b0    00000058                                   : hostread.c.obj (.text:HOSTread)
                  0000fa08    00000058                                   : hostwrite.c.obj (.text:HOSTwrite)
                  0000fa60    00000056     console_task.obj (.text:_ZNKSt3__26vectorIP11ConsolePageNS_9allocatorIS2_EEE17__annotate_deleteEv)
                  0000fab6    00000056     I2C_task.obj (.text:_ZNKSt3__26vectorIP6I2cMsgNS_9allocatorIS2_EEE17__annotate_deleteEv)
                  0000fb0c    00000056     SPI_command.obj (.text:_ZNKSt3__26vectorIP6SpiMsgNS_9allocatorIS2_EEE17__annotate_deleteEv)
                  0000fb62    00000056     menu_page.obj (.text:_ZNKSt3__26vectorIP7MenuRowNS_9allocatorIS2_EEE17__annotate_deleteEv)
                  0000fbb8    00000056     console_task.obj (.text:_ZNSt3__26vectorIP11ConsolePageNS_9allocatorIS2_EEE9push_backERKS2_)
                  0000fc0e    00000056     menu_page.obj (.text:_ZNSt3__26vectorIP7MenuRowNS_9allocatorIS2_EEE9push_backERKS2_)
                  0000fc64    00000056     rtsv7M4_T_le_v4SPD16_eabi.lib : _printfi.c.obj (.text:_pconv_f)
                  0000fcba    00000054     console_task.obj (.text:_ZNKSt3__26vectorIP11ConsolePageNS_9allocatorIS2_EEE14__annotate_newEj)
                  0000fd0e    00000054     I2C_monitor.obj (.text:_ZNKSt3__26vectorIP6I2cMsgNS_9allocatorIS2_EEE14__annotate_newEj)
                  0000fd62    00000054     SPI_command.obj (.text:_ZNKSt3__26vectorIP6SpiMsgNS_9allocatorIS2_EEE14__annotate_newEj)
                  0000fdb6    00000054     menu_page.obj (.text:_ZNKSt3__26vectorIP7MenuRowNS_9allocatorIS2_EEE14__annotate_newEj)
                  0000fe0a    00000054     rtsv7M4_T_le_v4SPD16_eabi.lib : _ltoa.c.obj (.text:__TI_ltoa)
                  0000fe5e    00000052     I2C_monitor.obj (.text:_ZNKSt3__26vectorIP6I2cMsgNS_9allocatorIS2_EEE17__annotate_shrinkEj)
                  0000feb0    00000052     rtsv7M4_T_le_v4SPD16_eabi.lib : _printfi.c.obj (.text:_ecpy)
                  0000ff02    0000004c                                   : fflush.c.obj (.text:__TI_doflush)
                  0000ff4e    00000002     --HOLE-- [fill = 0]
                  0000ff50    0000004c                                   : atoi.c.obj (.text:atoi)
                  0000ff9c    0000004a     console_task.obj (.text:_ZNKSt3__26vectorIP11ConsolePageNS_9allocatorIS2_EEE11__recommendEj)
                  0000ffe6    0000004a     I2C_monitor.obj (.text:_ZNKSt3__26vectorIP6I2cMsgNS_9allocatorIS2_EEE11__recommendEj)
                  00010030    0000004a     SPI_command.obj (.text:_ZNKSt3__26vectorIP6SpiMsgNS_9allocatorIS2_EEE11__recommendEj)
                  0001007a    0000004a     menu_page.obj (.text:_ZNKSt3__26vectorIP7MenuRowNS_9allocatorIS2_EEE11__recommendEj)
                  000100c4    00000048     I2C_monitor.obj (.text:_ZNSt3__26vectorIP6I2cMsgNS_9allocatorIS2_EEE8allocateEj)
                  0001010c    00000048     rtsv7M4_T_le_v4SPD16_eabi.lib : exit.c.obj (.text:exit)
                  00010154    00000048                                   : fd_toi_t2.asm.obj (.text)
                  0001019c    00000044                                   : hostclose.c.obj (.text:HOSTclose)
                  000101e0    00000044                                   : hostunlink.c.obj (.text:HOSTunlink)
                  00010224    00000044                                   : autoinit.c.obj (.text:__TI_auto_init_nobinit_nopinit:__TI_auto_init_nobinit_nopinit)
                  00010268    00000044                                   : getdevice.c.obj (.text:getdevice)
                  000102ac    00000044                                   : fd_tou_t2.asm.obj (.text)
                  000102f0    00000040     I2C_monitor.obj (.text:_ZNSt3__213__vector_baseIP6I2cMsgNS_9allocatorIS2_EEE17__destruct_at_endEPS2_)
                  00010330    00000040     I2C_monitor.obj (.text:_ZNSt3__26vectorIP6I2cMsgNS_9allocatorIS2_EEE10deallocateEv)
                  00010370    00000040     rtsv7M4_T_le_v4SPD16_eabi.lib : u_divt2.asm.obj (.text)
                  000103b0    00000040                                   : sprintf.c.obj (.text:sprintf)
                  000103f0    0000003e                                   : _printfi.c.obj (.text:_fcpy)
                  0001042e    0000003e     cpu.obj (.text)
                  0001046c    0000003c     console_task.obj (.text:_ZNSt3__216allocator_traitsINS_9allocatorIP11ConsolePageEEE20__construct_backwardIS3_EENS_9enable_ifIXaaoosr3std3__27is_sameIS4_NS1_IT_EEEE5valuentsr3std3__215__has_constructIS4_PS8_JS8_EEE5valuesr3std3__231is_trivially_move_constructibleIS8_EE5valueEvE4typeERS4_SA_SA_RSA_)
                  000104a8    0000003c     I2C_task.obj (.text:_ZNSt3__216allocator_traitsINS_9allocatorIP6I2cMsgEEE20__construct_backwardIS3_EENS_9enable_ifIXaaoosr3std3__27is_sameIS4_NS1_IT_EEEE5valuentsr3std3__215__has_constructIS4_PS8_JS8_EEE5valuesr3std3__231is_trivially_move_constructibleIS8_EE5valueEvE4typeERS4_SA_SA_RSA_)
                  000104e4    0000003c     I2C_monitor.obj (.text:_ZNSt3__216allocator_traitsINS_9allocatorIP6I2cMsgEEE25__construct_range_forwardIS3_EENS_9enable_ifIXaaoosr3std3__27is_sameIS4_NS1_IT_EEEE5valuentsr3std3__215__has_constructIS4_PS8_JS8_EEE5valuesr3std3__231is_trivially_move_constructibleIS8_EE5valueEvE4typeERS4_SA_SA_RSA_)
                  00010520    0000003c     SPI_command.obj (.text:_ZNSt3__216allocator_traitsINS_9allocatorIP6SpiMsgEEE20__construct_backwardIS3_EENS_9enable_ifIXaaoosr3std3__27is_sameIS4_NS1_IT_EEEE5valuentsr3std3__215__has_constructIS4_PS8_JS8_EEE5valuesr3std3__231is_trivially_move_constructibleIS8_EE5valueEvE4typeERS4_SA_SA_RSA_)
                  0001055c    0000003c     menu_page.obj (.text:_ZNSt3__216allocator_traitsINS_9allocatorIP7MenuRowEEE20__construct_backwardIS3_EENS_9enable_ifIXaaoosr3std3__27is_sameIS4_NS1_IT_EEEE5valuentsr3std3__215__has_constructIS4_PS8_JS8_EEE5valuesr3std3__231is_trivially_move_constructibleIS8_EE5valueEvE4typeERS4_SA_SA_RSA_)
                  00010598    0000003c     main.obj (.text)
                  000105d4    00000038     I2C_monitor.obj (.text:_ZNSt3__26vectorIP6I2cMsgNS_9allocatorIS2_EEE18__construct_at_endIPS2_EENS_9enable_ifIXsr3std3__221__is_forward_iteratorIT_EE5valueEvE4typeES9_S9_j)
                  0001060c    00000038     rtsv7M4_T_le_v4SPD16_eabi.lib : trgmsg.c.obj (.text:__TI_writemsg)
                  00010644    00000036     console_task.obj (.text:_ZNSt3__214__split_bufferIP11ConsolePageRNS_9allocatorIS2_EEE17__destruct_at_endEPS2_NS_17integral_constantIbLb0EEE)
                  0001067a    00000036     I2C_task.obj (.text:_ZNSt3__214__split_bufferIP6I2cMsgRNS_9allocatorIS2_EEE17__destruct_at_endEPS2_NS_17integral_constantIbLb0EEE)
                  000106b0    00000036     SPI_command.obj (.text:_ZNSt3__214__split_bufferIP6SpiMsgRNS_9allocatorIS2_EEE17__destruct_at_endEPS2_NS_17integral_constantIbLb0EEE)
                  000106e6    00000036     menu_page.obj (.text:_ZNSt3__214__split_bufferIP7MenuRowRNS_9allocatorIS2_EEE17__destruct_at_endEPS2_NS_17integral_constantIbLb0EEE)
                  0001071c    00000036     rtsv7M4_T_le_v4SPD16_eabi.lib : strncpy.c.obj (.text:strncpy)
                  00010752    00000002     --HOLE-- [fill = 0]
                  00010754    00000034                                   : fopen.c.obj (.text:__TI_cleanup)
                  00010788    00000034                                   : trgmsg.c.obj (.text:__TI_readmsg)
                  000107bc    00000034                                   : boot_cortex_m.c.obj (.text:_c_int00_noargs:_c_int00_noargs)
                  000107f0    00000032     I2C_monitor.obj (.text:_ZNSt3__26__copyIP6I2cMsgS2_EENS_9enable_ifIXaasr3std3__27is_sameINS_12remove_constIT_E4typeET0_EE5valuesr3std3__228is_trivially_copy_assignableIS8_EE5valueEPS8_E4typeEPS5_SC_S9_)
                  00010822    00000002     --HOLE-- [fill = 0]
                  00010824    00000030     rtsv7M4_T_le_v4SPD16_eabi.lib : getdevice.c.obj (.text:finddevice)
                  00010854    00000030     memory_functions.obj (.text)
                  00010884    0000002e     console_task.obj (.text:_ZNSt3__214__split_bufferIP11ConsolePageRNS_9allocatorIS2_EEED1Ev)
                  000108b2    0000002e     I2C_task.obj (.text:_ZNSt3__214__split_bufferIP6I2cMsgRNS_9allocatorIS2_EEED1Ev)
                  000108e0    0000002e     SPI_command.obj (.text:_ZNSt3__214__split_bufferIP6SpiMsgRNS_9allocatorIS2_EEED1Ev)
                  0001090e    0000002e     menu_page.obj (.text:_ZNSt3__214__split_bufferIP7MenuRowRNS_9allocatorIS2_EEED1Ev)
                  0001093c    0000002e     console_task.obj (.text:_ZNSt3__29allocatorIP11ConsolePageE9constructIS2_JRKS2_EEEvPT_DpOT0_)
                  0001096a    0000002e     I2C_task.obj (.text:_ZNSt3__29allocatorIP6I2cMsgE9constructIS2_JS2_EEEvPT_DpOT0_)
                  00010998    0000002e     SPI_command.obj (.text:_ZNSt3__29allocatorIP6SpiMsgE9constructIS2_JS2_EEEvPT_DpOT0_)
                  000109c6    0000002e     menu_page.obj (.text:_ZNSt3__29allocatorIP7MenuRowE9constructIS2_JRKS2_EEEvPT_DpOT0_)
                  000109f4    0000002e     rtsv7M4_T_le_v4SPD16_eabi.lib : i_tofd_t2.asm.obj (.text)
                  00010a22    00000002     --HOLE-- [fill = 0]
                  00010a24    0000002c                                   : unlink.c.obj (.text:unlink)
                  00010a50    0000002a     console_task.obj (.text:_ZNSt3__217__compressed_pairIPP11ConsolePageRNS_9allocatorIS2_EEEC1IDnS6_EEOT_OT0_)
                  00010a7a    0000002a     I2C_task.obj (.text:_ZNSt3__217__compressed_pairIPP6I2cMsgRNS_9allocatorIS2_EEEC1IDnS6_EEOT_OT0_)
                  00010aa4    0000002a     SPI_command.obj (.text:_ZNSt3__217__compressed_pairIPP6SpiMsgRNS_9allocatorIS2_EEEC1IDnS6_EEOT_OT0_)
                  00010ace    0000002a     menu_page.obj (.text:_ZNSt3__217__compressed_pairIPP7MenuRowRNS_9allocatorIS2_EEEC1IDnS6_EEOT_OT0_)
                  00010af8    0000002a     I2C_monitor.obj (.text:_ZNSt3__24copyIPP6I2cMsgS3_EET0_T_S5_S4_)
                  00010b22    0000002a     console_task.obj (.text:_ZNSt3__24swapIPP11ConsolePageEENS_9enable_ifIXaasr3std3__221is_move_constructibleIT_EE5valuesr3std3__218is_move_assignableIS5_EE5valueEvE4typeERS5_S8_)
                  00010b4c    0000002a     I2C_task.obj (.text:_ZNSt3__24swapIPP6I2cMsgEENS_9enable_ifIXaasr3std3__221is_move_constructibleIT_EE5valuesr3std3__218is_move_assignableIS5_EE5valueEvE4typeERS5_S8_)
                  00010b76    0000002a     SPI_command.obj (.text:_ZNSt3__24swapIPP6SpiMsgEENS_9enable_ifIXaasr3std3__221is_move_constructibleIT_EE5valuesr3std3__218is_move_assignableIS5_EE5valueEvE4typeERS5_S8_)
                  00010ba0    0000002a     menu_page.obj (.text:_ZNSt3__24swapIPP7MenuRowEENS_9enable_ifIXaasr3std3__221is_move_constructibleIT_EE5valuesr3std3__218is_move_assignableIS5_EE5valueEvE4typeERS5_S8_)
                  00010bca    0000002a     hooks.obj (.text)
                  00010bf4    00000028     console_task.obj (.text:_ZNSt3__213__vector_baseIP11ConsolePageNS_9allocatorIS2_EEEC1Ev)
                  00010c1c    00000028     I2C_monitor.obj (.text:_ZNSt3__213__vector_baseIP6I2cMsgNS_9allocatorIS2_EEEC1Ev)
                  00010c44    00000028     SPI_command.obj (.text:_ZNSt3__213__vector_baseIP6SpiMsgNS_9allocatorIS2_EEEC1Ev)
                  00010c6c    00000028     menu_page.obj (.text:_ZNSt3__213__vector_baseIP7MenuRowNS_9allocatorIS2_EEEC1Ev)
                  00010c94    00000028     I2C_monitor.obj (.text:_ZNSt3__26vectorIP6I2cMsgNS_9allocatorIS2_EEE17__destruct_at_endEPS2_)
                  00010cbc    00000028     I2C_monitor.obj (.text:_ZNSt3__26vectorIP6I2cMsgNS_9allocatorIS2_EEEaSERKS5_)
                  00010ce4    00000028     console_task.obj (.text:_ZNSt3__29allocatorIP11ConsolePageE8allocateEjPKv)
                  00010d0c    00000028     I2C_monitor.obj (.text:_ZNSt3__29allocatorIP6I2cMsgE8allocateEjPKv)
                  00010d34    00000028     SPI_command.obj (.text:_ZNSt3__29allocatorIP6SpiMsgE8allocateEjPKv)
                  00010d5c    00000028     menu_page.obj (.text:_ZNSt3__29allocatorIP7MenuRowE8allocateEjPKv)
                  00010d84    00000028     rtsv7M4_T_le_v4SPD16_eabi.lib : memory.c.obj (.text:free_list_insert)
                  00010dac    00000028                                   : lseek.c.obj (.text:lseek)
                  00010dd4    00000028                                   : memmov.c.obj (.text:memmove)
                  00010dfc    00000028                                   : write.c.obj (.text:write)
                  00010e24    00000024     console_task.obj (.text:_ZNKSt3__26vectorIP11ConsolePageNS_9allocatorIS2_EEE8max_sizeEv)
                  00010e48    00000024     I2C_monitor.obj (.text:_ZNKSt3__26vectorIP6I2cMsgNS_9allocatorIS2_EEE8max_sizeEv)
                  00010e6c    00000024     SPI_command.obj (.text:_ZNKSt3__26vectorIP6SpiMsgNS_9allocatorIS2_EEE8max_sizeEv)
                  00010e90    00000024     menu_page.obj (.text:_ZNKSt3__26vectorIP7MenuRowNS_9allocatorIS2_EEE8max_sizeEv)
                  00010eb4    00000024     console_task.obj (.text:_ZNSt3__216allocator_traitsINS_9allocatorIP11ConsolePageEEE11__constructIS3_JRKS3_EEEvNS_17integral_constantIbLb1EEERS4_PT_DpOT0_)
                  00010ed8    00000024     console_task.obj (.text:_ZNSt3__216allocator_traitsINS_9allocatorIP11ConsolePageEEE9constructIS3_JRKS3_EEEvRS4_PT_DpOT0_)
                  00010efc    00000024     I2C_task.obj (.text:_ZNSt3__216allocator_traitsINS_9allocatorIP6I2cMsgEEE11__constructIS3_JS3_EEEvNS_17integral_constantIbLb1EEERS4_PT_DpOT0_)
                  00010f20    00000024     I2C_task.obj (.text:_ZNSt3__216allocator_traitsINS_9allocatorIP6I2cMsgEEE9constructIS3_JS3_EEEvRS4_PT_DpOT0_)
                  00010f44    00000024     SPI_command.obj (.text:_ZNSt3__216allocator_traitsINS_9allocatorIP6SpiMsgEEE11__constructIS3_JS3_EEEvNS_17integral_constantIbLb1EEERS4_PT_DpOT0_)
                  00010f68    00000024     SPI_command.obj (.text:_ZNSt3__216allocator_traitsINS_9allocatorIP6SpiMsgEEE9constructIS3_JS3_EEEvRS4_PT_DpOT0_)
                  00010f8c    00000024     menu_page.obj (.text:_ZNSt3__216allocator_traitsINS_9allocatorIP7MenuRowEEE11__constructIS3_JRKS3_EEEvNS_17integral_constantIbLb1EEERS4_PT_DpOT0_)
                  00010fb0    00000024     menu_page.obj (.text:_ZNSt3__216allocator_traitsINS_9allocatorIP7MenuRowEEE9constructIS3_JRKS3_EEEvRS4_PT_DpOT0_)
                  00010fd4    00000022     I2C_monitor.obj (.text:_ZNSt3__26vectorIP6I2cMsgNS_9allocatorIS2_EEE5clearEv)
                  00010ff6    00000020     rtsv7M4_T_le_v4SPD16_eabi.lib : memchr.c.obj (.text:memchr)
                  00011016    00000020                                   : u_tofd_t2.asm.obj (.text)
                  00011036    0000001e     I2C_monitor.obj (.text:_ZNKSt3__26__lessIjjEclERKjS3_)
                  00011054    0000001e     console_task.obj (.text:_ZNSt3__217__compressed_pairIPP11ConsolePageNS_9allocatorIS2_EEEC1IDnLb1EEEOT_)
                  00011072    0000001e     I2C_monitor.obj (.text:_ZNSt3__217__compressed_pairIPP6I2cMsgNS_9allocatorIS2_EEEC1IDnLb1EEEOT_)
                  00011090    0000001e     SPI_command.obj (.text:_ZNSt3__217__compressed_pairIPP6SpiMsgNS_9allocatorIS2_EEEC1IDnLb1EEEOT_)
                  000110ae    0000001e     menu_page.obj (.text:_ZNSt3__217__compressed_pairIPP7MenuRowNS_9allocatorIS2_EEEC1IDnLb1EEEOT_)
                  000110cc    0000001e     I2C_monitor.obj (.text:_ZNSt3__23maxIjNS_6__lessIjjEEEERKT_S5_S5_T0_)
                  000110ea    0000001e     I2C_monitor.obj (.text:_ZNSt3__23minIjNS_6__lessIjjEEEERKT_S5_S5_T0_)
                  00011108    0000001c     I2C_monitor.obj (.text:_ZNSt3__29__advanceIPP6I2cMsgEEvRT_NS_15iterator_traitsIS4_E15difference_typeENS_26random_access_iterator_tagE)
                  00011124    0000001c     rtsv7M4_T_le_v4SPD16_eabi.lib : assert.c.obj (.text:_abort_msg)
                  00011140    0000001c                                   : memory.c.obj (.text:free_list_remove)
                  0001115c    0000001c                                   : memccpy.c.obj (.text:memccpy)
                  00011178    0000001a                                   : s_copysign.c.obj (.text:copysign)
                  00011192    00000018     I2C_monitor.obj (.text:_ZNSt3__210__distanceIPP6I2cMsgEENS_15iterator_traitsIT_E15difference_typeES5_S5_NS_26random_access_iterator_tagE)
                  000111aa    00000018     rtsv7M4_T_le_v4SPD16_eabi.lib : sprintf.c.obj (.text:_outs)
                  000111c2    00000018                                   : strcmp.c.obj (.text:strcmp)
                  000111da    00000016     console_task.obj (.text:_ZNKSt3__213__vector_baseIP11ConsolePageNS_9allocatorIS2_EEE8capacityEv)
                  000111f0    00000016     I2C_monitor.obj (.text:_ZNKSt3__213__vector_baseIP6I2cMsgNS_9allocatorIS2_EEE8capacityEv)
                  00011206    00000016     SPI_command.obj (.text:_ZNKSt3__213__vector_baseIP6SpiMsgNS_9allocatorIS2_EEE8capacityEv)
                  0001121c    00000016     menu_page.obj (.text:_ZNKSt3__213__vector_baseIP7MenuRowNS_9allocatorIS2_EEE8capacityEv)
                  00011232    00000016     console_task.obj (.text:_ZNKSt3__214__split_bufferIP11ConsolePageRNS_9allocatorIS2_EEE8capacityEv)
                  00011248    00000016     I2C_task.obj (.text:_ZNKSt3__214__split_bufferIP6I2cMsgRNS_9allocatorIS2_EEE8capacityEv)
                  0001125e    00000016     SPI_command.obj (.text:_ZNKSt3__214__split_bufferIP6SpiMsgRNS_9allocatorIS2_EEE8capacityEv)
                  00011274    00000016     menu_page.obj (.text:_ZNKSt3__214__split_bufferIP7MenuRowRNS_9allocatorIS2_EEE8capacityEv)
                  0001128a    00000016     console_task.obj (.text:_ZNKSt3__26vectorIP11ConsolePageNS_9allocatorIS2_EEE4sizeEv)
                  000112a0    00000016     I2C_monitor.obj (.text:_ZNKSt3__26vectorIP6I2cMsgNS_9allocatorIS2_EEE4sizeEv)
                  000112b6    00000016     SPI_command.obj (.text:_ZNKSt3__26vectorIP6SpiMsgNS_9allocatorIS2_EEE4sizeEv)
                  000112cc    00000016     menu_page.obj (.text:_ZNKSt3__26vectorIP7MenuRowNS_9allocatorIS2_EEE4sizeEv)
                  000112e2    00000016     console_task.obj (.text:_ZNSt3__222__compressed_pair_elemIPP11ConsolePageLi0ELb0EEC1IDnvEEOT_)
                  000112f8    00000016     I2C_monitor.obj (.text:_ZNSt3__222__compressed_pair_elemIPP6I2cMsgLi0ELb0EEC1IDnvEEOT_)
                  0001130e    00000016     SPI_command.obj (.text:_ZNSt3__222__compressed_pair_elemIPP6SpiMsgLi0ELb0EEC1IDnvEEOT_)
                  00011324    00000016     menu_page.obj (.text:_ZNSt3__222__compressed_pair_elemIPP7MenuRowLi0ELb0EEC1IDnvEEOT_)
                  0001133a    00000016     console_task.obj (.text:_ZNSt3__26vectorIP11ConsolePageNS_9allocatorIS2_EEEixEj)
                  00011350    00000016     I2C_monitor.obj (.text:_ZNSt3__26vectorIP6I2cMsgNS_9allocatorIS2_EEEixEj)
                  00011366    00000016     SPI_command.obj (.text:_ZNSt3__26vectorIP6SpiMsgNS_9allocatorIS2_EEEixEj)
                  0001137c    00000016     menu_page.obj (.text:_ZNSt3__26vectorIP7MenuRowNS_9allocatorIS2_EEEixEj)
                  00011392    00000016     rtsv7M4_T_le_v4SPD16_eabi.lib : strchr.c.obj (.text:strchr)
                  000113a8    00000014     I2C_monitor.obj (.text:_ZNSt3__213__vector_baseIP6I2cMsgNS_9allocatorIS2_EEE19__copy_assign_allocERKS5_)
                  000113bc    00000014     console_task.obj (.text:_ZNSt3__214__split_bufferIP11ConsolePageRNS_9allocatorIS2_EEE17__destruct_at_endEPS2_)
                  000113d0    00000014     I2C_task.obj (.text:_ZNSt3__214__split_bufferIP6I2cMsgRNS_9allocatorIS2_EEE17__destruct_at_endEPS2_)
                  000113e4    00000014     SPI_command.obj (.text:_ZNSt3__214__split_bufferIP6SpiMsgRNS_9allocatorIS2_EEE17__destruct_at_endEPS2_)
                  000113f8    00000014     menu_page.obj (.text:_ZNSt3__214__split_bufferIP7MenuRowRNS_9allocatorIS2_EEE17__destruct_at_endEPS2_)
                  0001140c    00000014     console_task.obj (.text:_ZNSt3__216allocator_traitsINS_9allocatorIP11ConsolePageEEE10deallocateERS4_PS3_j)
                  00011420    00000014     console_task.obj (.text:_ZNSt3__216allocator_traitsINS_9allocatorIP11ConsolePageEEE7destroyIS3_EEvRS4_PT_)
                  00011434    00000014     console_task.obj (.text:_ZNSt3__216allocator_traitsINS_9allocatorIP11ConsolePageEEE9__destroyIS3_EEvNS_17integral_constantIbLb1EEERS4_PT_)
                  00011448    00000014     I2C_monitor.obj (.text:_ZNSt3__216allocator_traitsINS_9allocatorIP6I2cMsgEEE10deallocateERS4_PS3_j)
                  0001145c    00000014     I2C_monitor.obj (.text:_ZNSt3__216allocator_traitsINS_9allocatorIP6I2cMsgEEE7destroyIS3_EEvRS4_PT_)
                  00011470    00000014     I2C_monitor.obj (.text:_ZNSt3__216allocator_traitsINS_9allocatorIP6I2cMsgEEE9__destroyIS3_EEvNS_17integral_constantIbLb1EEERS4_PT_)
                  00011484    00000014     SPI_command.obj (.text:_ZNSt3__216allocator_traitsINS_9allocatorIP6SpiMsgEEE10deallocateERS4_PS3_j)
                  00011498    00000014     SPI_command.obj (.text:_ZNSt3__216allocator_traitsINS_9allocatorIP6SpiMsgEEE7destroyIS3_EEvRS4_PT_)
                  000114ac    00000014     SPI_command.obj (.text:_ZNSt3__216allocator_traitsINS_9allocatorIP6SpiMsgEEE9__destroyIS3_EEvNS_17integral_constantIbLb1EEERS4_PT_)
                  000114c0    00000014     menu_page.obj (.text:_ZNSt3__216allocator_traitsINS_9allocatorIP7MenuRowEEE10deallocateERS4_PS3_j)
                  000114d4    00000014     menu_page.obj (.text:_ZNSt3__216allocator_traitsINS_9allocatorIP7MenuRowEEE7destroyIS3_EEvRS4_PT_)
                  000114e8    00000014     menu_page.obj (.text:_ZNSt3__216allocator_traitsINS_9allocatorIP7MenuRowEEE9__destroyIS3_EEvNS_17integral_constantIbLb1EEERS4_PT_)
                  000114fc    00000014     console_task.obj (.text:_ZNSt3__222__compressed_pair_elemIRNS_9allocatorIP11ConsolePageEELi1ELb0EEC1IS5_vEEOT_)
                  00011510    00000014     I2C_task.obj (.text:_ZNSt3__222__compressed_pair_elemIRNS_9allocatorIP6I2cMsgEELi1ELb0EEC1IS5_vEEOT_)
                  00011524    00000014     SPI_command.obj (.text:_ZNSt3__222__compressed_pair_elemIRNS_9allocatorIP6SpiMsgEELi1ELb0EEC1IS5_vEEOT_)
                  00011538    00000014     menu_page.obj (.text:_ZNSt3__222__compressed_pair_elemIRNS_9allocatorIP7MenuRowEELi1ELb0EEC1IS5_vEEOT_)
                  0001154c    00000014     I2C_monitor.obj (.text:_ZNSt3__23maxIjEERKT_S3_S3_)
                  00011560    00000014     I2C_monitor.obj (.text:_ZNSt3__23minIjEERKT_S3_S3_)
                  00011574    00000014     I2C_monitor.obj (.text:_ZNSt3__27advanceIPP6I2cMsgEEvRT_NS_15iterator_traitsIS4_E15difference_typeE)
                  00011588    00000014     I2C_monitor.obj (.text:_ZNSt3__28distanceIPP6I2cMsgEENS_15iterator_traitsIT_E15difference_typeES5_S5_)
                  0001159c    00000014     rtsv7M4_T_le_v4SPD16_eabi.lib : strcpy.c.obj (.text:strcpy)
                  000115b0    00000014                                   : strlen.c.obj (.text:strlen)
                  000115c4    00000012     console_task.obj (.text:_ZNSt3__216allocator_traitsINS_9allocatorIP11ConsolePageEEE8allocateERS4_j)
                  000115d6    00000012     I2C_monitor.obj (.text:_ZNSt3__216allocator_traitsINS_9allocatorIP6I2cMsgEEE8allocateERS4_j)
                  000115e8    00000012     SPI_command.obj (.text:_ZNSt3__216allocator_traitsINS_9allocatorIP6SpiMsgEEE8allocateERS4_j)
                  000115fa    00000012     menu_page.obj (.text:_ZNSt3__216allocator_traitsINS_9allocatorIP7MenuRowEEE8allocateERS4_j)
                  0001160c    00000012     rtsv7M4_T_le_v4SPD16_eabi.lib : wcslen.c.obj (.text:wcslen)
                  0001161e    00000010     console_task.obj (.text:_ZNKSt3__26vectorIP11ConsolePageNS_9allocatorIS2_EEE31__annotate_contiguous_containerEPKvS7_S7_S7_)
                  0001162e    00000010     I2C_monitor.obj (.text:_ZNKSt3__26vectorIP6I2cMsgNS_9allocatorIS2_EEE31__annotate_contiguous_containerEPKvS7_S7_S7_)
                  0001163e    00000010     SPI_command.obj (.text:_ZNKSt3__26vectorIP6SpiMsgNS_9allocatorIS2_EEE31__annotate_contiguous_containerEPKvS7_S7_S7_)
                  0001164e    00000010     menu_page.obj (.text:_ZNKSt3__26vectorIP7MenuRowNS_9allocatorIS2_EEE31__annotate_contiguous_containerEPKvS7_S7_S7_)
                  0001165e    00000010     I2C_monitor.obj (.text:_ZNSt3__213__vector_baseIP6I2cMsgNS_9allocatorIS2_EEE19__copy_assign_allocERKS5_NS_17integral_constantIbLb0EEE)
                  0001166e    00000010     I2C_monitor.obj (.text:_ZNSt3__213__vector_baseIP6I2cMsgNS_9allocatorIS2_EEE5clearEv)
                  0001167e    00000010     console_task.obj (.text:_ZNSt3__214__split_bufferIP11ConsolePageRNS_9allocatorIS2_EEE5clearEv)
                  0001168e    00000010     I2C_task.obj (.text:_ZNSt3__214__split_bufferIP6I2cMsgRNS_9allocatorIS2_EEE5clearEv)
                  0001169e    00000010     SPI_command.obj (.text:_ZNSt3__214__split_bufferIP6SpiMsgRNS_9allocatorIS2_EEE5clearEv)
                  000116ae    00000010     menu_page.obj (.text:_ZNSt3__214__split_bufferIP7MenuRowRNS_9allocatorIS2_EEE5clearEv)
                  000116be    00000010     console_task.obj (.text:_ZNSt3__216allocator_traitsINS_9allocatorIP11ConsolePageEEE10__max_sizeENS_17integral_constantIbLb1EEERKS4_)
                  000116ce    00000010     console_task.obj (.text:_ZNSt3__216allocator_traitsINS_9allocatorIP11ConsolePageEEE8max_sizeERKS4_)
                  000116de    00000010     I2C_monitor.obj (.text:_ZNSt3__216allocator_traitsINS_9allocatorIP6I2cMsgEEE10__max_sizeENS_17integral_constantIbLb1EEERKS4_)
                  000116ee    00000010     I2C_monitor.obj (.text:_ZNSt3__216allocator_traitsINS_9allocatorIP6I2cMsgEEE8max_sizeERKS4_)
                  000116fe    00000010     SPI_command.obj (.text:_ZNSt3__216allocator_traitsINS_9allocatorIP6SpiMsgEEE10__max_sizeENS_17integral_constantIbLb1EEERKS4_)
                  0001170e    00000010     SPI_command.obj (.text:_ZNSt3__216allocator_traitsINS_9allocatorIP6SpiMsgEEE8max_sizeERKS4_)
                  0001171e    00000010     menu_page.obj (.text:_ZNSt3__216allocator_traitsINS_9allocatorIP7MenuRowEEE10__max_sizeENS_17integral_constantIbLb1EEERKS4_)
                  0001172e    00000010     menu_page.obj (.text:_ZNSt3__216allocator_traitsINS_9allocatorIP7MenuRowEEE8max_sizeERKS4_)
                  0001173e    00000010     console_task.obj (.text:_ZNSt3__222__compressed_pair_elemIPP11ConsolePageLi0ELb0EEC2IDnvEEOT_)
                  0001174e    00000010     I2C_monitor.obj (.text:_ZNSt3__222__compressed_pair_elemIPP6I2cMsgLi0ELb0EEC2IDnvEEOT_)
                  0001175e    00000010     SPI_command.obj (.text:_ZNSt3__222__compressed_pair_elemIPP6SpiMsgLi0ELb0EEC2IDnvEEOT_)
                  0001176e    00000010     menu_page.obj (.text:_ZNSt3__222__compressed_pair_elemIPP7MenuRowLi0ELb0EEC2IDnvEEOT_)
                  0001177e    00000010     console_task.obj (.text:_ZNSt3__222__compressed_pair_elemIRNS_9allocatorIP11ConsolePageEELi1ELb0EEC2IS5_vEEOT_)
                  0001178e    00000010     I2C_task.obj (.text:_ZNSt3__222__compressed_pair_elemIRNS_9allocatorIP6I2cMsgEELi1ELb0EEC2IS5_vEEOT_)
                  0001179e    00000010     SPI_command.obj (.text:_ZNSt3__222__compressed_pair_elemIRNS_9allocatorIP6SpiMsgEELi1ELb0EEC2IS5_vEEOT_)
                  000117ae    00000010     menu_page.obj (.text:_ZNSt3__222__compressed_pair_elemIRNS_9allocatorIP7MenuRowEELi1ELb0EEC2IS5_vEEOT_)
                  000117be    00000010     console_task.obj (.text:_ZNSt3__26vectorIP11ConsolePageNS_9allocatorIS2_EEE24__RAII_IncreaseAnnotatorC1ERKS5_j)
                  000117ce    00000010     I2C_monitor.obj (.text:_ZNSt3__26vectorIP6I2cMsgNS_9allocatorIS2_EEE24__RAII_IncreaseAnnotatorC1ERKS5_j)
                  000117de    00000010     SPI_command.obj (.text:_ZNSt3__26vectorIP6SpiMsgNS_9allocatorIS2_EEE24__RAII_IncreaseAnnotatorC1ERKS5_j)
                  000117ee    00000010     menu_page.obj (.text:_ZNSt3__26vectorIP7MenuRowNS_9allocatorIS2_EEE24__RAII_IncreaseAnnotatorC1ERKS5_j)
                  000117fe    00000010     console_task.obj (.text:_ZNSt3__29allocatorIP11ConsolePageE10deallocateEPS2_j)
                  0001180e    00000010     I2C_monitor.obj (.text:_ZNSt3__29allocatorIP6I2cMsgE10deallocateEPS2_j)
                  0001181e    00000010     SPI_command.obj (.text:_ZNSt3__29allocatorIP6SpiMsgE10deallocateEPS2_j)
                  0001182e    00000010     menu_page.obj (.text:_ZNSt3__29allocatorIP7MenuRowE10deallocateEPS2_j)
                  0001183e    0000000e     rtsv7M4_T_le_v4SPD16_eabi.lib : typeinfo.c.obj (.text:_ZN10__cxxabiv117__class_type_infoD0Ev)
                  0001184c    0000000e                                   : typeinfo.c.obj (.text:_ZN10__cxxabiv120__si_class_type_infoD0Ev)
                  0001185a    0000000e     console_task.obj (.text:_ZNKSt3__213__vector_baseIP11ConsolePageNS_9allocatorIS2_EEE7__allocEv)
                  00011868    0000000e     console_task.obj (.text:_ZNKSt3__213__vector_baseIP11ConsolePageNS_9allocatorIS2_EEE9__end_capEv)
                  00011876    0000000e     I2C_monitor.obj (.text:_ZNKSt3__213__vector_baseIP6I2cMsgNS_9allocatorIS2_EEE7__allocEv)
                  00011884    0000000e     I2C_monitor.obj (.text:_ZNKSt3__213__vector_baseIP6I2cMsgNS_9allocatorIS2_EEE9__end_capEv)
                  00011892    0000000e     SPI_command.obj (.text:_ZNKSt3__213__vector_baseIP6SpiMsgNS_9allocatorIS2_EEE7__allocEv)
                  000118a0    0000000e     SPI_command.obj (.text:_ZNKSt3__213__vector_baseIP6SpiMsgNS_9allocatorIS2_EEE9__end_capEv)
                  000118ae    0000000e     menu_page.obj (.text:_ZNKSt3__213__vector_baseIP7MenuRowNS_9allocatorIS2_EEE7__allocEv)
                  000118bc    0000000e     menu_page.obj (.text:_ZNKSt3__213__vector_baseIP7MenuRowNS_9allocatorIS2_EEE9__end_capEv)
                  000118ca    0000000e     console_task.obj (.text:_ZNKSt3__214__split_bufferIP11ConsolePageRNS_9allocatorIS2_EEE9__end_capEv)
                  000118d8    0000000e     I2C_task.obj (.text:_ZNKSt3__214__split_bufferIP6I2cMsgRNS_9allocatorIS2_EEE9__end_capEv)
                  000118e6    0000000e     SPI_command.obj (.text:_ZNKSt3__214__split_bufferIP6SpiMsgRNS_9allocatorIS2_EEE9__end_capEv)
                  000118f4    0000000e     menu_page.obj (.text:_ZNKSt3__214__split_bufferIP7MenuRowRNS_9allocatorIS2_EEE9__end_capEv)
                  00011902    0000000e     console_task.obj (.text:_ZNKSt3__26vectorIP11ConsolePageNS_9allocatorIS2_EEE4dataEv)
                  00011910    0000000e     I2C_monitor.obj (.text:_ZNKSt3__26vectorIP6I2cMsgNS_9allocatorIS2_EEE4dataEv)
                  0001191e    0000000e     SPI_command.obj (.text:_ZNKSt3__26vectorIP6SpiMsgNS_9allocatorIS2_EEE4dataEv)
                  0001192c    0000000e     menu_page.obj (.text:_ZNKSt3__26vectorIP7MenuRowNS_9allocatorIS2_EEE4dataEv)
                  0001193a    0000000e     console_task.obj (.text:_ZNKSt3__29allocatorIP11ConsolePageE8max_sizeEv)
                  00011948    0000000e     I2C_monitor.obj (.text:_ZNKSt3__29allocatorIP6I2cMsgE8max_sizeEv)
                  00011956    0000000e     SPI_command.obj (.text:_ZNKSt3__29allocatorIP6SpiMsgE8max_sizeEv)
                  00011964    0000000e     menu_page.obj (.text:_ZNKSt3__29allocatorIP7MenuRowE8max_sizeEv)
                  00011972    0000000e     console_task.obj (.text:_ZNSt3__213__vector_baseIP11ConsolePageNS_9allocatorIS2_EEE7__allocEv)
                  00011980    0000000e     console_task.obj (.text:_ZNSt3__213__vector_baseIP11ConsolePageNS_9allocatorIS2_EEE9__end_capEv)
                  0001198e    0000000e     I2C_monitor.obj (.text:_ZNSt3__213__vector_baseIP6I2cMsgNS_9allocatorIS2_EEE7__allocEv)
                  0001199c    0000000e     I2C_monitor.obj (.text:_ZNSt3__213__vector_baseIP6I2cMsgNS_9allocatorIS2_EEE9__end_capEv)
                  000119aa    0000000e     SPI_command.obj (.text:_ZNSt3__213__vector_baseIP6SpiMsgNS_9allocatorIS2_EEE7__allocEv)
                  000119b8    0000000e     SPI_command.obj (.text:_ZNSt3__213__vector_baseIP6SpiMsgNS_9allocatorIS2_EEE9__end_capEv)
                  000119c6    0000000e     menu_page.obj (.text:_ZNSt3__213__vector_baseIP7MenuRowNS_9allocatorIS2_EEE7__allocEv)
                  000119d4    0000000e     menu_page.obj (.text:_ZNSt3__213__vector_baseIP7MenuRowNS_9allocatorIS2_EEE9__end_capEv)
                  000119e2    0000000e     console_task.obj (.text:_ZNSt3__214__split_bufferIP11ConsolePageRNS_9allocatorIS2_EEE7__allocEv)
                  000119f0    0000000e     console_task.obj (.text:_ZNSt3__214__split_bufferIP11ConsolePageRNS_9allocatorIS2_EEE9__end_capEv)
                  000119fe    0000000e     I2C_task.obj (.text:_ZNSt3__214__split_bufferIP6I2cMsgRNS_9allocatorIS2_EEE7__allocEv)
                  00011a0c    0000000e     I2C_task.obj (.text:_ZNSt3__214__split_bufferIP6I2cMsgRNS_9allocatorIS2_EEE9__end_capEv)
                  00011a1a    0000000e     SPI_command.obj (.text:_ZNSt3__214__split_bufferIP6SpiMsgRNS_9allocatorIS2_EEE7__allocEv)
                  00011a28    0000000e     SPI_command.obj (.text:_ZNSt3__214__split_bufferIP6SpiMsgRNS_9allocatorIS2_EEE9__end_capEv)
                  00011a36    0000000e     menu_page.obj (.text:_ZNSt3__214__split_bufferIP7MenuRowRNS_9allocatorIS2_EEE7__allocEv)
                  00011a44    0000000e     menu_page.obj (.text:_ZNSt3__214__split_bufferIP7MenuRowRNS_9allocatorIS2_EEE9__end_capEv)
                  00011a52    0000000e     console_task.obj (.text:_ZNSt3__217__compressed_pairIPP11ConsolePageRNS_9allocatorIS2_EEE6secondEv)
                  00011a60    0000000e     I2C_task.obj (.text:_ZNSt3__217__compressed_pairIPP6I2cMsgRNS_9allocatorIS2_EEE6secondEv)
                  00011a6e    0000000e     SPI_command.obj (.text:_ZNSt3__217__compressed_pairIPP6SpiMsgRNS_9allocatorIS2_EEE6secondEv)
                  00011a7c    0000000e     menu_page.obj (.text:_ZNSt3__217__compressed_pairIPP7MenuRowRNS_9allocatorIS2_EEE6secondEv)
                  00011a8a    0000000e     console_task.obj (.text:_ZNSt3__222__compressed_pair_elemINS_9allocatorIP11ConsolePageEELi1ELb1EEC1Ev)
                  00011a98    0000000e     I2C_monitor.obj (.text:_ZNSt3__222__compressed_pair_elemINS_9allocatorIP6I2cMsgEELi1ELb1EEC1Ev)
                  00011aa6    0000000e     SPI_command.obj (.text:_ZNSt3__222__compressed_pair_elemINS_9allocatorIP6SpiMsgEELi1ELb1EEC1Ev)
                  00011ab4    0000000e     menu_page.obj (.text:_ZNSt3__222__compressed_pair_elemINS_9allocatorIP7MenuRowEELi1ELb1EEC1Ev)
                  00011ac2    0000000e     console_task.obj (.text:_ZNSt3__222__compressed_pair_elemIRNS_9allocatorIP11ConsolePageEELi1ELb0EE5__getEv)
                  00011ad0    0000000e     I2C_task.obj (.text:_ZNSt3__222__compressed_pair_elemIRNS_9allocatorIP6I2cMsgEELi1ELb0EE5__getEv)
                  00011ade    0000000e     SPI_command.obj (.text:_ZNSt3__222__compressed_pair_elemIRNS_9allocatorIP6SpiMsgEELi1ELb0EE5__getEv)
                  00011aec    0000000e     menu_page.obj (.text:_ZNSt3__222__compressed_pair_elemIRNS_9allocatorIP7MenuRowEELi1ELb0EE5__getEv)
                  00011afa    0000000e     console_task.obj (.text:_ZNSt3__26vectorIP11ConsolePageNS_9allocatorIS2_EEEC1Ev)
                  00011b08    0000000e     I2C_monitor.obj (.text:_ZNSt3__26vectorIP6I2cMsgNS_9allocatorIS2_EEEC1Ev)
                  00011b16    0000000e     SPI_command.obj (.text:_ZNSt3__26vectorIP6SpiMsgNS_9allocatorIS2_EEEC1Ev)
                  00011b24    0000000e     menu_page.obj (.text:_ZNSt3__26vectorIP7MenuRowNS_9allocatorIS2_EEEC1Ev)
                  00011b32    0000000e     I2C_task.obj (.text:_ZnwjPv)
                  00011b40    0000000e     rtsv7M4_T_le_v4SPD16_eabi.lib : copy_decompress_none.c.obj (.text:decompress:none:__TI_decompress_none)
                  00011b4e    0000000c     console_task.obj (.text:_ZNKSt3__217__compressed_pairIPP11ConsolePageNS_9allocatorIS2_EEE5firstEv)
                  00011b5a    0000000c     console_task.obj (.text:_ZNKSt3__217__compressed_pairIPP11ConsolePageNS_9allocatorIS2_EEE6secondEv)
                  00011b66    0000000c     console_task.obj (.text:_ZNKSt3__217__compressed_pairIPP11ConsolePageRNS_9allocatorIS2_EEE5firstEv)
                  00011b72    0000000c     I2C_monitor.obj (.text:_ZNKSt3__217__compressed_pairIPP6I2cMsgNS_9allocatorIS2_EEE5firstEv)
                  00011b7e    0000000c     I2C_monitor.obj (.text:_ZNKSt3__217__compressed_pairIPP6I2cMsgNS_9allocatorIS2_EEE6secondEv)
                  00011b8a    0000000c     I2C_task.obj (.text:_ZNKSt3__217__compressed_pairIPP6I2cMsgRNS_9allocatorIS2_EEE5firstEv)
                  00011b96    0000000c     SPI_command.obj (.text:_ZNKSt3__217__compressed_pairIPP6SpiMsgNS_9allocatorIS2_EEE5firstEv)
                  00011ba2    0000000c     SPI_command.obj (.text:_ZNKSt3__217__compressed_pairIPP6SpiMsgNS_9allocatorIS2_EEE6secondEv)
                  00011bae    0000000c     SPI_command.obj (.text:_ZNKSt3__217__compressed_pairIPP6SpiMsgRNS_9allocatorIS2_EEE5firstEv)
                  00011bba    0000000c     menu_page.obj (.text:_ZNKSt3__217__compressed_pairIPP7MenuRowNS_9allocatorIS2_EEE5firstEv)
                  00011bc6    0000000c     menu_page.obj (.text:_ZNKSt3__217__compressed_pairIPP7MenuRowNS_9allocatorIS2_EEE6secondEv)
                  00011bd2    0000000c     menu_page.obj (.text:_ZNKSt3__217__compressed_pairIPP7MenuRowRNS_9allocatorIS2_EEE5firstEv)
                  00011bde    00000002     --HOLE-- [fill = 0]
                  00011be0    0000000c     rtsv7M4_T_le_v4SPD16_eabi.lib : vector.cpp.obj (.text:_ZNKSt3__220__vector_base_commonILb1EE20__throw_length_errorEv)
                  00011bec    0000000c     console_task.obj (.text:_ZNKSt3__222__compressed_pair_elemINS_9allocatorIP11ConsolePageEELi1ELb1EE5__getEv)
                  00011bf8    0000000c     I2C_monitor.obj (.text:_ZNKSt3__222__compressed_pair_elemINS_9allocatorIP6I2cMsgEELi1ELb1EE5__getEv)
                  00011c04    0000000c     SPI_command.obj (.text:_ZNKSt3__222__compressed_pair_elemINS_9allocatorIP6SpiMsgEELi1ELb1EE5__getEv)
                  00011c10    0000000c     menu_page.obj (.text:_ZNKSt3__222__compressed_pair_elemINS_9allocatorIP7MenuRowEELi1ELb1EE5__getEv)
                  00011c1c    0000000c     console_task.obj (.text:_ZNKSt3__222__compressed_pair_elemIPP11ConsolePageLi0ELb0EE5__getEv)
                  00011c28    0000000c     I2C_monitor.obj (.text:_ZNKSt3__222__compressed_pair_elemIPP6I2cMsgLi0ELb0EE5__getEv)
                  00011c34    0000000c     SPI_command.obj (.text:_ZNKSt3__222__compressed_pair_elemIPP6SpiMsgLi0ELb0EE5__getEv)
                  00011c40    0000000c     menu_page.obj (.text:_ZNKSt3__222__compressed_pair_elemIPP7MenuRowLi0ELb0EE5__getEv)
                  00011c4c    0000000c     console_task.obj (.text:_ZNKSt3__26vectorIP11ConsolePageNS_9allocatorIS2_EEE8capacityEv)
                  00011c58    0000000c     I2C_monitor.obj (.text:_ZNKSt3__26vectorIP6I2cMsgNS_9allocatorIS2_EEE8capacityEv)
                  00011c64    0000000c     SPI_command.obj (.text:_ZNKSt3__26vectorIP6SpiMsgNS_9allocatorIS2_EEE8capacityEv)
                  00011c70    0000000c     menu_page.obj (.text:_ZNKSt3__26vectorIP7MenuRowNS_9allocatorIS2_EEE8capacityEv)
                  00011c7c    0000000c     I2C_monitor.obj (.text:_ZNSt3__210__allocateEj)
                  00011c88    0000000c     I2C_monitor.obj (.text:_ZNSt3__213__unwrap_iterIPP6I2cMsgEET_S4_)
                  00011c94    0000000c     console_task.obj (.text:_ZNSt3__213__vector_baseIP11ConsolePageNS_9allocatorIS2_EEEC2Ev)
                  00011ca0    0000000c     I2C_monitor.obj (.text:_ZNSt3__213__vector_baseIP6I2cMsgNS_9allocatorIS2_EEEC2Ev)
                  00011cac    0000000c     SPI_command.obj (.text:_ZNSt3__213__vector_baseIP6SpiMsgNS_9allocatorIS2_EEEC2Ev)
                  00011cb8    0000000c     menu_page.obj (.text:_ZNSt3__213__vector_baseIP7MenuRowNS_9allocatorIS2_EEEC2Ev)
                  00011cc4    0000000c     console_task.obj (.text:_ZNSt3__216__to_raw_pointerIP11ConsolePageEEPT_S4_)
                  00011cd0    0000000c     I2C_monitor.obj (.text:_ZNSt3__216__to_raw_pointerIP6I2cMsgEEPT_S4_)
                  00011cdc    0000000c     SPI_command.obj (.text:_ZNSt3__216__to_raw_pointerIP6SpiMsgEEPT_S4_)
                  00011ce8    0000000c     menu_page.obj (.text:_ZNSt3__216__to_raw_pointerIP7MenuRowEEPT_S4_)
                  00011cf4    0000000c     console_task.obj (.text:_ZNSt3__217__compressed_pairIPP11ConsolePageNS_9allocatorIS2_EEE5firstEv)
                  00011d00    0000000c     console_task.obj (.text:_ZNSt3__217__compressed_pairIPP11ConsolePageNS_9allocatorIS2_EEE6secondEv)
                  00011d0c    0000000c     console_task.obj (.text:_ZNSt3__217__compressed_pairIPP11ConsolePageRNS_9allocatorIS2_EEE5firstEv)
                  00011d18    0000000c     I2C_monitor.obj (.text:_ZNSt3__217__compressed_pairIPP6I2cMsgNS_9allocatorIS2_EEE5firstEv)
                  00011d24    0000000c     I2C_monitor.obj (.text:_ZNSt3__217__compressed_pairIPP6I2cMsgNS_9allocatorIS2_EEE6secondEv)
                  00011d30    0000000c     I2C_task.obj (.text:_ZNSt3__217__compressed_pairIPP6I2cMsgRNS_9allocatorIS2_EEE5firstEv)
                  00011d3c    0000000c     SPI_command.obj (.text:_ZNSt3__217__compressed_pairIPP6SpiMsgNS_9allocatorIS2_EEE5firstEv)
                  00011d48    0000000c     SPI_command.obj (.text:_ZNSt3__217__compressed_pairIPP6SpiMsgNS_9allocatorIS2_EEE6secondEv)
                  00011d54    0000000c     SPI_command.obj (.text:_ZNSt3__217__compressed_pairIPP6SpiMsgRNS_9allocatorIS2_EEE5firstEv)
                  00011d60    0000000c     menu_page.obj (.text:_ZNSt3__217__compressed_pairIPP7MenuRowNS_9allocatorIS2_EEE5firstEv)
                  00011d6c    0000000c     menu_page.obj (.text:_ZNSt3__217__compressed_pairIPP7MenuRowNS_9allocatorIS2_EEE6secondEv)
                  00011d78    0000000c     menu_page.obj (.text:_ZNSt3__217__compressed_pairIPP7MenuRowRNS_9allocatorIS2_EEE5firstEv)
                  00011d84    0000000c     I2C_monitor.obj (.text:_ZNSt3__219__libcpp_deallocateEPv)
                  00011d90    0000000c     console_task.obj (.text:_ZNSt3__222__compressed_pair_elemINS_9allocatorIP11ConsolePageEELi1ELb1EE5__getEv)
                  00011d9c    0000000c     console_task.obj (.text:_ZNSt3__222__compressed_pair_elemINS_9allocatorIP11ConsolePageEELi1ELb1EEC2Ev)
                  00011da8    0000000c     I2C_monitor.obj (.text:_ZNSt3__222__compressed_pair_elemINS_9allocatorIP6I2cMsgEELi1ELb1EE5__getEv)
                  00011db4    0000000c     I2C_monitor.obj (.text:_ZNSt3__222__compressed_pair_elemINS_9allocatorIP6I2cMsgEELi1ELb1EEC2Ev)
                  00011dc0    0000000c     SPI_command.obj (.text:_ZNSt3__222__compressed_pair_elemINS_9allocatorIP6SpiMsgEELi1ELb1EE5__getEv)
                  00011dcc    0000000c     SPI_command.obj (.text:_ZNSt3__222__compressed_pair_elemINS_9allocatorIP6SpiMsgEELi1ELb1EEC2Ev)
                  00011dd8    0000000c     menu_page.obj (.text:_ZNSt3__222__compressed_pair_elemINS_9allocatorIP7MenuRowEELi1ELb1EE5__getEv)
                  00011de4    0000000c     menu_page.obj (.text:_ZNSt3__222__compressed_pair_elemINS_9allocatorIP7MenuRowEELi1ELb1EEC2Ev)
                  00011df0    0000000c     console_task.obj (.text:_ZNSt3__222__compressed_pair_elemIPP11ConsolePageLi0ELb0EE5__getEv)
                  00011dfc    0000000c     I2C_monitor.obj (.text:_ZNSt3__222__compressed_pair_elemIPP6I2cMsgLi0ELb0EE5__getEv)
                  00011e08    0000000c     SPI_command.obj (.text:_ZNSt3__222__compressed_pair_elemIPP6SpiMsgLi0ELb0EE5__getEv)
                  00011e14    0000000c     menu_page.obj (.text:_ZNSt3__222__compressed_pair_elemIPP7MenuRowLi0ELb0EE5__getEv)
                  00011e20    0000000c     I2C_task.obj (.text:_ZNSt3__24moveIRP6I2cMsgEEONS_16remove_referenceIT_E4typeEOS5_)
                  00011e2c    0000000c     SPI_command.obj (.text:_ZNSt3__24moveIRP6SpiMsgEEONS_16remove_referenceIT_E4typeEOS5_)
                  00011e38    0000000c     console_task.obj (.text:_ZNSt3__24moveIRPP11ConsolePageEEONS_16remove_referenceIT_E4typeEOS6_)
                  00011e44    0000000c     I2C_task.obj (.text:_ZNSt3__24moveIRPP6I2cMsgEEONS_16remove_referenceIT_E4typeEOS6_)
                  00011e50    0000000c     SPI_command.obj (.text:_ZNSt3__24moveIRPP6SpiMsgEEONS_16remove_referenceIT_E4typeEOS6_)
                  00011e5c    0000000c     menu_page.obj (.text:_ZNSt3__24moveIRPP7MenuRowEEONS_16remove_referenceIT_E4typeEOS6_)
                  00011e68    0000000c     I2C_monitor.obj (.text:_ZNSt3__26vectorIP6I2cMsgNS_9allocatorIS2_EEE27__invalidate_iterators_pastEPS2_)
                  00011e74    0000000c     I2C_monitor.obj (.text:_ZNSt3__27forwardIDnEEOT_RNS_16remove_referenceIS1_E4typeE)
                  00011e80    0000000c     I2C_task.obj (.text:_ZNSt3__27forwardIP6I2cMsgEEOT_RNS_16remove_referenceIS3_E4typeE)
                  00011e8c    0000000c     SPI_command.obj (.text:_ZNSt3__27forwardIP6SpiMsgEEOT_RNS_16remove_referenceIS3_E4typeE)
                  00011e98    0000000c     console_task.obj (.text:_ZNSt3__27forwardIRKP11ConsolePageEEOT_RNS_16remove_referenceIS5_E4typeE)
                  00011ea4    0000000c     menu_page.obj (.text:_ZNSt3__27forwardIRKP7MenuRowEEOT_RNS_16remove_referenceIS5_E4typeE)
                  00011eb0    0000000c     console_task.obj (.text:_ZNSt3__27forwardIRNS_9allocatorIP11ConsolePageEEEEOT_RNS_16remove_referenceIS6_E4typeE)
                  00011ebc    0000000c     I2C_task.obj (.text:_ZNSt3__27forwardIRNS_9allocatorIP6I2cMsgEEEEOT_RNS_16remove_referenceIS6_E4typeE)
                  00011ec8    0000000c     SPI_command.obj (.text:_ZNSt3__27forwardIRNS_9allocatorIP6SpiMsgEEEEOT_RNS_16remove_referenceIS6_E4typeE)
                  00011ed4    0000000c     menu_page.obj (.text:_ZNSt3__27forwardIRNS_9allocatorIP7MenuRowEEEEOT_RNS_16remove_referenceIS6_E4typeE)
                  00011ee0    0000000c     console_task.obj (.text:_ZNSt3__29allocatorIP11ConsolePageE7destroyEPS2_)
                  00011eec    0000000c     console_task.obj (.text:_ZNSt3__29allocatorIP11ConsolePageEC1Ev)
                  00011ef8    0000000c     console_task.obj (.text:_ZNSt3__29allocatorIP11ConsolePageEC2Ev)
                  00011f04    0000000c     I2C_monitor.obj (.text:_ZNSt3__29allocatorIP6I2cMsgE7destroyEPS2_)
                  00011f10    0000000c     I2C_monitor.obj (.text:_ZNSt3__29allocatorIP6I2cMsgEC1Ev)
                  00011f1c    0000000c     I2C_monitor.obj (.text:_ZNSt3__29allocatorIP6I2cMsgEC2Ev)
                  00011f28    0000000c     SPI_command.obj (.text:_ZNSt3__29allocatorIP6SpiMsgE7destroyEPS2_)
                  00011f34    0000000c     SPI_command.obj (.text:_ZNSt3__29allocatorIP6SpiMsgEC1Ev)
                  00011f40    0000000c     SPI_command.obj (.text:_ZNSt3__29allocatorIP6SpiMsgEC2Ev)
                  00011f4c    0000000c     menu_page.obj (.text:_ZNSt3__29allocatorIP7MenuRowE7destroyEPS2_)
                  00011f58    0000000c     menu_page.obj (.text:_ZNSt3__29allocatorIP7MenuRowEC1Ev)
                  00011f64    0000000c     menu_page.obj (.text:_ZNSt3__29allocatorIP7MenuRowEC2Ev)
                  00011f70    0000000c     rtsv7M4_T_le_v4SPD16_eabi.lib : copy_zero_init.c.obj (.text:decompress:ZI:__TI_zero_init)
                  00011f7c    0000000c     tm4c123gh6pm_startup_ccs.obj (.text)
                  00011f88    0000000a     I2C_monitor.obj (.text:_ZNSt3__220__throw_length_errorEPKc)
                  00011f92    0000000a     console_task.obj (.text:_ZNSt3__26vectorIP11ConsolePageNS_9allocatorIS2_EEE24__RAII_IncreaseAnnotator6__doneEv)
                  00011f9c    0000000a     console_task.obj (.text:_ZNSt3__26vectorIP11ConsolePageNS_9allocatorIS2_EEE26__invalidate_all_iteratorsEv)
                  00011fa6    0000000a     I2C_monitor.obj (.text:_ZNSt3__26vectorIP6I2cMsgNS_9allocatorIS2_EEE24__RAII_IncreaseAnnotator6__doneEv)
                  00011fb0    0000000a     I2C_monitor.obj (.text:_ZNSt3__26vectorIP6I2cMsgNS_9allocatorIS2_EEE26__invalidate_all_iteratorsEv)
                  00011fba    0000000a     SPI_command.obj (.text:_ZNSt3__26vectorIP6SpiMsgNS_9allocatorIS2_EEE24__RAII_IncreaseAnnotator6__doneEv)
                  00011fc4    0000000a     SPI_command.obj (.text:_ZNSt3__26vectorIP6SpiMsgNS_9allocatorIS2_EEE26__invalidate_all_iteratorsEv)
                  00011fce    0000000a     menu_page.obj (.text:_ZNSt3__26vectorIP7MenuRowNS_9allocatorIS2_EEE24__RAII_IncreaseAnnotator6__doneEv)
                  00011fd8    0000000a     menu_page.obj (.text:_ZNSt3__26vectorIP7MenuRowNS_9allocatorIS2_EEE26__invalidate_all_iteratorsEv)
                  00011fe2    0000000a     rtsv7M4_T_le_v4SPD16_eabi.lib : sprintf.c.obj (.text:_outc)
                  00011fec    00000008                                   : errno.c.obj (.text:__aeabi_errno_addr)
                  00011ff4    00000008                                   : memory.c.obj (.text:malloc)
                  00011ffc    00000006     sysctl.obj (.text:SysCtlDelay)
                  00012002    00000006     rtsv7M4_T_le_v4SPD16_eabi.lib : pure_virt.c.obj (.text:__cxa_pure_virtual)
                  00012008    00000004                                   : typeinfo.c.obj (.text:_ZN10__cxxabiv117__class_type_infoD1Ev)
                  0001200c    00000004                                   : typeinfo.c.obj (.text:_ZN10__cxxabiv120__si_class_type_infoD1Ev)
                  00012010    00000004                                   : new.cpp.obj (.text:_ZdlPvj)
                  00012014    00000004                                   : error.c.obj (.text:__abort_execution)
                  00012018    00000004                                   : pre_init.c.obj (.text:_system_pre_init)
                  0001201c    00000004                                   : exit.c.obj (.text:abort:abort)

.const     0    00012020    00000ce4     
                  00012020    00000120     sysctl.obj (.const:g_pppui32XTALtoVCO)
                  00012140    00000101     rtsv7M4_T_le_v4SPD16_eabi.lib : ctype.c.obj (.const:.string:_ctypes_)
                  00012241    00000003     --HOLE-- [fill = 0]
                  00012244    000000c0     gpio.obj (.const:g_ppui32GPIOIntMapBlizzard)
                  00012304    000000c0     gpio.obj (.const:g_ppui32GPIOIntMapSnowflake)
                  000123c4    0000009c     interrupt.obj (.const:g_pui32Regs)
                  00012460    00000090     gpio.obj (.const:g_pui32GPIOBaseAddrs)
                  000124f0    0000006c     sysctl.obj (.const:g_pui32Xtals)
                  0001255c    00000060     timer.obj (.const:g_ppui32TimerIntMap)
                  000125bc    00000050     i2c.obj (.const:g_ppui32I2CIntMapSnowflake)
                  0001260c    00000044     console_task.obj (.const:.string:_ZZNSt3__29allocatorIP11ConsolePageE8allocateEjPKvEs)
                  00012650    00000044     I2C_monitor.obj (.const:.string:_ZZNSt3__29allocatorIP6I2cMsgE8allocateEjPKvEs)
                  00012694    00000044     SPI_command.obj (.const:.string:_ZZNSt3__29allocatorIP6SpiMsgE8allocateEjPKvEs)
                  000126d8    00000044     menu_page.obj (.const:.string:_ZZNSt3__29allocatorIP7MenuRowE8allocateEjPKvEs)
                  0001271c    00000040     timer.obj (.const:g_ppui32TimerIntMapSnowflake)
                  0001275c    00000040     uart.obj (.const:g_ppui32UARTIntMap)
                  0001279c    00000040     uart.obj (.const:g_ppui32UARTIntMapSnowflake)
                  000127dc    00000030     i2c.obj (.const:g_ppui32I2CIntMap)
                  0001280c    00000030     sysctl.obj (.const:g_sXTALtoMEMTIM)
                  0001283c    00000025     rtsv7M4_T_le_v4SPD16_eabi.lib : typeinfo.c.obj (.const:.typeinfo:_ZTSN10__cxxabiv120__si_class_type_infoE)
                  00012861    00000003     --HOLE-- [fill = 0]
                  00012864    00000024     no_booster_board.obj (.const:.string)
                  00012888    00000022     GPOs.obj (.const:.string)
                  000128aa    00000022     rtsv7M4_T_le_v4SPD16_eabi.lib : typeinfo.c.obj (.const:.typeinfo:_ZTSN10__cxxabiv117__class_type_infoE)
                  000128cc    00000020     ssi.obj (.const:g_ppui32SSIIntMap)
                  000128ec    00000020     ssi.obj (.const:g_ppui32SSIIntMapSnowflake)
                  0001290c    00000020     interrupt.obj (.const:g_pui32Priority)
                  0001292c    0000001c     SPI_command.obj (.const:_ZTV10SpiCmdTask)
                  00012948    0000001c     console_task.obj (.const:_ZTV11ConsolePage)
                  00012964    0000001c     console_task.obj (.const:_ZTV11ConsoleTask)
                  00012980    0000001c     error_logger.obj (.const:_ZTV11ErrorLogger)
                  0001299c    0000001c     menu_page.obj (.const:_ZTV11MenuOptions)
                  000129b8    0000001c     task_manager.obj (.const:_ZTV11TaskManager)
                  000129d4    0000001c     I2C_monitor.obj (.const:_ZTV14I2cMonitorTask)
                  000129f0    0000001c     I2C_sniffer.obj (.const:_ZTV14I2cSnifferTask)
                  00012a0c    0000001c     I2C_scripter.obj (.const:_ZTV15I2cScripterTask)
                  00012a28    0000001c     I2C_task.obj (.const:_ZTV7I2cTask)
                  00012a44    0000001c     PWM_page.obj (.const:_ZTV7PWMpage)
                  00012a60    0000001c     test_task.obj (.const:_ZTV8TestTask)
                  00012a7c    0000001c     io_control_page.obj (.const:_ZTV9IoCtlPage)
                  00012a98    00000018     I2C_monitor.obj (.const:.string)
                  00012ab0    00000014     interrupt.obj (.const:g_pui32Dii16Regs)
                  00012ac4    00000014     interrupt.obj (.const:g_pui32EnRegs)
                  00012ad8    00000014     interrupt.obj (.const:g_pui32PendRegs)
                  00012aec    00000014     interrupt.obj (.const:g_pui32UnpendRegs)
                  00012b00    00000012     uartstdio.obj (.const:.string)
                  00012b12    00000012     I2C_scripter.obj (.const:.typeinfo:_ZTS15I2cScripterTask)
                  00012b24    00000011     I2C_monitor.obj (.const:.typeinfo:_ZTS14I2cMonitorTask)
                  00012b35    00000011     I2C_sniffer.obj (.const:.typeinfo:_ZTS14I2cSnifferTask)
                  00012b46    00000002     --HOLE-- [fill = 0]
                  00012b48    00000010     rtsv7M4_T_le_v4SPD16_eabi.lib : typeinfo.c.obj (.const:_ZTVN10__cxxabiv117__class_type_infoE)
                  00012b58    00000010                                   : typeinfo.c.obj (.const:_ZTVN10__cxxabiv120__si_class_type_infoE)
                  00012b68    0000000e     ADC_task.obj (.const:.string)
                  00012b76    00000002     --HOLE-- [fill = 0]
                  00012b78    0000000e     GPIs.obj (.const:.string)
                  00012b86    0000000e     I2C_monitor.obj (.const:.typeinfo:_ZTS11ConsolePage)
                  00012b94    0000000e     console_task.obj (.const:.typeinfo:_ZTS11ConsoleTask)
                  00012ba2    0000000e     error_logger.obj (.const:.typeinfo:_ZTS11ErrorLogger)
                  00012bb0    0000000e     menu_page.obj (.const:.typeinfo:_ZTS11MenuOptions)
                  00012bbe    0000000e     task_manager.obj (.const:.typeinfo:_ZTS11TaskManager)
                  00012bcc    0000000d     SPI_command.obj (.const:.typeinfo:_ZTS10SpiCmdTask)
                  00012bd9    0000000d     rtsv7M4_T_le_v4SPD16_eabi.lib : stdlib_typeinfo.cpp.obj (.const:.typeinfo:_ZTSSt9type_info)
                  00012be6    00000002     --HOLE-- [fill = 0]
                  00012be8    0000000c     SPI_command.obj (.const:.typeinfo:_ZTI10SpiCmdTask)
                  00012bf4    0000000c     console_task.obj (.const:.typeinfo:_ZTI11ConsoleTask)
                  00012c00    0000000c     error_logger.obj (.const:.typeinfo:_ZTI11ErrorLogger)
                  00012c0c    0000000c     menu_page.obj (.const:.typeinfo:_ZTI11MenuOptions)
                  00012c18    0000000c     task_manager.obj (.const:.typeinfo:_ZTI11TaskManager)
                  00012c24    0000000c     I2C_monitor.obj (.const:.typeinfo:_ZTI14I2cMonitorTask)
                  00012c30    0000000c     I2C_sniffer.obj (.const:.typeinfo:_ZTI14I2cSnifferTask)
                  00012c3c    0000000c     I2C_scripter.obj (.const:.typeinfo:_ZTI15I2cScripterTask)
                  00012c48    0000000c     I2C_task.obj (.const:.typeinfo:_ZTI7I2cTask)
                  00012c54    0000000c     PWM_page.obj (.const:.typeinfo:_ZTI7PWMpage)
                  00012c60    0000000c     test_task.obj (.const:.typeinfo:_ZTI8TestTask)
                  00012c6c    0000000c     io_control_page.obj (.const:.typeinfo:_ZTI9IoCtlPage)
                  00012c78    0000000c     rtsv7M4_T_le_v4SPD16_eabi.lib : typeinfo.c.obj (.const:.typeinfo:_ZTIN10__cxxabiv117__class_type_infoE)
                  00012c84    0000000c                                   : typeinfo.c.obj (.const:.typeinfo:_ZTIN10__cxxabiv120__si_class_type_infoE)
                  00012c90    0000000c     uartstdio.obj (.const:g_ui32UARTBase)
                  00012c9c    0000000c     uartstdio.obj (.const:g_ui32UARTPeriph)
                  00012ca8    0000000b     io_control_page.obj (.const:.typeinfo:_ZTS9IoCtlPage)
                  00012cb3    0000000a     test_task.obj (.const:.typeinfo:_ZTS8TestTask)
                  00012cbd    00000009     I2C_task.obj (.const:.typeinfo:_ZTS7I2cTask)
                  00012cc6    00000009     PWM_page.obj (.const:.typeinfo:_ZTS7PWMpage)
                  00012ccf    00000001     --HOLE-- [fill = 0]
                  00012cd0    00000008     I2C_monitor.obj (.const:.typeinfo:_ZTI11ConsolePage)
                  00012cd8    00000008     rtsv7M4_T_le_v4SPD16_eabi.lib : stdlib_typeinfo.cpp.obj (.const:.typeinfo:_ZTISt9type_info)
                  00012ce0    00000008     sysctl.obj (.const:g_pui32VCOFrequencies)
                  00012ce8    00000008     port.obj (.const)
                  00012cf0    00000007     rtsv7M4_T_le_v4SPD16_eabi.lib : vector.cpp.obj (.const:.string:_ZZNKSt3__220__vector_base_commonILb1EE20__throw_length_errorEvEs)
                  00012cf7    00000001     --HOLE-- [fill = 0]
                  00012cf8    00000006     PWM_page.obj (.const:.string)
                  00012cfe    00000002     --HOLE-- [fill = 0]
                  00012d00    00000004     uartstdio.obj (.const)

.cinit     0    00012d08    00000180     
                  00012d08    0000014b     (.cinit..data.load) [load image, compression = lzss]
                  00012e53    00000001     --HOLE-- [fill = 0]
                  00012e54    0000000c     (__TI_handler_table)
                  00012e60    00000008     (.cinit..bss.load) [load image, compression = zero_init]
                  00012e68    00000008     (.cinit..vtable.load) [load image, compression = zero_init]
                  00012e70    00000018     (__TI_cinit_table)

.init_array 
*          0    00000000    00000000     UNINITIALIZED

.vtable    0    20000000    0000026c     UNINITIALIZED
                  20000000    0000026c     interrupt.obj (.vtable)

.bss       0    2000026c    000043a4     UNINITIALIZED
                  2000026c    00003c00     (.common:ucHeap)
                  20003e6c    000004b0     error_logger.obj (.bss:errors)
                  2000431c    00000120     rtsv7M4_T_le_v4SPD16_eabi.lib : trgmsg.c.obj (.bss:_CIOBUF_)
                  2000443c    000000a0     (.common:__TI_tmpnams)
                  200044dc    00000064     tasks.obj (.bss:pxReadyTasksLists)
                  20004540    00000040     (.common:xQueueRegistry)
                  20004580    00000014     tasks.obj (.bss:xDelayedTaskList1)
                  20004594    00000014     tasks.obj (.bss:xDelayedTaskList2)
                  200045a8    00000014     tasks.obj (.bss:xPendingReadyList)
                  200045bc    00000014     tasks.obj (.bss:xSuspendedTaskList)
                  200045d0    00000014     tasks.obj (.bss:xTasksWaitingTermination)
                  200045e4    0000000c     (.common:bin_string)
                  200045f0    00000008     tasks.obj (.bss)
                  200045f8    00000008     heap_4.obj (.bss:xStart)
                  20004600    00000008     (.common:parmbuf)
                  20004608    00000004     console_uart.obj (.bss)
                  2000460c    00000004     adc.obj (.bss:g_pui8OversampleFactor)

.stack     0    20004610    00000800     UNINITIALIZED
                  20004610    00000004     rtsv7M4_T_le_v4SPD16_eabi.lib : boot_cortex_m.c.obj (.stack)
                  20004614    000007fc     --HOLE--

.data      0    20004e10    000003b8     UNINITIALIZED
                  20004e10    000000f0     rtsv7M4_T_le_v4SPD16_eabi.lib : defs.c.obj (.data:_ftable)
                  20004f00    00000078                                   : host_device.c.obj (.data:_device)
                  20004f78    00000050                                   : host_device.c.obj (.data:_stream)
                  20004fc8    00000034     tasks.obj (.data)
                  20004ffc    00000028     PWM_page.obj (.data:pwm1)
                  20005024    00000024     no_booster_board.obj (.data:i2c0)
                  20005048    00000020     ADC_task.obj (.data:adc1)
                  20005068    00000020     ADC_task.obj (.data:adc2)
                  20005088    00000018     GPOs.obj (.data:blue_led)
                  200050a0    00000018     GPIs.obj (.data:gpi_1)
                  200050b8    00000018     GPIs.obj (.data:gpi_2)
                  200050d0    00000018     GPOs.obj (.data:green_led)
                  200050e8    00000018     heap_4.obj (.data)
                  20005100    00000018     GPOs.obj (.data:red_led)
                  20005118    00000010     I2C_monitor.obj (.data:format_types)
                  20005128    00000010     rtsv7M4_T_le_v4SPD16_eabi.lib : defs.c.obj (.data)
                  20005138    0000000c                                   : exit.c.obj (.data:$O1$$)
                  20005144    0000000c     GPOs.obj (.data:gpos)
                  20005150    0000000c     port.obj (.data)
                  2000515c    00000008     rtsv7M4_T_le_v4SPD16_eabi.lib : _lock.c.obj (.data:$O1$$)
                  20005164    00000008                                   : memory.c.obj (.data:$O1$$)
                  2000516c    00000008     ADC_task.obj (.data:adc_pin_struct)
                  20005174    00000008     ADC_task.obj (.data:board_adc_pins)
                  2000517c    00000008     GPIs.obj (.data:board_gpi_info)
                  20005184    00000008     GPIs.obj (.data:board_gpi_pins)
                  2000518c    00000008     GPOs.obj (.data:board_gpo_info)
                  20005194    00000008     PWM_page.obj (.data:board_pwm_info)
                  2000519c    00000008     error_logger.obj (.data)
                  200051a4    00000008     no_booster_board.obj (.data:i2c_speed_menu)
                  200051ac    00000005     uartstdio.obj (.data)
                  200051b1    00000001     I2C_sniffer.obj (.data)
                  200051b2    00000002     --HOLE--
                  200051b4    00000004     ADC_task.obj (.data)
                  200051b8    00000004     SPI_command.obj (.data)
                  200051bc    00000004     no_booster_board.obj (.data)
                  200051c0    00000004     PWM_page.obj (.data:pwm_pins)
                  200051c4    00000004     rtsv7M4_T_le_v4SPD16_eabi.lib : errno.c.obj (.data)

.sysmem    0    200051c8    00000010     UNINITIALIZED
                  200051c8    00000010     rtsv7M4_T_le_v4SPD16_eabi.lib : memory.c.obj (.sysmem)

__llvm_prf_cnts 
*          0    20000000    00000000     UNINITIALIZED

MODULE SUMMARY

       Module                         code    ro data   rw data
       ------                         ----    -------   -------
    .\
       ADC_task.obj                   652     14        15444  
       I2C_task.obj                   5764    49        0      
       SPI_command.obj                4914    121       4      
       console_task.obj               3574    150       0      
       I2C_monitor.obj                3503    171       28     
       menu_page.obj                  2966    122       0      
       error_logger.obj               672     54        1208   
       I2C_scripter.obj               1444    58        0      
       PWM_page.obj                   1131    55        52     
       heap_4.obj                     1108    0         32     
       io_control_page.obj            948     51        0      
       task_manager.obj               676     54        0      
       no_booster_board.obj           644     36        48     
       I2C_sniffer.obj                668     57        1      
       tm4c123gh6pm_startup_ccs.obj   12      620       0      
       GPIs.obj                       532     14        64     
       GPOs.obj                       468     34        92     
       test_task.obj                  244     50        0      
       console_uart.obj               252     0         4      
       text_controls.obj              210     0         0      
       utils.obj                      96      0         0      
       main.obj                       60      0         0      
       memory_functions.obj           48      0         0      
       hooks.obj                      42      0         0      
    +--+------------------------------+-------+---------+---------+
       Total:                         30628   1710      16977  
                                                               
    .\FreeRTOS\
       tasks.obj                      7644    0         260    
       queue.obj                      4008    0         64     
       list.obj                       298     0         0      
    +--+------------------------------+-------+---------+---------+
       Total:                         11950   0         324    
                                                               
    .\FreeRTOS\portable\CCS\ARM_CM4F\
       port.obj                       652     8         12     
       portasm.obj                    218     0         0      
    +--+------------------------------+-------+---------+---------+
       Total:                         870     8         12     
                                                               
    .\driverlib\
       sysctl.obj                     3834    452       0      
       gpio.obj                       2952    528       0      
       adc.obj                        1986    0         4      
       interrupt.obj                  960     268       620    
       i2c.obj                        1692    128       0      
       pwm.obj                        1816    0         0      
       timer.obj                      1602    160       0      
       uart.obj                       1560    128       0      
       ssi.obj                        838     64        0      
       fpu.obj                        192     0         0      
       cpu.obj                        62      0         0      
    +--+------------------------------+-------+---------+---------+
       Total:                         17494   1728      624    
                                                               
    .\utils\
       uartstdio.obj                  1192    46        5      
    +--+------------------------------+-------+---------+---------+
       Total:                         1192    46        5      
                                                               
    C:\ti\ccs1020\ccs\tools\compiler\ti-cgt-arm_20.2.2.LTS\lib\rtsv7M4_T_le_v4SPD16_eabi.lib
       _printfi.c.obj                 4851    0         0      
       memory.c.obj                   672     0         8      
       fd_add_t2.asm.obj              438     0         0      
       defs.c.obj                     0       0         416    
       trgmsg.c.obj                   108     0         288    
       fd_div_t2.asm.obj              310     0         0      
       fputs.c.obj                    276     0         0      
       s_scalbn.c.obj                 272     0         0      
       fd_cmp_t2.asm.obj              268     0         0      
       ctype.c.obj                    0       257       0      
       fd_mul_t2.asm.obj              252     0         0      
       setvbuf.c.obj                  220     0         0      
       fflush.c.obj                   200     0         0      
       host_device.c.obj              0       0         200    
       typeinfo.c.obj                 36      127       0      
       memcpy_t2.asm.obj              156     0         0      
       ull_div_t2.asm.obj             150     0         0      
       memset_t2.asm.obj              122     0         0      
       fclose.c.obj                   116     0         0      
       getdevice.c.obj                116     0         0      
       hostrename.c.obj               108     0         0      
       copy_decompress_lzss.c.obj     104     0         0      
       hostlseek.c.obj                104     0         0      
       hostopen.c.obj                 96      0         8      
       fseek.c.obj                    100     0         0      
       s_frexp.c.obj                  100     0         0      
       _io_perm.c.obj                 98      0         0      
       sprintf.c.obj                  98      0         0      
       close.c.obj                    92      0         0      
       exit.c.obj                     76      0         12     
       hostread.c.obj                 88      0         0      
       hostwrite.c.obj                88      0         0      
       _ltoa.c.obj                    84      0         0      
       atoi.c.obj                     76      0         0      
       fd_toi_t2.asm.obj              72      0         0      
       autoinit.c.obj                 68      0         0      
       fd_tou_t2.asm.obj              68      0         0      
       hostclose.c.obj                68      0         0      
       hostunlink.c.obj               68      0         0      
       u_divt2.asm.obj                64      0         0      
       strncpy.c.obj                  54      0         0      
       boot_cortex_m.c.obj            52      0         0      
       fopen.c.obj                    52      0         0      
       i_tofd_t2.asm.obj              46      0         0      
       unlink.c.obj                   44      0         0      
       lseek.c.obj                    40      0         0      
       memmov.c.obj                   40      0         0      
       write.c.obj                    40      0         0      
       memchr.c.obj                   32      0         0      
       u_tofd_t2.asm.obj              32      0         0      
       assert.c.obj                   28      0         0      
       memccpy.c.obj                  28      0         0      
       s_copysign.c.obj               26      0         0      
       strcmp.c.obj                   24      0         0      
       stdlib_typeinfo.cpp.obj        2       21        0      
       strchr.c.obj                   22      0         0      
       vector.cpp.obj                 14      7         0      
       strcpy.c.obj                   20      0         0      
       strlen.c.obj                   20      0         0      
       wcslen.c.obj                   18      0         0      
       copy_decompress_none.c.obj     14      0         0      
       copy_zero_init.c.obj           12      0         0      
       errno.c.obj                    8       0         4      
       _lock.c.obj                    2       0         8      
       pure_virt.c.obj                6       0         0      
       error.c.obj                    4       0         0      
       new.cpp.obj                    4       0         0      
       pre_init.c.obj                 4       0         0      
       div0.asm.obj                   2       0         0      
    +--+------------------------------+-------+---------+---------+
       Total:                         10973   412       944    
                                                               
       Heap:                          0       0         16     
       Stack:                         0       0         2048   
       Linker Generated:              0       383       0      
    +--+------------------------------+-------+---------+---------+
       Grand Total:                   73107   4287      20950  


LINKER GENERATED COPY TABLES

__TI_cinit_table @ 00012e70 records: 3, size/record: 8, table size: 24
	.data: load addr=00012d08, load size=0000014b bytes, run addr=20004e10, run size=000003b8 bytes, compression=lzss
	.bss: load addr=00012e60, load size=00000008 bytes, run addr=2000026c, run size=000043a4 bytes, compression=zero_init
	.vtable: load addr=00012e68, load size=00000008 bytes, run addr=20000000, run size=0000026c bytes, compression=zero_init


LINKER GENERATED HANDLER TABLE

__TI_handler_table @ 00012e54 records: 3, size/record: 4, table size: 12
	index: 0, handler: __TI_zero_init
	index: 1, handler: __TI_decompress_lzss
	index: 2, handler: __TI_decompress_none


GLOBAL SYMBOLS: SORTED ALPHABETICALLY BY Name 

address   name                                                                                                                                                                                                                                                                             
-------   ----                                                                                                                                                                                                                                                                             
000079b9  ADCBusy                                                                                                                                                                                                                                                                          
00007a01  ADCClockConfigGet                                                                                                                                                                                                                                                                
000079d7  ADCClockConfigSet                                                                                                                                                                                                                                                                
000077d3  ADCComparatorConfigure                                                                                                                                                                                                                                                           
000078a3  ADCComparatorIntClear                                                                                                                                                                                                                                                            
00007859  ADCComparatorIntDisable                                                                                                                                                                                                                                                          
00007877  ADCComparatorIntEnable                                                                                                                                                                                                                                                           
00007895  ADCComparatorIntStatus                                                                                                                                                                                                                                                           
000077ef  ADCComparatorRegionSet                                                                                                                                                                                                                                                           
00007813  ADCComparatorReset                                                                                                                                                                                                                                                               
000077a1  ADCHardwareOversampleConfigure                                                                                                                                                                                                                                                   
000073b7  ADCIntClear                                                                                                                                                                                                                                                                      
0000791b  ADCIntClearEx                                                                                                                                                                                                                                                                    
0000731d  ADCIntDisable                                                                                                                                                                                                                                                                    
000078b5  ADCIntDisableEx                                                                                                                                                                                                                                                                  
00007339  ADCIntEnable                                                                                                                                                                                                                                                                     
000078cd  ADCIntEnableEx                                                                                                                                                                                                                                                                   
000072d7  ADCIntRegister                                                                                                                                                                                                                                                                   
0000735f  ADCIntStatus                                                                                                                                                                                                                                                                     
000078e9  ADCIntStatusEx                                                                                                                                                                                                                                                                   
000072ff  ADCIntUnregister                                                                                                                                                                                                                                                                 
00007973  ADCPhaseDelayGet                                                                                                                                                                                                                                                                 
00007961  ADCPhaseDelaySet                                                                                                                                                                                                                                                                 
00007617  ADCProcessorTrigger                                                                                                                                                                                                                                                              
0000794f  ADCReferenceGet                                                                                                                                                                                                                                                                  
00007933  ADCReferenceSet                                                                                                                                                                                                                                                                  
00007401  ADCSequenceConfigure                                                                                                                                                                                                                                                             
0000799d  ADCSequenceDMADisable                                                                                                                                                                                                                                                            
00007981  ADCSequenceDMAEnable                                                                                                                                                                                                                                                             
000075d5  ADCSequenceDataGet                                                                                                                                                                                                                                                               
000073e7  ADCSequenceDisable                                                                                                                                                                                                                                                               
000073cd  ADCSequenceEnable                                                                                                                                                                                                                                                                
00007579  ADCSequenceOverflow                                                                                                                                                                                                                                                              
00007591  ADCSequenceOverflowClear                                                                                                                                                                                                                                                         
00007485  ADCSequenceStepConfigure                                                                                                                                                                                                                                                         
000075a7  ADCSequenceUnderflow                                                                                                                                                                                                                                                             
000075bf  ADCSequenceUnderflowClear                                                                                                                                                                                                                                                        
0000763b  ADCSoftwareOversampleConfigure                                                                                                                                                                                                                                                   
00007733  ADCSoftwareOversampleDataGet                                                                                                                                                                                                                                                     
00007673  ADCSoftwareOversampleStepConfigure                                                                                                                                                                                                                                               
0001201d  C$$EXIT                                                                                                                                                                                                                                                                          
0001063b  C$$IO$$                                                                                                                                                                                                                                                                          
00010463  CPUbasepriGet                                                                                                                                                                                                                                                                    
00010455  CPUbasepriSet                                                                                                                                                                                                                                                                    
0001042f  CPUcpsid                                                                                                                                                                                                                                                                         
00010445  CPUcpsie                                                                                                                                                                                                                                                                         
0001043b  CPUprimask                                                                                                                                                                                                                                                                       
00010451  CPUwfi                                                                                                                                                                                                                                                                           
0000ea0f  FPUDisable                                                                                                                                                                                                                                                                       
0000e9fd  FPUEnable                                                                                                                                                                                                                                                                        
0000ea7b  FPUFlushToZeroModeSet                                                                                                                                                                                                                                                            
0000ea47  FPUHalfPrecisionModeSet                                                                                                                                                                                                                                                          
0000ea2f  FPULazyStackingEnable                                                                                                                                                                                                                                                            
0000ea61  FPUNaNModeSet                                                                                                                                                                                                                                                                    
0000ea95  FPURoundingModeSet                                                                                                                                                                                                                                                               
0000ea3b  FPUStackingDisable                                                                                                                                                                                                                                                               
0000ea1d  FPUStackingEnable                                                                                                                                                                                                                                                                
00005c7f  GPIOADCTriggerDisable                                                                                                                                                                                                                                                            
00005c61  GPIOADCTriggerEnable                                                                                                                                                                                                                                                             
00005c43  GPIODMATriggerDisable                                                                                                                                                                                                                                                            
00005c25  GPIODMATriggerEnable                                                                                                                                                                                                                                                             
000051d7  GPIODirModeGet                                                                                                                                                                                                                                                                   
0000517b  GPIODirModeSet                                                                                                                                                                                                                                                                   
0000573f  GPIOIntClear                                                                                                                                                                                                                                                                     
00005703  GPIOIntDisable                                                                                                                                                                                                                                                                   
000056e9  GPIOIntEnable                                                                                                                                                                                                                                                                    
00005753  GPIOIntRegister                                                                                                                                                                                                                                                                  
0000571d  GPIOIntStatus                                                                                                                                                                                                                                                                    
000052c7  GPIOIntTypeGet                                                                                                                                                                                                                                                                   
00005223  GPIOIntTypeSet                                                                                                                                                                                                                                                                   
00005771  GPIOIntUnregister                                                                                                                                                                                                                                                                
00005597  GPIOPadConfigGet                                                                                                                                                                                                                                                                 
0000535d  GPIOPadConfigSet                                                                                                                                                                                                                                                                 
00005bc7  GPIOPinConfigure                                                                                                                                                                                                                                                                 
0000578b  GPIOPinRead                                                                                                                                                                                                                                                                      
000057c3  GPIOPinTypeADC                                                                                                                                                                                                                                                                   
000057e7  GPIOPinTypeCAN                                                                                                                                                                                                                                                                   
00005b93  GPIOPinTypeCIR                                                                                                                                                                                                                                                                   
0000580b  GPIOPinTypeComparator                                                                                                                                                                                                                                                            
0000582f  GPIOPinTypeEPI                                                                                                                                                                                                                                                                   
00005853  GPIOPinTypeEthernetLED                                                                                                                                                                                                                                                           
00005877  GPIOPinTypeEthernetMII                                                                                                                                                                                                                                                           
0000589b  GPIOPinTypeGPIOInput                                                                                                                                                                                                                                                             
000058bf  GPIOPinTypeGPIOOutput                                                                                                                                                                                                                                                            
000058e3  GPIOPinTypeGPIOOutputOD                                                                                                                                                                                                                                                          
00005907  GPIOPinTypeI2C                                                                                                                                                                                                                                                                   
0000592b  GPIOPinTypeI2CSCL                                                                                                                                                                                                                                                                
00005b4b  GPIOPinTypeKBColumn                                                                                                                                                                                                                                                              
00005b27  GPIOPinTypeKBRow                                                                                                                                                                                                                                                                 
0000594f  GPIOPinTypeLCD                                                                                                                                                                                                                                                                   
00005b6f  GPIOPinTypeLEDSeq                                                                                                                                                                                                                                                                
00005973  GPIOPinTypeLPC                                                                                                                                                                                                                                                                   
00005997  GPIOPinTypePECIRx                                                                                                                                                                                                                                                                
000059bb  GPIOPinTypePECITx                                                                                                                                                                                                                                                                
000059df  GPIOPinTypePWM                                                                                                                                                                                                                                                                   
00005a03  GPIOPinTypeQEI                                                                                                                                                                                                                                                                   
00005a27  GPIOPinTypeSSI                                                                                                                                                                                                                                                                   
00005a4b  GPIOPinTypeTimer                                                                                                                                                                                                                                                                 
00005a6f  GPIOPinTypeUART                                                                                                                                                                                                                                                                  
00005a93  GPIOPinTypeUSBAnalog                                                                                                                                                                                                                                                             
00005ab7  GPIOPinTypeUSBDigital                                                                                                                                                                                                                                                            
00005adb  GPIOPinTypeWakeHigh                                                                                                                                                                                                                                                              
00005b01  GPIOPinTypeWakeLow                                                                                                                                                                                                                                                               
00005bb7  GPIOPinWakeStatus                                                                                                                                                                                                                                                                
000057a3  GPIOPinWrite                                                                                                                                                                                                                                                                     
0001019d  HOSTclose                                                                                                                                                                                                                                                                        
0000f2c5  HOSTlseek                                                                                                                                                                                                                                                                        
0000f715  HOSTopen                                                                                                                                                                                                                                                                         
0000f9b1  HOSTread                                                                                                                                                                                                                                                                         
0000f0a9  HOSTrename                                                                                                                                                                                                                                                                       
000101e1  HOSTunlink                                                                                                                                                                                                                                                                       
0000fa09  HOSTwrite                                                                                                                                                                                                                                                                        
0000874f  I2CFIFODataGet                                                                                                                                                                                                                                                                   
00008769  I2CFIFODataGetNonBlocking                                                                                                                                                                                                                                                        
00008705  I2CFIFODataPut                                                                                                                                                                                                                                                                   
00008727  I2CFIFODataPutNonBlocking                                                                                                                                                                                                                                                        
000086f5  I2CFIFOStatus                                                                                                                                                                                                                                                                    
000082e9  I2CIntRegister                                                                                                                                                                                                                                                                   
00008307  I2CIntUnregister                                                                                                                                                                                                                                                                 
000087a5  I2CMasterBurstCountGet                                                                                                                                                                                                                                                           
0000878f  I2CMasterBurstLengthSet                                                                                                                                                                                                                                                          
0000854d  I2CMasterBusBusy                                                                                                                                                                                                                                                                 
00008535  I2CMasterBusy                                                                                                                                                                                                                                                                    
00008565  I2CMasterControl                                                                                                                                                                                                                                                                 
000085b9  I2CMasterDataGet                                                                                                                                                                                                                                                                 
000085a3  I2CMasterDataPut                                                                                                                                                                                                                                                                 
000082b5  I2CMasterDisable                                                                                                                                                                                                                                                                 
00008281  I2CMasterEnable                                                                                                                                                                                                                                                                  
00008577  I2CMasterErr                                                                                                                                                                                                                                                                     
000087b3  I2CMasterGlitchFilterConfigSet                                                                                                                                                                                                                                                   
000081b7  I2CMasterInitExpClk                                                                                                                                                                                                                                                              
000084af  I2CMasterIntClear                                                                                                                                                                                                                                                                
000084cd  I2CMasterIntClearEx                                                                                                                                                                                                                                                              
0000837b  I2CMasterIntDisable                                                                                                                                                                                                                                                              
0000838b  I2CMasterIntDisableEx                                                                                                                                                                                                                                                            
00008321  I2CMasterIntEnable                                                                                                                                                                                                                                                               
00008331  I2CMasterIntEnableEx                                                                                                                                                                                                                                                             
000083d5  I2CMasterIntStatus                                                                                                                                                                                                                                                               
00008419  I2CMasterIntStatusEx                                                                                                                                                                                                                                                             
00008527  I2CMasterLineStateGet                                                                                                                                                                                                                                                            
00008505  I2CMasterSlaveAddrSet                                                                                                                                                                                                                                                            
000085c7  I2CMasterTimeoutSet                                                                                                                                                                                                                                                              
000086b5  I2CRxFIFOConfigSet                                                                                                                                                                                                                                                               
000086dd  I2CRxFIFOFlush                                                                                                                                                                                                                                                                   
000085d9  I2CSlaveACKOverride                                                                                                                                                                                                                                                              
0000860b  I2CSlaveACKValueSet                                                                                                                                                                                                                                                              
00008243  I2CSlaveAddressSet                                                                                                                                                                                                                                                               
00008665  I2CSlaveDataGet                                                                                                                                                                                                                                                                  
0000864d  I2CSlaveDataPut                                                                                                                                                                                                                                                                  
000082cb  I2CSlaveDisable                                                                                                                                                                                                                                                                  
00008297  I2CSlaveEnable                                                                                                                                                                                                                                                                   
000087e3  I2CSlaveFIFODisable                                                                                                                                                                                                                                                              
000087cb  I2CSlaveFIFOEnable                                                                                                                                                                                                                                                               
00008229  I2CSlaveInit                                                                                                                                                                                                                                                                     
000084df  I2CSlaveIntClear                                                                                                                                                                                                                                                                 
000084f1  I2CSlaveIntClearEx                                                                                                                                                                                                                                                               
000083a3  I2CSlaveIntDisable                                                                                                                                                                                                                                                               
000083bb  I2CSlaveIntDisableEx                                                                                                                                                                                                                                                             
00008349  I2CSlaveIntEnable                                                                                                                                                                                                                                                                
00008361  I2CSlaveIntEnableEx                                                                                                                                                                                                                                                              
00008445  I2CSlaveIntStatus                                                                                                                                                                                                                                                                
0000848d  I2CSlaveIntStatusEx                                                                                                                                                                                                                                                              
0000863d  I2CSlaveStatus                                                                                                                                                                                                                                                                   
00008675  I2CTxFIFOConfigSet                                                                                                                                                                                                                                                               
0000869d  I2CTxFIFOFlush                                                                                                                                                                                                                                                                   
0000b965  IntDisable                                                                                                                                                                                                                                                                       
0000b8f3  IntEnable                                                                                                                                                                                                                                                                        
0000b9d7  IntIsEnabled                                                                                                                                                                                                                                                                     
0000b7b7  IntMasterDisable                                                                                                                                                                                                                                                                 
0000b7a7  IntMasterEnable                                                                                                                                                                                                                                                                  
0000bacd  IntPendClear                                                                                                                                                                                                                                                                     
0000ba5d  IntPendSet                                                                                                                                                                                                                                                                       
0000b8cf  IntPriorityGet                                                                                                                                                                                                                                                                   
0000b847  IntPriorityGroupingGet                                                                                                                                                                                                                                                           
0000b82d  IntPriorityGroupingSet                                                                                                                                                                                                                                                           
0000bb27  IntPriorityMaskGet                                                                                                                                                                                                                                                               
0000bb1b  IntPriorityMaskSet                                                                                                                                                                                                                                                               
0000b87f  IntPrioritySet                                                                                                                                                                                                                                                                   
0000b7c7  IntRegister                                                                                                                                                                                                                                                                      
0000bb2f  IntTrigger                                                                                                                                                                                                                                                                       
0000b819  IntUnregister                                                                                                                                                                                                                                                                    
000080bb  PWMClockGet                                                                                                                                                                                                                                                                      
0000809b  PWMClockSet                                                                                                                                                                                                                                                                      
00007be5  PWMDeadBandDisable                                                                                                                                                                                                                                                               
00007bad  PWMDeadBandEnable                                                                                                                                                                                                                                                                
00007f61  PWMFaultIntClear                                                                                                                                                                                                                                                                 
00007f93  PWMFaultIntClearExt                                                                                                                                                                                                                                                              
00007e7b  PWMFaultIntRegister                                                                                                                                                                                                                                                              
00007e99  PWMFaultIntUnregister                                                                                                                                                                                                                                                            
00007a41  PWMGenConfigure                                                                                                                                                                                                                                                                  
00007aff  PWMGenDisable                                                                                                                                                                                                                                                                    
00007ae5  PWMGenEnable                                                                                                                                                                                                                                                                     
00008065  PWMGenFaultClear                                                                                                                                                                                                                                                                 
00007fb1  PWMGenFaultConfigure                                                                                                                                                                                                                                                             
0000802f  PWMGenFaultStatus                                                                                                                                                                                                                                                                
0000800b  PWMGenFaultTriggerGet                                                                                                                                                                                                                                                            
00007fe1  PWMGenFaultTriggerSet                                                                                                                                                                                                                                                            
00007f19  PWMGenIntClear                                                                                                                                                                                                                                                                   
00007ded  PWMGenIntRegister                                                                                                                                                                                                                                                                
00007eef  PWMGenIntStatus                                                                                                                                                                                                                                                                  
00007ed1  PWMGenIntTrigDisable                                                                                                                                                                                                                                                             
00007eb3  PWMGenIntTrigEnable                                                                                                                                                                                                                                                              
00007e15  PWMGenIntUnregister                                                                                                                                                                                                                                                              
00007abb  PWMGenPeriodGet                                                                                                                                                                                                                                                                  
00007a8b  PWMGenPeriodSet                                                                                                                                                                                                                                                                  
00007f49  PWMIntDisable                                                                                                                                                                                                                                                                    
00007f31  PWMIntEnable                                                                                                                                                                                                                                                                     
00007f73  PWMIntStatus                                                                                                                                                                                                                                                                     
00007cbb  PWMOutputFault                                                                                                                                                                                                                                                                   
00007c89  PWMOutputFaultLevel                                                                                                                                                                                                                                                              
00007c57  PWMOutputInvert                                                                                                                                                                                                                                                                  
00007c25  PWMOutputState                                                                                                                                                                                                                                                                   
000080e5  PWMOutputUpdateMode                                                                                                                                                                                                                                                              
00007b63  PWMPulseWidthGet                                                                                                                                                                                                                                                                 
00007b19  PWMPulseWidthSet                                                                                                                                                                                                                                                                 
00007c13  PWMSyncTimeBase                                                                                                                                                                                                                                                                  
00007c01  PWMSyncUpdate                                                                                                                                                                                                                                                                    
00011f7d  ResetISR                                                                                                                                                                                                                                                                         
0000c1e1  SSIAdvDataPutFrameEnd                                                                                                                                                                                                                                                            
0000c207  SSIAdvDataPutFrameEndNonBlocking                                                                                                                                                                                                                                                 
0000c249  SSIAdvFrameHoldDisable                                                                                                                                                                                                                                                           
0000c233  SSIAdvFrameHoldEnable                                                                                                                                                                                                                                                            
0000c1c5  SSIAdvModeSet                                                                                                                                                                                                                                                                    
0000c16f  SSIBusy                                                                                                                                                                                                                                                                          
0000c1a1  SSIClockSourceGet                                                                                                                                                                                                                                                                
0000c18d  SSIClockSourceSet                                                                                                                                                                                                                                                                
0000bf77  SSIConfigSetExpClk                                                                                                                                                                                                                                                               
0000c157  SSIDMADisable                                                                                                                                                                                                                                                                    
0000c13f  SSIDMAEnable                                                                                                                                                                                                                                                                     
0000c101  SSIDataGet                                                                                                                                                                                                                                                                       
0000c11d  SSIDataGetNonBlocking                                                                                                                                                                                                                                                            
0000c0c7  SSIDataPut                                                                                                                                                                                                                                                                       
0000c0e1  SSIDataPutNonBlocking                                                                                                                                                                                                                                                            
0000c019  SSIDisable                                                                                                                                                                                                                                                                       
0000c003  SSIEnable                                                                                                                                                                                                                                                                        
0000c0b5  SSIIntClear                                                                                                                                                                                                                                                                      
0000c07f  SSIIntDisable                                                                                                                                                                                                                                                                    
0000c067  SSIIntEnable                                                                                                                                                                                                                                                                     
0000c02f  SSIIntRegister                                                                                                                                                                                                                                                                   
0000c097  SSIIntStatus                                                                                                                                                                                                                                                                     
0000c04d  SSIIntUnregister                                                                                                                                                                                                                                                                 
000050bb  SysCtlAltClkConfig                                                                                                                                                                                                                                                               
00004891  SysCtlClockFreqSet                                                                                                                                                                                                                                                               
00004d75  SysCtlClockGet                                                                                                                                                                                                                                                                   
0000509f  SysCtlClockOutConfig                                                                                                                                                                                                                                                             
00004ba9  SysCtlClockSet                                                                                                                                                                                                                                                                   
00004791  SysCtlDeepSleep                                                                                                                                                                                                                                                                  
00004f41  SysCtlDeepSleepClockConfigSet                                                                                                                                                                                                                                                    
00004f23  SysCtlDeepSleepClockSet                                                                                                                                                                                                                                                          
00004771  SysCtlDeepSleepPowerSet                                                                                                                                                                                                                                                          
00011ffd  SysCtlDelay                                                                                                                                                                                                                                                                      
0000431f  SysCtlFlashSectorSizeGet                                                                                                                                                                                                                                                         
000042f3  SysCtlFlashSizeGet                                                                                                                                                                                                                                                               
00005017  SysCtlGPIOAHBDisable                                                                                                                                                                                                                                                             
00004ffb  SysCtlGPIOAHBEnable                                                                                                                                                                                                                                                              
00004705  SysCtlIntClear                                                                                                                                                                                                                                                                   
000046ed  SysCtlIntDisable                                                                                                                                                                                                                                                                 
000046d9  SysCtlIntEnable                                                                                                                                                                                                                                                                  
000046b1  SysCtlIntRegister                                                                                                                                                                                                                                                                
00004715  SysCtlIntStatus                                                                                                                                                                                                                                                                  
000046c9  SysCtlIntUnregister                                                                                                                                                                                                                                                              
00004757  SysCtlLDODeepSleepGet                                                                                                                                                                                                                                                            
00004747  SysCtlLDODeepSleepSet                                                                                                                                                                                                                                                            
00004741  SysCtlLDOSleepGet                                                                                                                                                                                                                                                                
00004731  SysCtlLDOSleepSet                                                                                                                                                                                                                                                                
000047c7  SysCtlMOSCConfigSet                                                                                                                                                                                                                                                              
0000508b  SysCtlNMIClear                                                                                                                                                                                                                                                                   
00005085  SysCtlNMIStatus                                                                                                                                                                                                                                                                  
000047dd  SysCtlPIOSCCalibrate                                                                                                                                                                                                                                                             
00004fe5  SysCtlPWMClockGet                                                                                                                                                                                                                                                                
00004fcb  SysCtlPWMClockSet                                                                                                                                                                                                                                                                
0000465d  SysCtlPeripheralClockGating                                                                                                                                                                                                                                                      
00004615  SysCtlPeripheralDeepSleepDisable                                                                                                                                                                                                                                                 
000045c5  SysCtlPeripheralDeepSleepEnable                                                                                                                                                                                                                                                  
00004501  SysCtlPeripheralDisable                                                                                                                                                                                                                                                          
000044c5  SysCtlPeripheralEnable                                                                                                                                                                                                                                                           
00004401  SysCtlPeripheralPowerOff                                                                                                                                                                                                                                                         
000043c5  SysCtlPeripheralPowerOn                                                                                                                                                                                                                                                          
00004345  SysCtlPeripheralPresent                                                                                                                                                                                                                                                          
00004385  SysCtlPeripheralReady                                                                                                                                                                                                                                                            
0000443d  SysCtlPeripheralReset                                                                                                                                                                                                                                                            
00004589  SysCtlPeripheralSleepDisable                                                                                                                                                                                                                                                     
00004545  SysCtlPeripheralSleepEnable                                                                                                                                                                                                                                                      
00004781  SysCtlReset                                                                                                                                                                                                                                                                      
0000483d  SysCtlResetBehaviorGet                                                                                                                                                                                                                                                           
0000482d  SysCtlResetBehaviorSet                                                                                                                                                                                                                                                           
000047b3  SysCtlResetCauseClear                                                                                                                                                                                                                                                            
000047ad  SysCtlResetCauseGet                                                                                                                                                                                                                                                              
000042e9  SysCtlSRAMSizeGet                                                                                                                                                                                                                                                                
00004789  SysCtlSleep                                                                                                                                                                                                                                                                      
0000475d  SysCtlSleepPowerSet                                                                                                                                                                                                                                                              
00005045  SysCtlUSBPLLDisable                                                                                                                                                                                                                                                              
00005033  SysCtlUSBPLLEnable                                                                                                                                                                                                                                                               
00005071  SysCtlVoltageEventClear                                                                                                                                                                                                                                                          
00005055  SysCtlVoltageEventConfig                                                                                                                                                                                                                                                         
00005065  SysCtlVoltageEventStatus                                                                                                                                                                                                                                                         
00009419  TimerADCEventGet                                                                                                                                                                                                                                                                 
00009407  TimerADCEventSet                                                                                                                                                                                                                                                                 
0000913d  TimerClockSourceGet                                                                                                                                                                                                                                                              
00009113  TimerClockSourceSet                                                                                                                                                                                                                                                              
00008f07  TimerConfigure                                                                                                                                                                                                                                                                   
00009027  TimerControlEvent                                                                                                                                                                                                                                                                
00008f83  TimerControlLevel                                                                                                                                                                                                                                                                
00009051  TimerControlStall                                                                                                                                                                                                                                                                
00008fb9  TimerControlTrigger                                                                                                                                                                                                                                                              
00009087  TimerControlWaitOnTrigger                                                                                                                                                                                                                                                        
00009439  TimerDMAEventGet                                                                                                                                                                                                                                                                 
00009427  TimerDMAEventSet                                                                                                                                                                                                                                                                 
00008ee9  TimerDisable                                                                                                                                                                                                                                                                     
00008ecb  TimerEnable                                                                                                                                                                                                                                                                      
000093e3  TimerIntClear                                                                                                                                                                                                                                                                    
000093ad  TimerIntDisable                                                                                                                                                                                                                                                                  
00009395  TimerIntEnable                                                                                                                                                                                                                                                                   
0000934f  TimerIntRegister                                                                                                                                                                                                                                                                 
000093c5  TimerIntStatus                                                                                                                                                                                                                                                                   
00009377  TimerIntUnregister                                                                                                                                                                                                                                                               
00009207  TimerLoadGet                                                                                                                                                                                                                                                                     
0000923d  TimerLoadGet64                                                                                                                                                                                                                                                                   
000091dd  TimerLoadSet                                                                                                                                                                                                                                                                     
00009223  TimerLoadSet64                                                                                                                                                                                                                                                                   
000092e7  TimerMatchGet                                                                                                                                                                                                                                                                    
0000931d  TimerMatchGet64                                                                                                                                                                                                                                                                  
000092bd  TimerMatchSet                                                                                                                                                                                                                                                                    
00009303  TimerMatchSet64                                                                                                                                                                                                                                                                  
00009177  TimerPrescaleGet                                                                                                                                                                                                                                                                 
000091c1  TimerPrescaleMatchGet                                                                                                                                                                                                                                                            
00009193  TimerPrescaleMatchSet                                                                                                                                                                                                                                                            
0000914d  TimerPrescaleSet                                                                                                                                                                                                                                                                 
000090fd  TimerRTCDisable                                                                                                                                                                                                                                                                  
000090e7  TimerRTCEnable                                                                                                                                                                                                                                                                   
000093f5  TimerSynchronize                                                                                                                                                                                                                                                                 
00009447  TimerUpdateMode                                                                                                                                                                                                                                                                  
0000926f  TimerValueGet                                                                                                                                                                                                                                                                    
0000928b  TimerValueGet64                                                                                                                                                                                                                                                                  
00009a6d  UART9BitAddrSend                                                                                                                                                                                                                                                                 
00009a47  UART9BitAddrSet                                                                                                                                                                                                                                                                  
00009a31  UART9BitDisable                                                                                                                                                                                                                                                                  
00009a1b  UART9BitEnable                                                                                                                                                                                                                                                                   
000098bf  UARTBreakCtl                                                                                                                                                                                                                                                                     
000098e9  UARTBusy                                                                                                                                                                                                                                                                         
00009867  UARTCharGet                                                                                                                                                                                                                                                                      
0000984b  UARTCharGetNonBlocking                                                                                                                                                                                                                                                           
000098a1  UARTCharPut                                                                                                                                                                                                                                                                      
0000987d  UARTCharPutNonBlocking                                                                                                                                                                                                                                                           
0000980f  UARTCharsAvail                                                                                                                                                                                                                                                                   
00009a0b  UARTClockSourceGet                                                                                                                                                                                                                                                               
000099f7  UARTClockSourceSet                                                                                                                                                                                                                                                               
000095df  UARTConfigGetExpClk                                                                                                                                                                                                                                                              
00009569  UARTConfigSetExpClk                                                                                                                                                                                                                                                              
000099bd  UARTDMADisable                                                                                                                                                                                                                                                                   
000099a5  UARTDMAEnable                                                                                                                                                                                                                                                                    
0000964f  UARTDisable                                                                                                                                                                                                                                                                      
000096d3  UARTDisableSIR                                                                                                                                                                                                                                                                   
0000962b  UARTEnable                                                                                                                                                                                                                                                                       
000096a5  UARTEnableSIR                                                                                                                                                                                                                                                                    
0000968f  UARTFIFODisable                                                                                                                                                                                                                                                                  
00009679  UARTFIFOEnable                                                                                                                                                                                                                                                                   
00009541  UARTFIFOLevelGet                                                                                                                                                                                                                                                                 
00009529  UARTFIFOLevelSet                                                                                                                                                                                                                                                                 
000097cf  UARTFlowControlGet                                                                                                                                                                                                                                                               
000097b3  UARTFlowControlSet                                                                                                                                                                                                                                                               
00009993  UARTIntClear                                                                                                                                                                                                                                                                     
0000995d  UARTIntDisable                                                                                                                                                                                                                                                                   
00009945  UARTIntEnable                                                                                                                                                                                                                                                                    
00009907  UARTIntRegister                                                                                                                                                                                                                                                                  
00009975  UARTIntStatus                                                                                                                                                                                                                                                                    
00009925  UARTIntUnregister                                                                                                                                                                                                                                                                
00009769  UARTModemControlClear                                                                                                                                                                                                                                                            
0000978d  UARTModemControlGet                                                                                                                                                                                                                                                              
00009731  UARTModemControlSet                                                                                                                                                                                                                                                              
0000979f  UARTModemStatusGet                                                                                                                                                                                                                                                               
00009517  UARTParityModeGet                                                                                                                                                                                                                                                                
000094fb  UARTParityModeSet                                                                                                                                                                                                                                                                
000099e7  UARTRxErrorClear                                                                                                                                                                                                                                                                 
000099d5  UARTRxErrorGet                                                                                                                                                                                                                                                                   
0000971b  UARTSmartCardDisable                                                                                                                                                                                                                                                             
000096e9  UARTSmartCardEnable                                                                                                                                                                                                                                                              
0000982d  UARTSpaceAvail                                                                                                                                                                                                                                                                   
0000a639  UARTStdioConfig                                                                                                                                                                                                                                                                  
000097fd  UARTTxIntModeGet                                                                                                                                                                                                                                                                 
000097e1  UARTTxIntModeSet                                                                                                                                                                                                                                                                 
0000a789  UARTgetc                                                                                                                                                                                                                                                                         
0000a6cf  UARTgets                                                                                                                                                                                                                                                                         
0000aaab  UARTprintf                                                                                                                                                                                                                                                                       
0000a7b1  UARTvprintf                                                                                                                                                                                                                                                                      
0000a67f  UARTwrite                                                                                                                                                                                                                                                                        
0000f8f5  _Z17int_to_bin_stringjPh                                                                                                                                                                                                                                                         
00002049  _Z19set_i2c_clock_speedj                                                                                                                                                                                                                                                         
0000e3a1  _Z8get_charv                                                                                                                                                                                                                                                                     
00006359  _ZN10SpiCmdTask10draw_inputEi                                                                                                                                                                                                                                                    
00006737  _ZN10SpiCmdTask10draw_resetEv                                                                                                                                                                                                                                                    
000060df  _ZN10SpiCmdTask10log_errorsEPS_                                                                                                                                                                                                                                                  
00005ebd  _ZN10SpiCmdTask11add_spi_msgEP6SpiMsg                                                                                                                                                                                                                                            
00006165  _ZN10SpiCmdTask12ascii_to_hexEh                                                                                                                                                                                                                                                  
00006205  _ZN10SpiCmdTask12print_errorsEPS_                                                                                                                                                                                                                                                
000060d1  _ZN10SpiCmdTask14taskfunwrapperEPv                                                                                                                                                                                                                                               
00005f09  _ZN10SpiCmdTask4taskEPS_                                                                                                                                                                                                                                                         
00006269  _ZN10SpiCmdTask9draw_dataEv                                                                                                                                                                                                                                                      
0000672d  _ZN10SpiCmdTask9draw_helpEv                                                                                                                                                                                                                                                      
0000625d  _ZN10SpiCmdTask9draw_pageEv                                                                                                                                                                                                                                                      
00005cd5  _ZN10SpiCmdTaskC1Ev                                                                                                                                                                                                                                                              
00005cd5  _ZN10SpiCmdTaskC2Ev                                                                                                                                                                                                                                                              
0001183f  _ZN10__cxxabiv117__class_type_infoD0Ev                                                                                                                                                                                                                                           
00012009  _ZN10__cxxabiv117__class_type_infoD1Ev                                                                                                                                                                                                                                           
00012009  _ZN10__cxxabiv117__class_type_infoD2Ev                                                                                                                                                                                                                                           
0001184d  _ZN10__cxxabiv120__si_class_type_infoD0Ev                                                                                                                                                                                                                                        
0001200d  _ZN10__cxxabiv120__si_class_type_infoD1Ev                                                                                                                                                                                                                                        
0001200d  _ZN10__cxxabiv120__si_class_type_infoD2Ev                                                                                                                                                                                                                                        
000087f5  _ZN11ConsolePageC1EPKcjb                                                                                                                                                                                                                                                         
000087f5  _ZN11ConsolePageC2EPKcjb                                                                                                                                                                                                                                                         
00008e1f  _ZN11ConsoleTask10draw_inputEi                                                                                                                                                                                                                                                   
00008e35  _ZN11ConsoleTask10draw_resetEv                                                                                                                                                                                                                                                   
000088b7  _ZN11ConsoleTask14taskfunwrapperEPv                                                                                                                                                                                                                                              
00008d0b  _ZN11ConsoleTask15start_draw_menuEPS_                                                                                                                                                                                                                                            
000089b9  _ZN11ConsoleTask4taskEPS_                                                                                                                                                                                                                                                        
0000889b  _ZN11ConsoleTask8add_pageEP11ConsolePage                                                                                                                                                                                                                                         
00008e15  _ZN11ConsoleTask9draw_dataEv                                                                                                                                                                                                                                                     
00008e2b  _ZN11ConsoleTask9draw_helpEv                                                                                                                                                                                                                                                     
00008dcd  _ZN11ConsoleTask9draw_pageEv                                                                                                                                                                                                                                                     
00008829  _ZN11ConsoleTaskC1EP15QueueDefinition                                                                                                                                                                                                                                            
00008829  _ZN11ConsoleTaskC2EP15QueueDefinition                                                                                                                                                                                                                                            
0000c6a5  _ZN11ErrorLogger10draw_inputEi                                                                                                                                                                                                                                                   
0000c6f5  _ZN11ErrorLogger10draw_resetEv                                                                                                                                                                                                                                                   
0000c52f  _ZN11ErrorLogger12create_errorEPKcS1_                                                                                                                                                                                                                                            
0000c505  _ZN11ErrorLogger12get_instanceEv                                                                                                                                                                                                                                                 
200051a0  _ZN11ErrorLogger3objE                                                                                                                                                                                                                                                            
0000c609  _ZN11ErrorLogger9draw_dataEv                                                                                                                                                                                                                                                     
0000c6eb  _ZN11ErrorLogger9draw_helpEv                                                                                                                                                                                                                                                     
0000c5bf  _ZN11ErrorLogger9draw_pageEv                                                                                                                                                                                                                                                     
0000c591  _ZN11ErrorLogger9set_errorEP7error_t                                                                                                                                                                                                                                             
0000c5a5  _ZN11ErrorLoggerC1Ev                                                                                                                                                                                                                                                             
0000c5a5  _ZN11ErrorLoggerC2Ev                                                                                                                                                                                                                                                             
0000b625  _ZN11MenuOptions10draw_inputEi                                                                                                                                                                                                                                                   
0000b799  _ZN11MenuOptions10draw_resetEv                                                                                                                                                                                                                                                   
0000b3fb  _ZN11MenuOptions12add_menu_rowEP7MenuRow                                                                                                                                                                                                                                         
0000b601  _ZN11MenuOptions9draw_dataEv                                                                                                                                                                                                                                                     
0000b78f  _ZN11MenuOptions9draw_helpEv                                                                                                                                                                                                                                                     
0000b4eb  _ZN11MenuOptions9draw_pageEv                                                                                                                                                                                                                                                     
0000b40d  _ZN11MenuOptions9print_rowEj                                                                                                                                                                                                                                                     
0000b3d1  _ZN11MenuOptionsC1Ev                                                                                                                                                                                                                                                             
0000b3d1  _ZN11MenuOptionsC2Ev                                                                                                                                                                                                                                                             
0000c411  _ZN11TaskManager10draw_inputEi                                                                                                                                                                                                                                                   
0000c41d  _ZN11TaskManager10draw_resetEv                                                                                                                                                                                                                                                   
0000c407  _ZN11TaskManager9draw_dataEv                                                                                                                                                                                                                                                     
0000c427  _ZN11TaskManager9draw_helpEv                                                                                                                                                                                                                                                     
0000c285  _ZN11TaskManager9draw_pageEv                                                                                                                                                                                                                                                     
0000c261  _ZN11TaskManagerC1Ev                                                                                                                                                                                                                                                             
0000c261  _ZN11TaskManagerC2Ev                                                                                                                                                                                                                                                             
0000cf59  _ZN13NoBoosterPackC1Ev                                                                                                                                                                                                                                                           
0000cf59  _ZN13NoBoosterPackC2Ev                                                                                                                                                                                                                                                           
00009ec1  _ZN14I2cMonitorTask10draw_inputEi                                                                                                                                                                                                                                                
0000a001  _ZN14I2cMonitorTask10draw_resetEv                                                                                                                                                                                                                                                
00009c55  _ZN14I2cMonitorTask10print_dataEjj                                                                                                                                                                                                                                               
00009b8f  _ZN14I2cMonitorTask14taskfunwrapperEPv                                                                                                                                                                                                                                           
00009b9d  _ZN14I2cMonitorTask16print_format_rowEj                                                                                                                                                                                                                                          
00009b3b  _ZN14I2cMonitorTask4taskEPS_                                                                                                                                                                                                                                                     
00009e21  _ZN14I2cMonitorTask9draw_dataEv                                                                                                                                                                                                                                                  
00009ff7  _ZN14I2cMonitorTask9draw_helpEv                                                                                                                                                                                                                                                  
00009d85  _ZN14I2cMonitorTask9draw_pageEv                                                                                                                                                                                                                                                  
00009ab5  _ZN14I2cMonitorTaskC1EP7I2cTaskRNSt3__26vectorIP6I2cMsgNS2_9allocatorIS5_EEEE                                                                                                                                                                                                    
00009ab5  _ZN14I2cMonitorTaskC2EP7I2cTaskRNSt3__26vectorIP6I2cMsgNS2_9allocatorIS5_EEEE                                                                                                                                                                                                    
0000c937  _ZN14I2cSnifferTask10draw_inputEi                                                                                                                                                                                                                                                
0000c953  _ZN14I2cSnifferTask10draw_resetEv                                                                                                                                                                                                                                                
0000c913  _ZN14I2cSnifferTask14taskfunwrapperEPv                                                                                                                                                                                                                                           
0000c80f  _ZN14I2cSnifferTask4taskEPS_                                                                                                                                                                                                                                                     
0000c92d  _ZN14I2cSnifferTask9draw_dataEv                                                                                                                                                                                                                                                  
0000c95d  _ZN14I2cSnifferTask9draw_helpEv                                                                                                                                                                                                                                                  
0000c921  _ZN14I2cSnifferTask9draw_pageEv                                                                                                                                                                                                                                                  
0000c7a5  _ZN14I2cSnifferTaskC1EP7I2cTask                                                                                                                                                                                                                                                  
0000c7a5  _ZN14I2cSnifferTaskC2EP7I2cTask                                                                                                                                                                                                                                                  
0000a281  _ZN15I2cScripterTask10draw_inputEi                                                                                                                                                                                                                                               
0000a5ad  _ZN15I2cScripterTask10draw_resetEv                                                                                                                                                                                                                                               
0000a17f  _ZN15I2cScripterTask12ascii_to_hexEPc                                                                                                                                                                                                                                            
0000a1d5  _ZN15I2cScripterTask13print_messageEP6I2cMsg                                                                                                                                                                                                                                     
0000a171  _ZN15I2cScripterTask14taskfunwrapperEPv                                                                                                                                                                                                                                          
0000a11d  _ZN15I2cScripterTask4taskEPS_                                                                                                                                                                                                                                                    
0000a25b  _ZN15I2cScripterTask9draw_dataEv                                                                                                                                                                                                                                                 
0000a409  _ZN15I2cScripterTask9draw_helpEv                                                                                                                                                                                                                                                 
0000a241  _ZN15I2cScripterTask9draw_pageEv                                                                                                                                                                                                                                                 
0000a095  _ZN15I2cScripterTaskC1EP7I2cTask                                                                                                                                                                                                                                                 
0000a095  _ZN15I2cScripterTaskC2EP7I2cTask                                                                                                                                                                                                                                                 
0000d579  _ZN6GpiObj10get_configEPKc                                                                                                                                                                                                                                                       
0000d5e1  _ZN6GpiObj10get_structEv                                                                                                                                                                                                                                                         
0000d5c5  _ZN6GpiObj3getEP10gpio_pin_t                                                                                                                                                                                                                                                     
0000d44d  _ZN6GpiObjC1Ev                                                                                                                                                                                                                                                                   
0000d44d  _ZN6GpiObjC2Ev                                                                                                                                                                                                                                                                   
0000d755  _ZN6GpoObj10get_configEPKc                                                                                                                                                                                                                                                       
0000d7eb  _ZN6GpoObj10get_structEv                                                                                                                                                                                                                                                         
0000d7cf  _ZN6GpoObj3getEP10gpio_pin_t                                                                                                                                                                                                                                                     
0000d7a1  _ZN6GpoObj3setEP10gpio_pin_tj                                                                                                                                                                                                                                                    
0000d661  _ZN6GpoObjC1Ev                                                                                                                                                                                                                                                                   
0000d661  _ZN6GpoObjC2Ev                                                                                                                                                                                                                                                                   
000020cf  _ZN6I2cMsgC1E14i2c_msg_type_t                                                                                                                                                                                                                                                    
000020cf  _ZN6I2cMsgC2E14i2c_msg_type_t                                                                                                                                                                                                                                                    
00005cbd  _ZN6SpiMsgC1E14spi_msg_type_e                                                                                                                                                                                                                                                    
00005cbd  _ZN6SpiMsgC2E14spi_msg_type_e                                                                                                                                                                                                                                                    
0000cc05  _ZN7AdcTask11get_adc_valEP9adc_pin_tPS_                                                                                                                                                                                                                                          
0000cbbf  _ZN7AdcTask14get_adc_configEPKc                                                                                                                                                                                                                                                  
0000cc1f  _ZN7AdcTask14get_adc_structEv                                                                                                                                                                                                                                                    
0000cc61  _ZN7AdcTask14taskfunwrapperEPv                                                                                                                                                                                                                                                   
0000cc2b  _ZN7AdcTask4taskEPS_                                                                                                                                                                                                                                                             
0000ca75  _ZN7AdcTaskC1Ev                                                                                                                                                                                                                                                                  
0000ca75  _ZN7AdcTaskC2Ev                                                                                                                                                                                                                                                                  
00002d09  _ZN7I2cTask10draw_inputEi                                                                                                                                                                                                                                                        
00003183  _ZN7I2cTask10draw_resetEv                                                                                                                                                                                                                                                        
00002343  _ZN7I2cTask10get_vectorEv                                                                                                                                                                                                                                                        
00002915  _ZN7I2cTask10log_errorsEPS_                                                                                                                                                                                                                                                      
00002389  _ZN7I2cTask11add_i2c_msgEP6I2cMsg                                                                                                                                                                                                                                                
000029a5  _ZN7I2cTask12print_errorsEPS_                                                                                                                                                                                                                                                    
00002907  _ZN7I2cTask14taskfunwrapperEPv                                                                                                                                                                                                                                                   
000023a7  _ZN7I2cTask19reset_monitor_indexEv                                                                                                                                                                                                                                               
00002435  _ZN7I2cTask4taskEPS_                                                                                                                                                                                                                                                             
00002a8d  _ZN7I2cTask9draw_dataEv                                                                                                                                                                                                                                                          
000031a7  _ZN7I2cTask9draw_helpEv                                                                                                                                                                                                                                                          
00002a81  _ZN7I2cTask9draw_pageEv                                                                                                                                                                                                                                                          
0000213d  _ZN7I2cTaskC1EP12i2c_config_t                                                                                                                                                                                                                                                    
0000213d  _ZN7I2cTaskC2EP12i2c_config_t                                                                                                                                                                                                                                                    
0000b3a1  _ZN7MenuRowC1EjPFvjEPPKcS3_                                                                                                                                                                                                                                                      
0000b3a1  _ZN7MenuRowC2EjPFvjEPPKcS3_                                                                                                                                                                                                                                                      
0000aced  _ZN7PWMpage10draw_inputEi                                                                                                                                                                                                                                                        
0000aeb1  _ZN7PWMpage10draw_resetEv                                                                                                                                                                                                                                                        
0000abd9  _ZN7PWMpage15set_pulse_widthEjjjb                                                                                                                                                                                                                                                
0000accf  _ZN7PWMpage9draw_dataEv                                                                                                                                                                                                                                                          
0000aedd  _ZN7PWMpage9draw_helpEv                                                                                                                                                                                                                                                          
0000acbb  _ZN7PWMpage9draw_pageEv                                                                                                                                                                                                                                                          
0000aae1  _ZN7PWMpageC1Ev                                                                                                                                                                                                                                                                  
0000aae1  _ZN7PWMpageC2Ev                                                                                                                                                                                                                                                                  
0000e991  _ZN7TextCtl10clear_lineEv                                                                                                                                                                                                                                                        
0000e961  _ZN7TextCtl10cursor_posEjj                                                                                                                                                                                                                                                       
0000e937  _ZN7TextCtl10text_colorEj                                                                                                                                                                                                                                                        
0000e99b  _ZN7TextCtl13clear_in_lineEv                                                                                                                                                                                                                                                     
0000e929  _ZN7TextCtl13set_text_modeEj                                                                                                                                                                                                                                                     
0000e987  _ZN7TextCtl14clear_terminalEv                                                                                                                                                                                                                                                    
0000e945  _ZN7TextCtl15bold_text_colorEj                                                                                                                                                                                                                                                   
0000e973  _ZN7TextCtl15save_cursor_posEv                                                                                                                                                                                                                                                   
0000e9a5  _ZN7TextCtl16clear_below_lineEv                                                                                                                                                                                                                                                  
0000e97d  _ZN7TextCtl18restore_cursor_posEv                                                                                                                                                                                                                                                
0000e953  _ZN7TextCtl9bgd_colorEj                                                                                                                                                                                                                                                          
0000e60f  _ZN8TestTask10draw_inputEi                                                                                                                                                                                                                                                       
0000e62f  _ZN8TestTask10draw_resetEv                                                                                                                                                                                                                                                       
0000e5df  _ZN8TestTask14taskfunwrapperEPv                                                                                                                                                                                                                                                  
0000e5c9  _ZN8TestTask4taskEPS_                                                                                                                                                                                                                                                            
0000e605  _ZN8TestTask9draw_dataEv                                                                                                                                                                                                                                                         
0000e623  _ZN8TestTask9draw_helpEv                                                                                                                                                                                                                                                         
0000e5ed  _ZN8TestTask9draw_pageEv                                                                                                                                                                                                                                                         
0000e599  _ZN8TestTaskC1Ev                                                                                                                                                                                                                                                                 
0000e599  _ZN8TestTaskC2Ev                                                                                                                                                                                                                                                                 
0000e40b  _ZN8UartTaskC1EP15QueueDefinition                                                                                                                                                                                                                                                
0000e40b  _ZN8UartTaskC2EP15QueueDefinition                                                                                                                                                                                                                                                
0000be49  _ZN9IoCtlPage10draw_inputEi                                                                                                                                                                                                                                                      
0000befb  _ZN9IoCtlPage10draw_resetEv                                                                                                                                                                                                                                                      
0000bcf7  _ZN9IoCtlPage9draw_dataEv                                                                                                                                                                                                                                                        
0000bef1  _ZN9IoCtlPage9draw_helpEv                                                                                                                                                                                                                                                        
0000bbc3  _ZN9IoCtlPage9draw_pageEv                                                                                                                                                                                                                                                        
0000bb65  _ZN9IoCtlPageC1EP6GpoObjP6GpiObjP7AdcTask                                                                                                                                                                                                                                        
0000bb65  _ZN9IoCtlPageC2EP6GpoObjP6GpiObjP7AdcTask                                                                                                                                                                                                                                        
0001185b  _ZNKSt3__213__vector_baseIP11ConsolePageNS_9allocatorIS2_EEE7__allocEv                                                                                                                                                                                                           
000111db  _ZNKSt3__213__vector_baseIP11ConsolePageNS_9allocatorIS2_EEE8capacityEv                                                                                                                                                                                                          
00011869  _ZNKSt3__213__vector_baseIP11ConsolePageNS_9allocatorIS2_EEE9__end_capEv                                                                                                                                                                                                         
00011877  _ZNKSt3__213__vector_baseIP6I2cMsgNS_9allocatorIS2_EEE7__allocEv                                                                                                                                                                                                                 
000111f1  _ZNKSt3__213__vector_baseIP6I2cMsgNS_9allocatorIS2_EEE8capacityEv                                                                                                                                                                                                                
00011885  _ZNKSt3__213__vector_baseIP6I2cMsgNS_9allocatorIS2_EEE9__end_capEv                                                                                                                                                                                                               
00011893  _ZNKSt3__213__vector_baseIP6SpiMsgNS_9allocatorIS2_EEE7__allocEv                                                                                                                                                                                                                 
00011207  _ZNKSt3__213__vector_baseIP6SpiMsgNS_9allocatorIS2_EEE8capacityEv                                                                                                                                                                                                                
000118a1  _ZNKSt3__213__vector_baseIP6SpiMsgNS_9allocatorIS2_EEE9__end_capEv                                                                                                                                                                                                               
000118af  _ZNKSt3__213__vector_baseIP7MenuRowNS_9allocatorIS2_EEE7__allocEv                                                                                                                                                                                                                
0001121d  _ZNKSt3__213__vector_baseIP7MenuRowNS_9allocatorIS2_EEE8capacityEv                                                                                                                                                                                                               
000118bd  _ZNKSt3__213__vector_baseIP7MenuRowNS_9allocatorIS2_EEE9__end_capEv                                                                                                                                                                                                              
00011233  _ZNKSt3__214__split_bufferIP11ConsolePageRNS_9allocatorIS2_EEE8capacityEv                                                                                                                                                                                                        
000118cb  _ZNKSt3__214__split_bufferIP11ConsolePageRNS_9allocatorIS2_EEE9__end_capEv                                                                                                                                                                                                       
00011249  _ZNKSt3__214__split_bufferIP6I2cMsgRNS_9allocatorIS2_EEE8capacityEv                                                                                                                                                                                                              
000118d9  _ZNKSt3__214__split_bufferIP6I2cMsgRNS_9allocatorIS2_EEE9__end_capEv                                                                                                                                                                                                             
0001125f  _ZNKSt3__214__split_bufferIP6SpiMsgRNS_9allocatorIS2_EEE8capacityEv                                                                                                                                                                                                              
000118e7  _ZNKSt3__214__split_bufferIP6SpiMsgRNS_9allocatorIS2_EEE9__end_capEv                                                                                                                                                                                                             
00011275  _ZNKSt3__214__split_bufferIP7MenuRowRNS_9allocatorIS2_EEE8capacityEv                                                                                                                                                                                                             
000118f5  _ZNKSt3__214__split_bufferIP7MenuRowRNS_9allocatorIS2_EEE9__end_capEv                                                                                                                                                                                                            
00011b4f  _ZNKSt3__217__compressed_pairIPP11ConsolePageNS_9allocatorIS2_EEE5firstEv                                                                                                                                                                                                        
00011b5b  _ZNKSt3__217__compressed_pairIPP11ConsolePageNS_9allocatorIS2_EEE6secondEv                                                                                                                                                                                                       
00011b67  _ZNKSt3__217__compressed_pairIPP11ConsolePageRNS_9allocatorIS2_EEE5firstEv                                                                                                                                                                                                       
00011b73  _ZNKSt3__217__compressed_pairIPP6I2cMsgNS_9allocatorIS2_EEE5firstEv                                                                                                                                                                                                              
00011b7f  _ZNKSt3__217__compressed_pairIPP6I2cMsgNS_9allocatorIS2_EEE6secondEv                                                                                                                                                                                                             
00011b8b  _ZNKSt3__217__compressed_pairIPP6I2cMsgRNS_9allocatorIS2_EEE5firstEv                                                                                                                                                                                                             
00011b97  _ZNKSt3__217__compressed_pairIPP6SpiMsgNS_9allocatorIS2_EEE5firstEv                                                                                                                                                                                                              
00011ba3  _ZNKSt3__217__compressed_pairIPP6SpiMsgNS_9allocatorIS2_EEE6secondEv                                                                                                                                                                                                             
00011baf  _ZNKSt3__217__compressed_pairIPP6SpiMsgRNS_9allocatorIS2_EEE5firstEv                                                                                                                                                                                                             
00011bbb  _ZNKSt3__217__compressed_pairIPP7MenuRowNS_9allocatorIS2_EEE5firstEv                                                                                                                                                                                                             
00011bc7  _ZNKSt3__217__compressed_pairIPP7MenuRowNS_9allocatorIS2_EEE6secondEv                                                                                                                                                                                                            
00011bd3  _ZNKSt3__217__compressed_pairIPP7MenuRowRNS_9allocatorIS2_EEE5firstEv                                                                                                                                                                                                            
00011be1  _ZNKSt3__220__vector_base_commonILb1EE20__throw_length_errorEv                                                                                                                                                                                                                   
00011bed  _ZNKSt3__222__compressed_pair_elemINS_9allocatorIP11ConsolePageEELi1ELb1EE5__getEv                                                                                                                                                                                               
00011bf9  _ZNKSt3__222__compressed_pair_elemINS_9allocatorIP6I2cMsgEELi1ELb1EE5__getEv                                                                                                                                                                                                     
00011c05  _ZNKSt3__222__compressed_pair_elemINS_9allocatorIP6SpiMsgEELi1ELb1EE5__getEv                                                                                                                                                                                                     
00011c11  _ZNKSt3__222__compressed_pair_elemINS_9allocatorIP7MenuRowEELi1ELb1EE5__getEv                                                                                                                                                                                                    
00011c1d  _ZNKSt3__222__compressed_pair_elemIPP11ConsolePageLi0ELb0EE5__getEv                                                                                                                                                                                                              
00011c29  _ZNKSt3__222__compressed_pair_elemIPP6I2cMsgLi0ELb0EE5__getEv                                                                                                                                                                                                                    
00011c35  _ZNKSt3__222__compressed_pair_elemIPP6SpiMsgLi0ELb0EE5__getEv                                                                                                                                                                                                                    
00011c41  _ZNKSt3__222__compressed_pair_elemIPP7MenuRowLi0ELb0EE5__getEv                                                                                                                                                                                                                   
00011037  _ZNKSt3__26__lessIjjEclERKjS3_                                                                                                                                                                                                                                                   
0000ff9d  _ZNKSt3__26vectorIP11ConsolePageNS_9allocatorIS2_EEE11__recommendEj                                                                                                                                                                                                              
0000fcbb  _ZNKSt3__26vectorIP11ConsolePageNS_9allocatorIS2_EEE14__annotate_newEj                                                                                                                                                                                                           
0000fa61  _ZNKSt3__26vectorIP11ConsolePageNS_9allocatorIS2_EEE17__annotate_deleteEv                                                                                                                                                                                                        
0001161f  _ZNKSt3__26vectorIP11ConsolePageNS_9allocatorIS2_EEE31__annotate_contiguous_containerEPKvS7_S7_S7_                                                                                                                                                                               
00011903  _ZNKSt3__26vectorIP11ConsolePageNS_9allocatorIS2_EEE4dataEv                                                                                                                                                                                                                      
0001128b  _ZNKSt3__26vectorIP11ConsolePageNS_9allocatorIS2_EEE4sizeEv                                                                                                                                                                                                                      
00011c4d  _ZNKSt3__26vectorIP11ConsolePageNS_9allocatorIS2_EEE8capacityEv                                                                                                                                                                                                                  
00010e25  _ZNKSt3__26vectorIP11ConsolePageNS_9allocatorIS2_EEE8max_sizeEv                                                                                                                                                                                                                  
0000ffe7  _ZNKSt3__26vectorIP6I2cMsgNS_9allocatorIS2_EEE11__recommendEj                                                                                                                                                                                                                    
0000fd0f  _ZNKSt3__26vectorIP6I2cMsgNS_9allocatorIS2_EEE14__annotate_newEj                                                                                                                                                                                                                 
0000fab7  _ZNKSt3__26vectorIP6I2cMsgNS_9allocatorIS2_EEE17__annotate_deleteEv                                                                                                                                                                                                              
0000fe5f  _ZNKSt3__26vectorIP6I2cMsgNS_9allocatorIS2_EEE17__annotate_shrinkEj                                                                                                                                                                                                              
0001162f  _ZNKSt3__26vectorIP6I2cMsgNS_9allocatorIS2_EEE31__annotate_contiguous_containerEPKvS7_S7_S7_                                                                                                                                                                                     
00011911  _ZNKSt3__26vectorIP6I2cMsgNS_9allocatorIS2_EEE4dataEv                                                                                                                                                                                                                            
000112a1  _ZNKSt3__26vectorIP6I2cMsgNS_9allocatorIS2_EEE4sizeEv                                                                                                                                                                                                                            
00011c59  _ZNKSt3__26vectorIP6I2cMsgNS_9allocatorIS2_EEE8capacityEv                                                                                                                                                                                                                        
00010e49  _ZNKSt3__26vectorIP6I2cMsgNS_9allocatorIS2_EEE8max_sizeEv                                                                                                                                                                                                                        
00010031  _ZNKSt3__26vectorIP6SpiMsgNS_9allocatorIS2_EEE11__recommendEj                                                                                                                                                                                                                    
0000fd63  _ZNKSt3__26vectorIP6SpiMsgNS_9allocatorIS2_EEE14__annotate_newEj                                                                                                                                                                                                                 
0000fb0d  _ZNKSt3__26vectorIP6SpiMsgNS_9allocatorIS2_EEE17__annotate_deleteEv                                                                                                                                                                                                              
0001163f  _ZNKSt3__26vectorIP6SpiMsgNS_9allocatorIS2_EEE31__annotate_contiguous_containerEPKvS7_S7_S7_                                                                                                                                                                                     
0001191f  _ZNKSt3__26vectorIP6SpiMsgNS_9allocatorIS2_EEE4dataEv                                                                                                                                                                                                                            
000112b7  _ZNKSt3__26vectorIP6SpiMsgNS_9allocatorIS2_EEE4sizeEv                                                                                                                                                                                                                            
00011c65  _ZNKSt3__26vectorIP6SpiMsgNS_9allocatorIS2_EEE8capacityEv                                                                                                                                                                                                                        
00010e6d  _ZNKSt3__26vectorIP6SpiMsgNS_9allocatorIS2_EEE8max_sizeEv                                                                                                                                                                                                                        
0001007b  _ZNKSt3__26vectorIP7MenuRowNS_9allocatorIS2_EEE11__recommendEj                                                                                                                                                                                                                   
0000fdb7  _ZNKSt3__26vectorIP7MenuRowNS_9allocatorIS2_EEE14__annotate_newEj                                                                                                                                                                                                                
0000fb63  _ZNKSt3__26vectorIP7MenuRowNS_9allocatorIS2_EEE17__annotate_deleteEv                                                                                                                                                                                                             
0001164f  _ZNKSt3__26vectorIP7MenuRowNS_9allocatorIS2_EEE31__annotate_contiguous_containerEPKvS7_S7_S7_                                                                                                                                                                                    
0001192d  _ZNKSt3__26vectorIP7MenuRowNS_9allocatorIS2_EEE4dataEv                                                                                                                                                                                                                           
000112cd  _ZNKSt3__26vectorIP7MenuRowNS_9allocatorIS2_EEE4sizeEv                                                                                                                                                                                                                           
00011c71  _ZNKSt3__26vectorIP7MenuRowNS_9allocatorIS2_EEE8capacityEv                                                                                                                                                                                                                       
00010e91  _ZNKSt3__26vectorIP7MenuRowNS_9allocatorIS2_EEE8max_sizeEv                                                                                                                                                                                                                       
0001193b  _ZNKSt3__29allocatorIP11ConsolePageE8max_sizeEv                                                                                                                                                                                                                                  
00011949  _ZNKSt3__29allocatorIP6I2cMsgE8max_sizeEv                                                                                                                                                                                                                                        
00011957  _ZNKSt3__29allocatorIP6SpiMsgE8max_sizeEv                                                                                                                                                                                                                                        
00011965  _ZNKSt3__29allocatorIP7MenuRowE8max_sizeEv                                                                                                                                                                                                                                       
00011c7d  _ZNSt3__210__allocateEj                                                                                                                                                                                                                                                          
00011193  _ZNSt3__210__distanceIPP6I2cMsgEENS_15iterator_traitsIT_E15difference_typeES5_S5_NS_26random_access_iterator_tagE                                                                                                                                                                
00011c89  _ZNSt3__213__unwrap_iterIPP6I2cMsgEET_S4_                                                                                                                                                                                                                                        
00011973  _ZNSt3__213__vector_baseIP11ConsolePageNS_9allocatorIS2_EEE7__allocEv                                                                                                                                                                                                            
00011981  _ZNSt3__213__vector_baseIP11ConsolePageNS_9allocatorIS2_EEE9__end_capEv                                                                                                                                                                                                          
00010bf5  _ZNSt3__213__vector_baseIP11ConsolePageNS_9allocatorIS2_EEEC1Ev                                                                                                                                                                                                                  
00011c95  _ZNSt3__213__vector_baseIP11ConsolePageNS_9allocatorIS2_EEEC2Ev                                                                                                                                                                                                                  
000102f1  _ZNSt3__213__vector_baseIP6I2cMsgNS_9allocatorIS2_EEE17__destruct_at_endEPS2_                                                                                                                                                                                                    
000113a9  _ZNSt3__213__vector_baseIP6I2cMsgNS_9allocatorIS2_EEE19__copy_assign_allocERKS5_                                                                                                                                                                                                 
0001165f  _ZNSt3__213__vector_baseIP6I2cMsgNS_9allocatorIS2_EEE19__copy_assign_allocERKS5_NS_17integral_constantIbLb0EEE                                                                                                                                                                   
0001166f  _ZNSt3__213__vector_baseIP6I2cMsgNS_9allocatorIS2_EEE5clearEv                                                                                                                                                                                                                    
0001198f  _ZNSt3__213__vector_baseIP6I2cMsgNS_9allocatorIS2_EEE7__allocEv                                                                                                                                                                                                                  
0001199d  _ZNSt3__213__vector_baseIP6I2cMsgNS_9allocatorIS2_EEE9__end_capEv                                                                                                                                                                                                                
00010c1d  _ZNSt3__213__vector_baseIP6I2cMsgNS_9allocatorIS2_EEEC1Ev                                                                                                                                                                                                                        
00011ca1  _ZNSt3__213__vector_baseIP6I2cMsgNS_9allocatorIS2_EEEC2Ev                                                                                                                                                                                                                        
000119ab  _ZNSt3__213__vector_baseIP6SpiMsgNS_9allocatorIS2_EEE7__allocEv                                                                                                                                                                                                                  
000119b9  _ZNSt3__213__vector_baseIP6SpiMsgNS_9allocatorIS2_EEE9__end_capEv                                                                                                                                                                                                                
00010c45  _ZNSt3__213__vector_baseIP6SpiMsgNS_9allocatorIS2_EEEC1Ev                                                                                                                                                                                                                        
00011cad  _ZNSt3__213__vector_baseIP6SpiMsgNS_9allocatorIS2_EEEC2Ev                                                                                                                                                                                                                        
000119c7  _ZNSt3__213__vector_baseIP7MenuRowNS_9allocatorIS2_EEE7__allocEv                                                                                                                                                                                                                 
000119d5  _ZNSt3__213__vector_baseIP7MenuRowNS_9allocatorIS2_EEE9__end_capEv                                                                                                                                                                                                               
00010c6d  _ZNSt3__213__vector_baseIP7MenuRowNS_9allocatorIS2_EEEC1Ev                                                                                                                                                                                                                       
00011cb9  _ZNSt3__213__vector_baseIP7MenuRowNS_9allocatorIS2_EEEC2Ev                                                                                                                                                                                                                       
000113bd  _ZNSt3__214__split_bufferIP11ConsolePageRNS_9allocatorIS2_EEE17__destruct_at_endEPS2_                                                                                                                                                                                            
00010645  _ZNSt3__214__split_bufferIP11ConsolePageRNS_9allocatorIS2_EEE17__destruct_at_endEPS2_NS_17integral_constantIbLb0EEE                                                                                                                                                              
0001167f  _ZNSt3__214__split_bufferIP11ConsolePageRNS_9allocatorIS2_EEE5clearEv                                                                                                                                                                                                            
000119e3  _ZNSt3__214__split_bufferIP11ConsolePageRNS_9allocatorIS2_EEE7__allocEv                                                                                                                                                                                                          
000119f1  _ZNSt3__214__split_bufferIP11ConsolePageRNS_9allocatorIS2_EEE9__end_capEv                                                                                                                                                                                                        
0000f775  _ZNSt3__214__split_bufferIP11ConsolePageRNS_9allocatorIS2_EEEC1EjjS5_                                                                                                                                                                                                            
00010885  _ZNSt3__214__split_bufferIP11ConsolePageRNS_9allocatorIS2_EEED1Ev                                                                                                                                                                                                                
000113d1  _ZNSt3__214__split_bufferIP6I2cMsgRNS_9allocatorIS2_EEE17__destruct_at_endEPS2_                                                                                                                                                                                                  
0001067b  _ZNSt3__214__split_bufferIP6I2cMsgRNS_9allocatorIS2_EEE17__destruct_at_endEPS2_NS_17integral_constantIbLb0EEE                                                                                                                                                                    
0001168f  _ZNSt3__214__split_bufferIP6I2cMsgRNS_9allocatorIS2_EEE5clearEv                                                                                                                                                                                                                  
000119ff  _ZNSt3__214__split_bufferIP6I2cMsgRNS_9allocatorIS2_EEE7__allocEv                                                                                                                                                                                                                
00011a0d  _ZNSt3__214__split_bufferIP6I2cMsgRNS_9allocatorIS2_EEE9__end_capEv                                                                                                                                                                                                              
0000f7d5  _ZNSt3__214__split_bufferIP6I2cMsgRNS_9allocatorIS2_EEEC1EjjS5_                                                                                                                                                                                                                  
000108b3  _ZNSt3__214__split_bufferIP6I2cMsgRNS_9allocatorIS2_EEED1Ev                                                                                                                                                                                                                      
000113e5  _ZNSt3__214__split_bufferIP6SpiMsgRNS_9allocatorIS2_EEE17__destruct_at_endEPS2_                                                                                                                                                                                                  
000106b1  _ZNSt3__214__split_bufferIP6SpiMsgRNS_9allocatorIS2_EEE17__destruct_at_endEPS2_NS_17integral_constantIbLb0EEE                                                                                                                                                                    
0001169f  _ZNSt3__214__split_bufferIP6SpiMsgRNS_9allocatorIS2_EEE5clearEv                                                                                                                                                                                                                  
00011a1b  _ZNSt3__214__split_bufferIP6SpiMsgRNS_9allocatorIS2_EEE7__allocEv                                                                                                                                                                                                                
00011a29  _ZNSt3__214__split_bufferIP6SpiMsgRNS_9allocatorIS2_EEE9__end_capEv                                                                                                                                                                                                              
0000f835  _ZNSt3__214__split_bufferIP6SpiMsgRNS_9allocatorIS2_EEEC1EjjS5_                                                                                                                                                                                                                  
000108e1  _ZNSt3__214__split_bufferIP6SpiMsgRNS_9allocatorIS2_EEED1Ev                                                                                                                                                                                                                      
000113f9  _ZNSt3__214__split_bufferIP7MenuRowRNS_9allocatorIS2_EEE17__destruct_at_endEPS2_                                                                                                                                                                                                 
000106e7  _ZNSt3__214__split_bufferIP7MenuRowRNS_9allocatorIS2_EEE17__destruct_at_endEPS2_NS_17integral_constantIbLb0EEE                                                                                                                                                                   
000116af  _ZNSt3__214__split_bufferIP7MenuRowRNS_9allocatorIS2_EEE5clearEv                                                                                                                                                                                                                 
00011a37  _ZNSt3__214__split_bufferIP7MenuRowRNS_9allocatorIS2_EEE7__allocEv                                                                                                                                                                                                               
00011a45  _ZNSt3__214__split_bufferIP7MenuRowRNS_9allocatorIS2_EEE9__end_capEv                                                                                                                                                                                                             
0000f895  _ZNSt3__214__split_bufferIP7MenuRowRNS_9allocatorIS2_EEEC1EjjS5_                                                                                                                                                                                                                 
0001090f  _ZNSt3__214__split_bufferIP7MenuRowRNS_9allocatorIS2_EEED1Ev                                                                                                                                                                                                                     
00011cc5  _ZNSt3__216__to_raw_pointerIP11ConsolePageEEPT_S4_                                                                                                                                                                                                                               
00011cd1  _ZNSt3__216__to_raw_pointerIP6I2cMsgEEPT_S4_                                                                                                                                                                                                                                     
00011cdd  _ZNSt3__216__to_raw_pointerIP6SpiMsgEEPT_S4_                                                                                                                                                                                                                                     
00011ce9  _ZNSt3__216__to_raw_pointerIP7MenuRowEEPT_S4_                                                                                                                                                                                                                                    
000116bf  _ZNSt3__216allocator_traitsINS_9allocatorIP11ConsolePageEEE10__max_sizeENS_17integral_constantIbLb1EEERKS4_                                                                                                                                                                      
0001140d  _ZNSt3__216allocator_traitsINS_9allocatorIP11ConsolePageEEE10deallocateERS4_PS3_j                                                                                                                                                                                                
00010eb5  _ZNSt3__216allocator_traitsINS_9allocatorIP11ConsolePageEEE11__constructIS3_JRKS3_EEEvNS_17integral_constantIbLb1EEERS4_PT_DpOT0_                                                                                                                                                
0001046d  _ZNSt3__216allocator_traitsINS_9allocatorIP11ConsolePageEEE20__construct_backwardIS3_EENS_9enable_ifIXaaoosr3std3__27is_sameIS4_NS1_IT_EEEE5valuentsr3std3__215__has_constructIS4_PS8_JS8_EEE5valuesr3std3__231is_trivially_move_constructibleIS8_EE5valueEvE4typeERS4_SA_SA_RSA_
00011421  _ZNSt3__216allocator_traitsINS_9allocatorIP11ConsolePageEEE7destroyIS3_EEvRS4_PT_                                                                                                                                                                                                
000115c5  _ZNSt3__216allocator_traitsINS_9allocatorIP11ConsolePageEEE8allocateERS4_j                                                                                                                                                                                                       
000116cf  _ZNSt3__216allocator_traitsINS_9allocatorIP11ConsolePageEEE8max_sizeERKS4_                                                                                                                                                                                                       
00011435  _ZNSt3__216allocator_traitsINS_9allocatorIP11ConsolePageEEE9__destroyIS3_EEvNS_17integral_constantIbLb1EEERS4_PT_                                                                                                                                                                
00010ed9  _ZNSt3__216allocator_traitsINS_9allocatorIP11ConsolePageEEE9constructIS3_JRKS3_EEEvRS4_PT_DpOT0_                                                                                                                                                                                 
000116df  _ZNSt3__216allocator_traitsINS_9allocatorIP6I2cMsgEEE10__max_sizeENS_17integral_constantIbLb1EEERKS4_                                                                                                                                                                            
00011449  _ZNSt3__216allocator_traitsINS_9allocatorIP6I2cMsgEEE10deallocateERS4_PS3_j                                                                                                                                                                                                      
00010efd  _ZNSt3__216allocator_traitsINS_9allocatorIP6I2cMsgEEE11__constructIS3_JS3_EEEvNS_17integral_constantIbLb1EEERS4_PT_DpOT0_                                                                                                                                                        
000104a9  _ZNSt3__216allocator_traitsINS_9allocatorIP6I2cMsgEEE20__construct_backwardIS3_EENS_9enable_ifIXaaoosr3std3__27is_sameIS4_NS1_IT_EEEE5valuentsr3std3__215__has_constructIS4_PS8_JS8_EEE5valuesr3std3__231is_trivially_move_constructibleIS8_EE5valueEvE4typeERS4_SA_SA_RSA_      
000104e5  _ZNSt3__216allocator_traitsINS_9allocatorIP6I2cMsgEEE25__construct_range_forwardIS3_EENS_9enable_ifIXaaoosr3std3__27is_sameIS4_NS1_IT_EEEE5valuentsr3std3__215__has_constructIS4_PS8_JS8_EEE5valuesr3std3__231is_trivially_move_constructibleIS8_EE5valueEvE4typeERS4_SA_SA_RSA_ 
0001145d  _ZNSt3__216allocator_traitsINS_9allocatorIP6I2cMsgEEE7destroyIS3_EEvRS4_PT_                                                                                                                                                                                                      
000115d7  _ZNSt3__216allocator_traitsINS_9allocatorIP6I2cMsgEEE8allocateERS4_j                                                                                                                                                                                                             
000116ef  _ZNSt3__216allocator_traitsINS_9allocatorIP6I2cMsgEEE8max_sizeERKS4_                                                                                                                                                                                                             
00011471  _ZNSt3__216allocator_traitsINS_9allocatorIP6I2cMsgEEE9__destroyIS3_EEvNS_17integral_constantIbLb1EEERS4_PT_                                                                                                                                                                      
00010f21  _ZNSt3__216allocator_traitsINS_9allocatorIP6I2cMsgEEE9constructIS3_JS3_EEEvRS4_PT_DpOT0_                                                                                                                                                                                         
000116ff  _ZNSt3__216allocator_traitsINS_9allocatorIP6SpiMsgEEE10__max_sizeENS_17integral_constantIbLb1EEERKS4_                                                                                                                                                                            
00011485  _ZNSt3__216allocator_traitsINS_9allocatorIP6SpiMsgEEE10deallocateERS4_PS3_j                                                                                                                                                                                                      
00010f45  _ZNSt3__216allocator_traitsINS_9allocatorIP6SpiMsgEEE11__constructIS3_JS3_EEEvNS_17integral_constantIbLb1EEERS4_PT_DpOT0_                                                                                                                                                        
00010521  _ZNSt3__216allocator_traitsINS_9allocatorIP6SpiMsgEEE20__construct_backwardIS3_EENS_9enable_ifIXaaoosr3std3__27is_sameIS4_NS1_IT_EEEE5valuentsr3std3__215__has_constructIS4_PS8_JS8_EEE5valuesr3std3__231is_trivially_move_constructibleIS8_EE5valueEvE4typeERS4_SA_SA_RSA_      
00011499  _ZNSt3__216allocator_traitsINS_9allocatorIP6SpiMsgEEE7destroyIS3_EEvRS4_PT_                                                                                                                                                                                                      
000115e9  _ZNSt3__216allocator_traitsINS_9allocatorIP6SpiMsgEEE8allocateERS4_j                                                                                                                                                                                                             
0001170f  _ZNSt3__216allocator_traitsINS_9allocatorIP6SpiMsgEEE8max_sizeERKS4_                                                                                                                                                                                                             
000114ad  _ZNSt3__216allocator_traitsINS_9allocatorIP6SpiMsgEEE9__destroyIS3_EEvNS_17integral_constantIbLb1EEERS4_PT_                                                                                                                                                                      
00010f69  _ZNSt3__216allocator_traitsINS_9allocatorIP6SpiMsgEEE9constructIS3_JS3_EEEvRS4_PT_DpOT0_                                                                                                                                                                                         
0001171f  _ZNSt3__216allocator_traitsINS_9allocatorIP7MenuRowEEE10__max_sizeENS_17integral_constantIbLb1EEERKS4_                                                                                                                                                                           
000114c1  _ZNSt3__216allocator_traitsINS_9allocatorIP7MenuRowEEE10deallocateERS4_PS3_j                                                                                                                                                                                                     
00010f8d  _ZNSt3__216allocator_traitsINS_9allocatorIP7MenuRowEEE11__constructIS3_JRKS3_EEEvNS_17integral_constantIbLb1EEERS4_PT_DpOT0_                                                                                                                                                     
0001055d  _ZNSt3__216allocator_traitsINS_9allocatorIP7MenuRowEEE20__construct_backwardIS3_EENS_9enable_ifIXaaoosr3std3__27is_sameIS4_NS1_IT_EEEE5valuentsr3std3__215__has_constructIS4_PS8_JS8_EEE5valuesr3std3__231is_trivially_move_constructibleIS8_EE5valueEvE4typeERS4_SA_SA_RSA_     
000114d5  _ZNSt3__216allocator_traitsINS_9allocatorIP7MenuRowEEE7destroyIS3_EEvRS4_PT_                                                                                                                                                                                                     
000115fb  _ZNSt3__216allocator_traitsINS_9allocatorIP7MenuRowEEE8allocateERS4_j                                                                                                                                                                                                            
0001172f  _ZNSt3__216allocator_traitsINS_9allocatorIP7MenuRowEEE8max_sizeERKS4_                                                                                                                                                                                                            
000114e9  _ZNSt3__216allocator_traitsINS_9allocatorIP7MenuRowEEE9__destroyIS3_EEvNS_17integral_constantIbLb1EEERS4_PT_                                                                                                                                                                     
00010fb1  _ZNSt3__216allocator_traitsINS_9allocatorIP7MenuRowEEE9constructIS3_JRKS3_EEEvRS4_PT_DpOT0_                                                                                                                                                                                      
00011cf5  _ZNSt3__217__compressed_pairIPP11ConsolePageNS_9allocatorIS2_EEE5firstEv                                                                                                                                                                                                         
00011d01  _ZNSt3__217__compressed_pairIPP11ConsolePageNS_9allocatorIS2_EEE6secondEv                                                                                                                                                                                                        
00011055  _ZNSt3__217__compressed_pairIPP11ConsolePageNS_9allocatorIS2_EEEC1IDnLb1EEEOT_                                                                                                                                                                                                   
00011d0d  _ZNSt3__217__compressed_pairIPP11ConsolePageRNS_9allocatorIS2_EEE5firstEv                                                                                                                                                                                                        
00011a53  _ZNSt3__217__compressed_pairIPP11ConsolePageRNS_9allocatorIS2_EEE6secondEv                                                                                                                                                                                                       
00010a51  _ZNSt3__217__compressed_pairIPP11ConsolePageRNS_9allocatorIS2_EEEC1IDnS6_EEOT_OT0_                                                                                                                                                                                               
00011d19  _ZNSt3__217__compressed_pairIPP6I2cMsgNS_9allocatorIS2_EEE5firstEv                                                                                                                                                                                                               
00011d25  _ZNSt3__217__compressed_pairIPP6I2cMsgNS_9allocatorIS2_EEE6secondEv                                                                                                                                                                                                              
00011073  _ZNSt3__217__compressed_pairIPP6I2cMsgNS_9allocatorIS2_EEEC1IDnLb1EEEOT_                                                                                                                                                                                                         
00011d31  _ZNSt3__217__compressed_pairIPP6I2cMsgRNS_9allocatorIS2_EEE5firstEv                                                                                                                                                                                                              
00011a61  _ZNSt3__217__compressed_pairIPP6I2cMsgRNS_9allocatorIS2_EEE6secondEv                                                                                                                                                                                                             
00010a7b  _ZNSt3__217__compressed_pairIPP6I2cMsgRNS_9allocatorIS2_EEEC1IDnS6_EEOT_OT0_                                                                                                                                                                                                     
00011d3d  _ZNSt3__217__compressed_pairIPP6SpiMsgNS_9allocatorIS2_EEE5firstEv                                                                                                                                                                                                               
00011d49  _ZNSt3__217__compressed_pairIPP6SpiMsgNS_9allocatorIS2_EEE6secondEv                                                                                                                                                                                                              
00011091  _ZNSt3__217__compressed_pairIPP6SpiMsgNS_9allocatorIS2_EEEC1IDnLb1EEEOT_                                                                                                                                                                                                         
00011d55  _ZNSt3__217__compressed_pairIPP6SpiMsgRNS_9allocatorIS2_EEE5firstEv                                                                                                                                                                                                              
00011a6f  _ZNSt3__217__compressed_pairIPP6SpiMsgRNS_9allocatorIS2_EEE6secondEv                                                                                                                                                                                                             
00010aa5  _ZNSt3__217__compressed_pairIPP6SpiMsgRNS_9allocatorIS2_EEEC1IDnS6_EEOT_OT0_                                                                                                                                                                                                     
00011d61  _ZNSt3__217__compressed_pairIPP7MenuRowNS_9allocatorIS2_EEE5firstEv                                                                                                                                                                                                              
00011d6d  _ZNSt3__217__compressed_pairIPP7MenuRowNS_9allocatorIS2_EEE6secondEv                                                                                                                                                                                                             
000110af  _ZNSt3__217__compressed_pairIPP7MenuRowNS_9allocatorIS2_EEEC1IDnLb1EEEOT_                                                                                                                                                                                                        
00011d79  _ZNSt3__217__compressed_pairIPP7MenuRowRNS_9allocatorIS2_EEE5firstEv                                                                                                                                                                                                             
00011a7d  _ZNSt3__217__compressed_pairIPP7MenuRowRNS_9allocatorIS2_EEE6secondEv                                                                                                                                                                                                            
00010acf  _ZNSt3__217__compressed_pairIPP7MenuRowRNS_9allocatorIS2_EEEC1IDnS6_EEOT_OT0_                                                                                                                                                                                                    
00011d85  _ZNSt3__219__libcpp_deallocateEPv                                                                                                                                                                                                                                                
00011f89  _ZNSt3__220__throw_length_errorEPKc                                                                                                                                                                                                                                              
0000682b  _ZNSt3__220__vector_base_commonILb1EEC2Ev                                                                                                                                                                                                                                        
00011d91  _ZNSt3__222__compressed_pair_elemINS_9allocatorIP11ConsolePageEELi1ELb1EE5__getEv                                                                                                                                                                                                
00011a8b  _ZNSt3__222__compressed_pair_elemINS_9allocatorIP11ConsolePageEELi1ELb1EEC1Ev                                                                                                                                                                                                    
00011d9d  _ZNSt3__222__compressed_pair_elemINS_9allocatorIP11ConsolePageEELi1ELb1EEC2Ev                                                                                                                                                                                                    
00011da9  _ZNSt3__222__compressed_pair_elemINS_9allocatorIP6I2cMsgEELi1ELb1EE5__getEv                                                                                                                                                                                                      
00011a99  _ZNSt3__222__compressed_pair_elemINS_9allocatorIP6I2cMsgEELi1ELb1EEC1Ev                                                                                                                                                                                                          
00011db5  _ZNSt3__222__compressed_pair_elemINS_9allocatorIP6I2cMsgEELi1ELb1EEC2Ev                                                                                                                                                                                                          
00011dc1  _ZNSt3__222__compressed_pair_elemINS_9allocatorIP6SpiMsgEELi1ELb1EE5__getEv                                                                                                                                                                                                      
00011aa7  _ZNSt3__222__compressed_pair_elemINS_9allocatorIP6SpiMsgEELi1ELb1EEC1Ev                                                                                                                                                                                                          
00011dcd  _ZNSt3__222__compressed_pair_elemINS_9allocatorIP6SpiMsgEELi1ELb1EEC2Ev                                                                                                                                                                                                          
00011dd9  _ZNSt3__222__compressed_pair_elemINS_9allocatorIP7MenuRowEELi1ELb1EE5__getEv                                                                                                                                                                                                     
00011ab5  _ZNSt3__222__compressed_pair_elemINS_9allocatorIP7MenuRowEELi1ELb1EEC1Ev                                                                                                                                                                                                         
00011de5  _ZNSt3__222__compressed_pair_elemINS_9allocatorIP7MenuRowEELi1ELb1EEC2Ev                                                                                                                                                                                                         
00011df1  _ZNSt3__222__compressed_pair_elemIPP11ConsolePageLi0ELb0EE5__getEv                                                                                                                                                                                                               
000112e3  _ZNSt3__222__compressed_pair_elemIPP11ConsolePageLi0ELb0EEC1IDnvEEOT_                                                                                                                                                                                                            
0001173f  _ZNSt3__222__compressed_pair_elemIPP11ConsolePageLi0ELb0EEC2IDnvEEOT_                                                                                                                                                                                                            
00011dfd  _ZNSt3__222__compressed_pair_elemIPP6I2cMsgLi0ELb0EE5__getEv                                                                                                                                                                                                                     
000112f9  _ZNSt3__222__compressed_pair_elemIPP6I2cMsgLi0ELb0EEC1IDnvEEOT_                                                                                                                                                                                                                  
0001174f  _ZNSt3__222__compressed_pair_elemIPP6I2cMsgLi0ELb0EEC2IDnvEEOT_                                                                                                                                                                                                                  
00011e09  _ZNSt3__222__compressed_pair_elemIPP6SpiMsgLi0ELb0EE5__getEv                                                                                                                                                                                                                     
0001130f  _ZNSt3__222__compressed_pair_elemIPP6SpiMsgLi0ELb0EEC1IDnvEEOT_                                                                                                                                                                                                                  
0001175f  _ZNSt3__222__compressed_pair_elemIPP6SpiMsgLi0ELb0EEC2IDnvEEOT_                                                                                                                                                                                                                  
00011e15  _ZNSt3__222__compressed_pair_elemIPP7MenuRowLi0ELb0EE5__getEv                                                                                                                                                                                                                    
00011325  _ZNSt3__222__compressed_pair_elemIPP7MenuRowLi0ELb0EEC1IDnvEEOT_                                                                                                                                                                                                                 
0001176f  _ZNSt3__222__compressed_pair_elemIPP7MenuRowLi0ELb0EEC2IDnvEEOT_                                                                                                                                                                                                                 
00011ac3  _ZNSt3__222__compressed_pair_elemIRNS_9allocatorIP11ConsolePageEELi1ELb0EE5__getEv                                                                                                                                                                                               
000114fd  _ZNSt3__222__compressed_pair_elemIRNS_9allocatorIP11ConsolePageEELi1ELb0EEC1IS5_vEEOT_                                                                                                                                                                                           
0001177f  _ZNSt3__222__compressed_pair_elemIRNS_9allocatorIP11ConsolePageEELi1ELb0EEC2IS5_vEEOT_                                                                                                                                                                                           
00011ad1  _ZNSt3__222__compressed_pair_elemIRNS_9allocatorIP6I2cMsgEELi1ELb0EE5__getEv                                                                                                                                                                                                     
00011511  _ZNSt3__222__compressed_pair_elemIRNS_9allocatorIP6I2cMsgEELi1ELb0EEC1IS5_vEEOT_                                                                                                                                                                                                 
0001178f  _ZNSt3__222__compressed_pair_elemIRNS_9allocatorIP6I2cMsgEELi1ELb0EEC2IS5_vEEOT_                                                                                                                                                                                                 
00011adf  _ZNSt3__222__compressed_pair_elemIRNS_9allocatorIP6SpiMsgEELi1ELb0EE5__getEv                                                                                                                                                                                                     
00011525  _ZNSt3__222__compressed_pair_elemIRNS_9allocatorIP6SpiMsgEELi1ELb0EEC1IS5_vEEOT_                                                                                                                                                                                                 
0001179f  _ZNSt3__222__compressed_pair_elemIRNS_9allocatorIP6SpiMsgEELi1ELb0EEC2IS5_vEEOT_                                                                                                                                                                                                 
00011aed  _ZNSt3__222__compressed_pair_elemIRNS_9allocatorIP7MenuRowEELi1ELb0EE5__getEv                                                                                                                                                                                                    
00011539  _ZNSt3__222__compressed_pair_elemIRNS_9allocatorIP7MenuRowEELi1ELb0EEC1IS5_vEEOT_                                                                                                                                                                                                
000117af  _ZNSt3__222__compressed_pair_elemIRNS_9allocatorIP7MenuRowEELi1ELb0EEC2IS5_vEEOT_                                                                                                                                                                                                
0001154d  _ZNSt3__23maxIjEERKT_S3_S3_                                                                                                                                                                                                                                                      
000110cd  _ZNSt3__23maxIjNS_6__lessIjjEEEERKT_S5_S5_T0_                                                                                                                                                                                                                                    
00011561  _ZNSt3__23minIjEERKT_S3_S3_                                                                                                                                                                                                                                                      
000110eb  _ZNSt3__23minIjNS_6__lessIjjEEEERKT_S5_S5_T0_                                                                                                                                                                                                                                    
00010af9  _ZNSt3__24copyIPP6I2cMsgS3_EET0_T_S5_S4_                                                                                                                                                                                                                                         
00011e21  _ZNSt3__24moveIRP6I2cMsgEEONS_16remove_referenceIT_E4typeEOS5_                                                                                                                                                                                                                   
00011e2d  _ZNSt3__24moveIRP6SpiMsgEEONS_16remove_referenceIT_E4typeEOS5_                                                                                                                                                                                                                   
00011e39  _ZNSt3__24moveIRPP11ConsolePageEEONS_16remove_referenceIT_E4typeEOS6_                                                                                                                                                                                                            
00011e45  _ZNSt3__24moveIRPP6I2cMsgEEONS_16remove_referenceIT_E4typeEOS6_                                                                                                                                                                                                                  
00011e51  _ZNSt3__24moveIRPP6SpiMsgEEONS_16remove_referenceIT_E4typeEOS6_                                                                                                                                                                                                                  
00011e5d  _ZNSt3__24moveIRPP7MenuRowEEONS_16remove_referenceIT_E4typeEOS6_                                                                                                                                                                                                                 
00010b23  _ZNSt3__24swapIPP11ConsolePageEENS_9enable_ifIXaasr3std3__221is_move_constructibleIT_EE5valuesr3std3__218is_move_assignableIS5_EE5valueEvE4typeERS5_S8_                                                                                                                          
00010b4d  _ZNSt3__24swapIPP6I2cMsgEENS_9enable_ifIXaasr3std3__221is_move_constructibleIT_EE5valuesr3std3__218is_move_assignableIS5_EE5valueEvE4typeERS5_S8_                                                                                                                                
00010b77  _ZNSt3__24swapIPP6SpiMsgEENS_9enable_ifIXaasr3std3__221is_move_constructibleIT_EE5valuesr3std3__218is_move_assignableIS5_EE5valueEvE4typeERS5_S8_                                                                                                                                
00010ba1  _ZNSt3__24swapIPP7MenuRowEENS_9enable_ifIXaasr3std3__221is_move_constructibleIT_EE5valuesr3std3__218is_move_assignableIS5_EE5valueEvE4typeERS5_S8_                                                                                                                               
000107f1  _ZNSt3__26__copyIP6I2cMsgS2_EENS_9enable_ifIXaasr3std3__27is_sameINS_12remove_constIT_E4typeET0_EE5valuesr3std3__228is_trivially_copy_assignableIS8_EE5valueEPS8_E4typeEPS5_SC_S9_                                                                                               
0000f395  _ZNSt3__26vectorIP11ConsolePageNS_9allocatorIS2_EEE21__push_back_slow_pathIRKS2_EEvOT_                                                                                                                                                                                           
00011f93  _ZNSt3__26vectorIP11ConsolePageNS_9allocatorIS2_EEE24__RAII_IncreaseAnnotator6__doneEv                                                                                                                                                                                           
000117bf  _ZNSt3__26vectorIP11ConsolePageNS_9allocatorIS2_EEE24__RAII_IncreaseAnnotatorC1ERKS5_j                                                                                                                                                                                           
00011f9d  _ZNSt3__26vectorIP11ConsolePageNS_9allocatorIS2_EEE26__invalidate_all_iteratorsEv                                                                                                                                                                                                
0000f115  _ZNSt3__26vectorIP11ConsolePageNS_9allocatorIS2_EEE26__swap_out_circular_bufferERNS_14__split_bufferIS2_RS4_EE                                                                                                                                                                   
0000fbb9  _ZNSt3__26vectorIP11ConsolePageNS_9allocatorIS2_EEE9push_backERKS2_                                                                                                                                                                                                              
00011afb  _ZNSt3__26vectorIP11ConsolePageNS_9allocatorIS2_EEEC1Ev                                                                                                                                                                                                                          
0001133b  _ZNSt3__26vectorIP11ConsolePageNS_9allocatorIS2_EEEixEj                                                                                                                                                                                                                          
00010331  _ZNSt3__26vectorIP6I2cMsgNS_9allocatorIS2_EEE10deallocateEv                                                                                                                                                                                                                      
00010c95  _ZNSt3__26vectorIP6I2cMsgNS_9allocatorIS2_EEE17__destruct_at_endEPS2_                                                                                                                                                                                                            
000105d5  _ZNSt3__26vectorIP6I2cMsgNS_9allocatorIS2_EEE18__construct_at_endIPS2_EENS_9enable_ifIXsr3std3__221__is_forward_iteratorIT_EE5valueEvE4typeES9_S9_j                                                                                                                              
0000f3f9  _ZNSt3__26vectorIP6I2cMsgNS_9allocatorIS2_EEE21__push_back_slow_pathIS2_EEvOT_                                                                                                                                                                                                   
00011fa7  _ZNSt3__26vectorIP6I2cMsgNS_9allocatorIS2_EEE24__RAII_IncreaseAnnotator6__doneEv                                                                                                                                                                                                 
000117cf  _ZNSt3__26vectorIP6I2cMsgNS_9allocatorIS2_EEE24__RAII_IncreaseAnnotatorC1ERKS5_j                                                                                                                                                                                                 
00011fb1  _ZNSt3__26vectorIP6I2cMsgNS_9allocatorIS2_EEE26__invalidate_all_iteratorsEv                                                                                                                                                                                                      
0000f181  _ZNSt3__26vectorIP6I2cMsgNS_9allocatorIS2_EEE26__swap_out_circular_bufferERNS_14__split_bufferIS2_RS4_EE                                                                                                                                                                         
00011e69  _ZNSt3__26vectorIP6I2cMsgNS_9allocatorIS2_EEE27__invalidate_iterators_pastEPS2_                                                                                                                                                                                                  
00010fd5  _ZNSt3__26vectorIP6I2cMsgNS_9allocatorIS2_EEE5clearEv                                                                                                                                                                                                                            
0000eb6f  _ZNSt3__26vectorIP6I2cMsgNS_9allocatorIS2_EEE6assignIPS2_EENS_9enable_ifIXaasr3std3__221__is_forward_iteratorIT_EE5valuesr3std3__216is_constructibleIS2_JNS_15iterator_traitsIS9_E9referenceEEEE5valueEvE4typeES9_S9_                                                            
000100c5  _ZNSt3__26vectorIP6I2cMsgNS_9allocatorIS2_EEE8allocateEj                                                                                                                                                                                                                         
0000f5ed  _ZNSt3__26vectorIP6I2cMsgNS_9allocatorIS2_EEE9push_backEOS2_                                                                                                                                                                                                                     
00011b09  _ZNSt3__26vectorIP6I2cMsgNS_9allocatorIS2_EEEC1Ev                                                                                                                                                                                                                                
00010cbd  _ZNSt3__26vectorIP6I2cMsgNS_9allocatorIS2_EEEaSERKS5_                                                                                                                                                                                                                            
00011351  _ZNSt3__26vectorIP6I2cMsgNS_9allocatorIS2_EEEixEj                                                                                                                                                                                                                                
0000f45d  _ZNSt3__26vectorIP6SpiMsgNS_9allocatorIS2_EEE21__push_back_slow_pathIS2_EEvOT_                                                                                                                                                                                                   
00011fbb  _ZNSt3__26vectorIP6SpiMsgNS_9allocatorIS2_EEE24__RAII_IncreaseAnnotator6__doneEv                                                                                                                                                                                                 
000117df  _ZNSt3__26vectorIP6SpiMsgNS_9allocatorIS2_EEE24__RAII_IncreaseAnnotatorC1ERKS5_j                                                                                                                                                                                                 
00011fc5  _ZNSt3__26vectorIP6SpiMsgNS_9allocatorIS2_EEE26__invalidate_all_iteratorsEv                                                                                                                                                                                                      
0000f1ed  _ZNSt3__26vectorIP6SpiMsgNS_9allocatorIS2_EEE26__swap_out_circular_bufferERNS_14__split_bufferIS2_RS4_EE                                                                                                                                                                         
0000f64f  _ZNSt3__26vectorIP6SpiMsgNS_9allocatorIS2_EEE9push_backEOS2_                                                                                                                                                                                                                     
00011b17  _ZNSt3__26vectorIP6SpiMsgNS_9allocatorIS2_EEEC1Ev                                                                                                                                                                                                                                
00011367  _ZNSt3__26vectorIP6SpiMsgNS_9allocatorIS2_EEEixEj                                                                                                                                                                                                                                
0000f4c1  _ZNSt3__26vectorIP7MenuRowNS_9allocatorIS2_EEE21__push_back_slow_pathIRKS2_EEvOT_                                                                                                                                                                                                
00011fcf  _ZNSt3__26vectorIP7MenuRowNS_9allocatorIS2_EEE24__RAII_IncreaseAnnotator6__doneEv                                                                                                                                                                                                
000117ef  _ZNSt3__26vectorIP7MenuRowNS_9allocatorIS2_EEE24__RAII_IncreaseAnnotatorC1ERKS5_j                                                                                                                                                                                                
00011fd9  _ZNSt3__26vectorIP7MenuRowNS_9allocatorIS2_EEE26__invalidate_all_iteratorsEv                                                                                                                                                                                                     
0000f259  _ZNSt3__26vectorIP7MenuRowNS_9allocatorIS2_EEE26__swap_out_circular_bufferERNS_14__split_bufferIS2_RS4_EE                                                                                                                                                                        
0000fc0f  _ZNSt3__26vectorIP7MenuRowNS_9allocatorIS2_EEE9push_backERKS2_                                                                                                                                                                                                                   
00011b25  _ZNSt3__26vectorIP7MenuRowNS_9allocatorIS2_EEEC1Ev                                                                                                                                                                                                                               
0001137d  _ZNSt3__26vectorIP7MenuRowNS_9allocatorIS2_EEEixEj                                                                                                                                                                                                                               
00011575  _ZNSt3__27advanceIPP6I2cMsgEEvRT_NS_15iterator_traitsIS4_E15difference_typeE                                                                                                                                                                                                     
00011e75  _ZNSt3__27forwardIDnEEOT_RNS_16remove_referenceIS1_E4typeE                                                                                                                                                                                                                       
00011e81  _ZNSt3__27forwardIP6I2cMsgEEOT_RNS_16remove_referenceIS3_E4typeE                                                                                                                                                                                                                 
00011e8d  _ZNSt3__27forwardIP6SpiMsgEEOT_RNS_16remove_referenceIS3_E4typeE                                                                                                                                                                                                                 
00011e99  _ZNSt3__27forwardIRKP11ConsolePageEEOT_RNS_16remove_referenceIS5_E4typeE                                                                                                                                                                                                         
00011ea5  _ZNSt3__27forwardIRKP7MenuRowEEOT_RNS_16remove_referenceIS5_E4typeE                                                                                                                                                                                                              
00011eb1  _ZNSt3__27forwardIRNS_9allocatorIP11ConsolePageEEEEOT_RNS_16remove_referenceIS6_E4typeE                                                                                                                                                                                          
00011ebd  _ZNSt3__27forwardIRNS_9allocatorIP6I2cMsgEEEEOT_RNS_16remove_referenceIS6_E4typeE                                                                                                                                                                                                
00011ec9  _ZNSt3__27forwardIRNS_9allocatorIP6SpiMsgEEEEOT_RNS_16remove_referenceIS6_E4typeE                                                                                                                                                                                                
00011ed5  _ZNSt3__27forwardIRNS_9allocatorIP7MenuRowEEEEOT_RNS_16remove_referenceIS6_E4typeE                                                                                                                                                                                               
00011589  _ZNSt3__28distanceIPP6I2cMsgEENS_15iterator_traitsIT_E15difference_typeES5_S5_                                                                                                                                                                                                   
00011109  _ZNSt3__29__advanceIPP6I2cMsgEEvRT_NS_15iterator_traitsIS4_E15difference_typeENS_26random_access_iterator_tagE                                                                                                                                                                   
000117ff  _ZNSt3__29allocatorIP11ConsolePageE10deallocateEPS2_j                                                                                                                                                                                                                            
00011ee1  _ZNSt3__29allocatorIP11ConsolePageE7destroyEPS2_                                                                                                                                                                                                                                 
00010ce5  _ZNSt3__29allocatorIP11ConsolePageE8allocateEjPKv                                                                                                                                                                                                                                
0001093d  _ZNSt3__29allocatorIP11ConsolePageE9constructIS2_JRKS2_EEEvPT_DpOT0_                                                                                                                                                                                                             
00011eed  _ZNSt3__29allocatorIP11ConsolePageEC1Ev                                                                                                                                                                                                                                          
00011ef9  _ZNSt3__29allocatorIP11ConsolePageEC2Ev                                                                                                                                                                                                                                          
0001180f  _ZNSt3__29allocatorIP6I2cMsgE10deallocateEPS2_j                                                                                                                                                                                                                                  
00011f05  _ZNSt3__29allocatorIP6I2cMsgE7destroyEPS2_                                                                                                                                                                                                                                       
00010d0d  _ZNSt3__29allocatorIP6I2cMsgE8allocateEjPKv                                                                                                                                                                                                                                      
0001096b  _ZNSt3__29allocatorIP6I2cMsgE9constructIS2_JS2_EEEvPT_DpOT0_                                                                                                                                                                                                                     
00011f11  _ZNSt3__29allocatorIP6I2cMsgEC1Ev                                                                                                                                                                                                                                                
00011f1d  _ZNSt3__29allocatorIP6I2cMsgEC2Ev                                                                                                                                                                                                                                                
0001181f  _ZNSt3__29allocatorIP6SpiMsgE10deallocateEPS2_j                                                                                                                                                                                                                                  
00011f29  _ZNSt3__29allocatorIP6SpiMsgE7destroyEPS2_                                                                                                                                                                                                                                       
00010d35  _ZNSt3__29allocatorIP6SpiMsgE8allocateEjPKv                                                                                                                                                                                                                                      
00010999  _ZNSt3__29allocatorIP6SpiMsgE9constructIS2_JS2_EEEvPT_DpOT0_                                                                                                                                                                                                                     
00011f35  _ZNSt3__29allocatorIP6SpiMsgEC1Ev                                                                                                                                                                                                                                                
00011f41  _ZNSt3__29allocatorIP6SpiMsgEC2Ev                                                                                                                                                                                                                                                
0001182f  _ZNSt3__29allocatorIP7MenuRowE10deallocateEPS2_j                                                                                                                                                                                                                                 
00011f4d  _ZNSt3__29allocatorIP7MenuRowE7destroyEPS2_                                                                                                                                                                                                                                      
00010d5d  _ZNSt3__29allocatorIP7MenuRowE8allocateEjPKv                                                                                                                                                                                                                                     
000109c7  _ZNSt3__29allocatorIP7MenuRowE9constructIS2_JRKS2_EEEvPT_DpOT0_                                                                                                                                                                                                                  
00011f59  _ZNSt3__29allocatorIP7MenuRowEC1Ev                                                                                                                                                                                                                                               
00011f65  _ZNSt3__29allocatorIP7MenuRowEC2Ev                                                                                                                                                                                                                                               
0000727b  _ZNSt9type_infoD1Ev                                                                                                                                                                                                                                                              
0000727b  _ZNSt9type_infoD2Ev                                                                                                                                                                                                                                                              
0001201d  _ZSt17__throw_bad_allocv                                                                                                                                                                                                                                                         
00012be8  _ZTI10SpiCmdTask                                                                                                                                                                                                                                                                 
00012cd0  _ZTI11ConsolePage                                                                                                                                                                                                                                                                
00012bf4  _ZTI11ConsoleTask                                                                                                                                                                                                                                                                
00012c00  _ZTI11ErrorLogger                                                                                                                                                                                                                                                                
00012c0c  _ZTI11MenuOptions                                                                                                                                                                                                                                                                
00012c18  _ZTI11TaskManager                                                                                                                                                                                                                                                                
00012c24  _ZTI14I2cMonitorTask                                                                                                                                                                                                                                                             
00012c30  _ZTI14I2cSnifferTask                                                                                                                                                                                                                                                             
00012c3c  _ZTI15I2cScripterTask                                                                                                                                                                                                                                                            
00012c48  _ZTI7I2cTask                                                                                                                                                                                                                                                                     
00012c54  _ZTI7PWMpage                                                                                                                                                                                                                                                                     
00012c60  _ZTI8TestTask                                                                                                                                                                                                                                                                    
00012c6c  _ZTI9IoCtlPage                                                                                                                                                                                                                                                                   
00012c78  _ZTIN10__cxxabiv117__class_type_infoE                                                                                                                                                                                                                                            
00012c84  _ZTIN10__cxxabiv120__si_class_type_infoE                                                                                                                                                                                                                                         
00012cd8  _ZTISt9type_info                                                                                                                                                                                                                                                                 
00012bcc  _ZTS10SpiCmdTask                                                                                                                                                                                                                                                                 
00012b86  _ZTS11ConsolePage                                                                                                                                                                                                                                                                
00012b94  _ZTS11ConsoleTask                                                                                                                                                                                                                                                                
00012ba2  _ZTS11ErrorLogger                                                                                                                                                                                                                                                                
00012bb0  _ZTS11MenuOptions                                                                                                                                                                                                                                                                
00012bbe  _ZTS11TaskManager                                                                                                                                                                                                                                                                
00012b24  _ZTS14I2cMonitorTask                                                                                                                                                                                                                                                             
00012b35  _ZTS14I2cSnifferTask                                                                                                                                                                                                                                                             
00012b12  _ZTS15I2cScripterTask                                                                                                                                                                                                                                                            
00012cbd  _ZTS7I2cTask                                                                                                                                                                                                                                                                     
00012cc6  _ZTS7PWMpage                                                                                                                                                                                                                                                                     
00012cb3  _ZTS8TestTask                                                                                                                                                                                                                                                                    
00012ca8  _ZTS9IoCtlPage                                                                                                                                                                                                                                                                   
000128aa  _ZTSN10__cxxabiv117__class_type_infoE                                                                                                                                                                                                                                            
0001283c  _ZTSN10__cxxabiv120__si_class_type_infoE                                                                                                                                                                                                                                         
00012bd9  _ZTSSt9type_info                                                                                                                                                                                                                                                                 
0001292c  _ZTV10SpiCmdTask                                                                                                                                                                                                                                                                 
00012948  _ZTV11ConsolePage                                                                                                                                                                                                                                                                
00012964  _ZTV11ConsoleTask                                                                                                                                                                                                                                                                
00012980  _ZTV11ErrorLogger                                                                                                                                                                                                                                                                
0001299c  _ZTV11MenuOptions                                                                                                                                                                                                                                                                
000129b8  _ZTV11TaskManager                                                                                                                                                                                                                                                                
000129d4  _ZTV14I2cMonitorTask                                                                                                                                                                                                                                                             
000129f0  _ZTV14I2cSnifferTask                                                                                                                                                                                                                                                             
00012a0c  _ZTV15I2cScripterTask                                                                                                                                                                                                                                                            
00012a28  _ZTV7I2cTask                                                                                                                                                                                                                                                                     
00012a44  _ZTV7PWMpage                                                                                                                                                                                                                                                                     
00012a60  _ZTV8TestTask                                                                                                                                                                                                                                                                    
00012a7c  _ZTV9IoCtlPage                                                                                                                                                                                                                                                                   
00012b48  _ZTVN10__cxxabiv117__class_type_infoE                                                                                                                                                                                                                                            
00012b58  _ZTVN10__cxxabiv120__si_class_type_infoE                                                                                                                                                                                                                                         
00012cf0  _ZZNKSt3__220__vector_base_commonILb1EE20__throw_length_errorEvEs                                                                                                                                                                                                                
0001260c  _ZZNSt3__29allocatorIP11ConsolePageE8allocateEjPKvEs                                                                                                                                                                                                                             
00012650  _ZZNSt3__29allocatorIP6I2cMsgE8allocateEjPKvEs                                                                                                                                                                                                                                   
00012694  _ZZNSt3__29allocatorIP6SpiMsgE8allocateEjPKvEs                                                                                                                                                                                                                                   
000126d8  _ZZNSt3__29allocatorIP7MenuRowE8allocateEjPKvEs                                                                                                                                                                                                                                  
00010879  _ZdaPv                                                                                                                                                                                                                                                                           
0001086d  _ZdlPv                                                                                                                                                                                                                                                                           
00012011  _ZdlPvj                                                                                                                                                                                                                                                                          
00010861  _Znaj                                                                                                                                                                                                                                                                            
00010855  _Znwj                                                                                                                                                                                                                                                                            
00011b33  _ZnwjPv                                                                                                                                                                                                                                                                          
2000431c  __CIOBUF_                                                                                                                                                                                                                                                                        
20004e10  __STACK_END                                                                                                                                                                                                                                                                      
00000800  __STACK_SIZE                                                                                                                                                                                                                                                                     
20004810  __STACK_TOP                                                                                                                                                                                                                                                                      
00000010  __SYSMEM_SIZE                                                                                                                                                                                                                                                                    
00012e70  __TI_CINIT_Base                                                                                                                                                                                                                                                                  
00012e88  __TI_CINIT_Limit                                                                                                                                                                                                                                                                 
00012e54  __TI_Handler_Table_Base                                                                                                                                                                                                                                                          
00012e60  __TI_Handler_Table_Limit                                                                                                                                                                                                                                                         
00010225  __TI_auto_init_nobinit_nopinit                                                                                                                                                                                                                                                   
00010755  __TI_cleanup                                                                                                                                                                                                                                                                     
20005138  __TI_cleanup_ptr                                                                                                                                                                                                                                                                 
0000ef55  __TI_closefile                                                                                                                                                                                                                                                                   
0000f32d  __TI_decompress_lzss                                                                                                                                                                                                                                                             
00011b41  __TI_decompress_none                                                                                                                                                                                                                                                             
0000ff03  __TI_doflush                                                                                                                                                                                                                                                                     
2000513c  __TI_dtors_ptr                                                                                                                                                                                                                                                                   
20005140  __TI_enable_exit_profile_output                                                                                                                                                                                                                                                  
20005128  __TI_ft_end                                                                                                                                                                                                                                                                      
0000fe0b  __TI_ltoa                                                                                                                                                                                                                                                                        
ffffffff  __TI_pprof_out_hndl                                                                                                                                                                                                                                                              
0000682d  __TI_printfi                                                                                                                                                                                                                                                                     
ffffffff  __TI_prof_data_size                                                                                                                                                                                                                                                              
ffffffff  __TI_prof_data_start                                                                                                                                                                                                                                                             
00010789  __TI_readmsg                                                                                                                                                                                                                                                                     
00000000  __TI_static_base__                                                                                                                                                                                                                                                               
2000443c  __TI_tmpnams                                                                                                                                                                                                                                                                     
0001060d  __TI_writemsg                                                                                                                                                                                                                                                                    
0000f6b1  __TI_wrt_ok                                                                                                                                                                                                                                                                      
00011f71  __TI_zero_init                                                                                                                                                                                                                                                                   
00012015  __abort_execution                                                                                                                                                                                                                                                                
0000ed51  __aeabi_cdcmpeq                                                                                                                                                                                                                                                                  
0000ed51  __aeabi_cdcmple                                                                                                                                                                                                                                                                  
0000edd7  __aeabi_cdrcmple                                                                                                                                                                                                                                                                 
00010155  __aeabi_d2iz                                                                                                                                                                                                                                                                     
000102ad  __aeabi_d2uiz                                                                                                                                                                                                                                                                    
0000da0f  __aeabi_dadd                                                                                                                                                                                                                                                                     
0000dcf9  __aeabi_ddiv                                                                                                                                                                                                                                                                     
0000e49d  __aeabi_dmul                                                                                                                                                                                                                                                                     
0000da05  __aeabi_dsub                                                                                                                                                                                                                                                                     
00011fed  __aeabi_errno_addr                                                                                                                                                                                                                                                               
000109f5  __aeabi_i2d                                                                                                                                                                                                                                                                      
00008e57  __aeabi_idiv0                                                                                                                                                                                                                                                                    
00008e57  __aeabi_ldiv0                                                                                                                                                                                                                                                                    
0000eed9  __aeabi_memclr                                                                                                                                                                                                                                                                   
0000eed9  __aeabi_memclr4                                                                                                                                                                                                                                                                  
0000eed9  __aeabi_memclr8                                                                                                                                                                                                                                                                  
0000ec1f  __aeabi_memcpy                                                                                                                                                                                                                                                                   
0000ec1f  __aeabi_memcpy4                                                                                                                                                                                                                                                                  
0000ec1f  __aeabi_memcpy8                                                                                                                                                                                                                                                                  
0000eedb  __aeabi_memset                                                                                                                                                                                                                                                                   
0000eedb  __aeabi_memset4                                                                                                                                                                                                                                                                  
0000eedb  __aeabi_memset8                                                                                                                                                                                                                                                                  
20005134  __aeabi_stderr                                                                                                                                                                                                                                                                   
2000512c  __aeabi_stdin                                                                                                                                                                                                                                                                    
20005130  __aeabi_stdout                                                                                                                                                                                                                                                                   
00011017  __aeabi_ui2d                                                                                                                                                                                                                                                                     
00010371  __aeabi_uidiv                                                                                                                                                                                                                                                                    
00010371  __aeabi_uidivmod                                                                                                                                                                                                                                                                 
0000ecbb  __aeabi_uldivmod                                                                                                                                                                                                                                                                 
ffffffff  __binit__                                                                                                                                                                                                                                                                        
ffffffff  __c_args__                                                                                                                                                                                                                                                                       
00012003  __cxa_pure_virtual                                                                                                                                                                                                                                                               
UNDEFED   __mpu_init                                                                                                                                                                                                                                                                       
20004610  __stack                                                                                                                                                                                                                                                                          
20000000  __start___llvm_prf_cnts                                                                                                                                                                                                                                                          
20000000  __stop___llvm_prf_cnts                                                                                                                                                                                                                                                           
00011125  _abort_msg                                                                                                                                                                                                                                                                       
000107bd  _c_int00_noargs                                                                                                                                                                                                                                                                  
00012140  _ctypes_                                                                                                                                                                                                                                                                         
20004f00  _device                                                                                                                                                                                                                                                                          
20004e10  _ftable                                                                                                                                                                                                                                                                          
2000515c  _lock                                                                                                                                                                                                                                                                            
00007a3f  _nop                                                                                                                                                                                                                                                                             
20004f78  _stream                                                                                                                                                                                                                                                                          
200051c8  _sys_memory                                                                                                                                                                                                                                                                      
UNDEFED   _system_post_cinit                                                                                                                                                                                                                                                               
00012019  _system_pre_init                                                                                                                                                                                                                                                                 
20005160  _unlock                                                                                                                                                                                                                                                                          
0001201d  abort                                                                                                                                                                                                                                                                            
2000516c  adc_pin_struct                                                                                                                                                                                                                                                                   
0000e2a1  aligned_alloc                                                                                                                                                                                                                                                                    
0000ff51  atoi                                                                                                                                                                                                                                                                             
200045e4  bin_string                                                                                                                                                                                                                                                                       
ffffffff  binit                                                                                                                                                                                                                                                                            
2000517c  board_gpi_info                                                                                                                                                                                                                                                                   
2000518c  board_gpo_info                                                                                                                                                                                                                                                                   
20005194  board_pwm_info                                                                                                                                                                                                                                                                   
0000f955  close                                                                                                                                                                                                                                                                            
00011179  copysign                                                                                                                                                                                                                                                                         
00011179  copysignl                                                                                                                                                                                                                                                                        
000006a5  eTaskGetState                                                                                                                                                                                                                                                                    
200051c4  errno                                                                                                                                                                                                                                                                            
0001010d  exit                                                                                                                                                                                                                                                                             
0000ee5d  fflush                                                                                                                                                                                                                                                                           
00010825  finddevice                                                                                                                                                                                                                                                                       
0000e07d  fputs                                                                                                                                                                                                                                                                            
0000e68d  free                                                                                                                                                                                                                                                                             
0000f525  frexp                                                                                                                                                                                                                                                                            
0000f525  frexpl                                                                                                                                                                                                                                                                           
0000f589  fseek                                                                                                                                                                                                                                                                            
20000000  g_pfnRAMVectors                                                                                                                                                                                                                                                                  
00000000  g_pfnVectors                                                                                                                                                                                                                                                                     
00010269  getdevice                                                                                                                                                                                                                                                                        
200051a4  i2c_speed_menu                                                                                                                                                                                                                                                                   
200051bc  i2c_speed_name                                                                                                                                                                                                                                                                   
0000e191  ldexp                                                                                                                                                                                                                                                                            
0000e191  ldexpl                                                                                                                                                                                                                                                                           
00010dad  lseek                                                                                                                                                                                                                                                                            
00010599  main                                                                                                                                                                                                                                                                             
00011ff5  malloc                                                                                                                                                                                                                                                                           
0000e2a1  memalign                                                                                                                                                                                                                                                                         
0001115d  memccpy                                                                                                                                                                                                                                                                          
00010ff7  memchr                                                                                                                                                                                                                                                                           
0000ec1f  memcpy                                                                                                                                                                                                                                                                           
00010dd5  memmove                                                                                                                                                                                                                                                                          
0000eee1  memset                                                                                                                                                                                                                                                                           
20004600  parmbuf                                                                                                                                                                                                                                                                          
0000419d  pcQueueGetName                                                                                                                                                                                                                                                                   
00000d49  pcTaskGetName                                                                                                                                                                                                                                                                    
0000af4d  pvPortMalloc                                                                                                                                                                                                                                                                     
00001a85  pvTaskIncrementMutexHeldCount                                                                                                                                                                                                                                                    
20004fc8  pxCurrentTCB                                                                                                                                                                                                                                                                     
0000cccd  pxPortInitialiseStack                                                                                                                                                                                                                                                            
00010a25  remove                                                                                                                                                                                                                                                                           
0000e191  scalbn                                                                                                                                                                                                                                                                           
0000e191  scalbnl                                                                                                                                                                                                                                                                          
0000e771  setvbuf                                                                                                                                                                                                                                                                          
000103b1  sprintf                                                                                                                                                                                                                                                                          
00011393  strchr                                                                                                                                                                                                                                                                           
000111c3  strcmp                                                                                                                                                                                                                                                                           
0001159d  strcpy                                                                                                                                                                                                                                                                           
000115b1  strlen                                                                                                                                                                                                                                                                           
0001071d  strncpy                                                                                                                                                                                                                                                                          
2000026c  ucHeap                                                                                                                                                                                                                                                                           
00003ecd  ucQueueGetQueueType                                                                                                                                                                                                                                                              
00012ce8  ulMaxSyscallInterruptPriority                                                                                                                                                                                                                                                    
0000e85d  ulPortGetIPSR                                                                                                                                                                                                                                                                    
00001a9d  ulTaskNotifyTake                                                                                                                                                                                                                                                                 
00010a25  unlink                                                                                                                                                                                                                                                                           
0000df11  uxListRemove                                                                                                                                                                                                                                                                     
00003ead  uxQueueGetQueueNumber                                                                                                                                                                                                                                                            
00003df5  uxQueueMessagesWaiting                                                                                                                                                                                                                                                           
00003e59  uxQueueMessagesWaitingFromISR                                                                                                                                                                                                                                                    
00003e25  uxQueueSpacesAvailable                                                                                                                                                                                                                                                           
00000d43  uxTaskGetNumberOfTasks                                                                                                                                                                                                                                                           
00000d91  uxTaskGetSystemState                                                                                                                                                                                                                                                             
0000133b  uxTaskGetTaskNumber                                                                                                                                                                                                                                                              
0000075b  uxTaskPriorityGet                                                                                                                                                                                                                                                                
0000078d  uxTaskPriorityGetFromISR                                                                                                                                                                                                                                                         
00001a63  uxTaskResetEventItemValue                                                                                                                                                                                                                                                        
00010bdb  vApplicationIdleHook                                                                                                                                                                                                                                                             
00010bcb  vApplicationMallocFailedHook                                                                                                                                                                                                                                                     
00010bdd  vApplicationStackOverflowHook                                                                                                                                                                                                                                                    
0000de2f  vListInitialise                                                                                                                                                                                                                                                                  
0000de5f  vListInitialiseItem                                                                                                                                                                                                                                                              
0000deab  vListInsert                                                                                                                                                                                                                                                                      
0000de6f  vListInsertEnd                                                                                                                                                                                                                                                                   
0000e919  vPortEnableVFP                                                                                                                                                                                                                                                                   
0000cded  vPortEndScheduler                                                                                                                                                                                                                                                                
0000ce11  vPortEnterCritical                                                                                                                                                                                                                                                               
0000ce53  vPortExitCritical                                                                                                                                                                                                                                                                
0000b0df  vPortFree                                                                                                                                                                                                                                                                        
0000b2e1  vPortGetHeapStats                                                                                                                                                                                                                                                                
0000b185  vPortInitialiseBlocks                                                                                                                                                                                                                                                            
0000e8d5  vPortSVCHandler                                                                                                                                                                                                                                                                  
0000cea5  vPortSetupTimerInterrupt                                                                                                                                                                                                                                                         
0000e8f5  vPortStartFirstTask                                                                                                                                                                                                                                                              
0000cec1  vPortValidateInterruptPriority                                                                                                                                                                                                                                                   
0000415b  vQueueAddToRegistry                                                                                                                                                                                                                                                              
00003e83  vQueueDelete                                                                                                                                                                                                                                                                     
00003ebb  vQueueSetQueueNumber                                                                                                                                                                                                                                                             
000041dd  vQueueUnregisterQueue                                                                                                                                                                                                                                                            
0000063d  vTaskDelay                                                                                                                                                                                                                                                                       
00000559  vTaskDelayUntil                                                                                                                                                                                                                                                                  
0000048f  vTaskDelete                                                                                                                                                                                                                                                                      
00000be9  vTaskEndScheduler                                                                                                                                                                                                                                                                
00001441  vTaskGetInfo                                                                                                                                                                                                                                                                     
00001273  vTaskInternalSetTimeOutState                                                                                                                                                                                                                                                     
00001951  vTaskList                                                                                                                                                                                                                                                                        
00001333  vTaskMissedYield                                                                                                                                                                                                                                                                 
00001e69  vTaskNotifyGiveFromISR                                                                                                                                                                                                                                                           
0000105f  vTaskPlaceOnEventList                                                                                                                                                                                                                                                            
000010a1  vTaskPlaceOnUnorderedEventList                                                                                                                                                                                                                                                   
000017fd  vTaskPriorityDisinheritAfterTimeout                                                                                                                                                                                                                                              
000007d1  vTaskPrioritySet                                                                                                                                                                                                                                                                 
000011a9  vTaskRemoveFromUnorderedEventList                                                                                                                                                                                                                                                
00000a49  vTaskResume                                                                                                                                                                                                                                                                      
0000135b  vTaskSetTaskNumber                                                                                                                                                                                                                                                               
00001241  vTaskSetTimeOutState                                                                                                                                                                                                                                                             
00000b81  vTaskStartScheduler                                                                                                                                                                                                                                                              
00000905  vTaskSuspend                                                                                                                                                                                                                                                                     
00000c05  vTaskSuspendAll                                                                                                                                                                                                                                                                  
00000f99  vTaskSwitchContext                                                                                                                                                                                                                                                               
0001160d  wcslen                                                                                                                                                                                                                                                                           
00010dfd  write                                                                                                                                                                                                                                                                            
0000b179  xPortGetFreeHeapSize                                                                                                                                                                                                                                                             
0000b17f  xPortGetMinimumEverFreeHeapSize                                                                                                                                                                                                                                                  
0000e875  xPortPendSVHandler                                                                                                                                                                                                                                                               
0000cd59  xPortStartScheduler                                                                                                                                                                                                                                                              
0000ce7f  xPortSysTickHandler                                                                                                                                                                                                                                                              
00003439  xQueueCreateCountingSemaphore                                                                                                                                                                                                                                                    
0000340d  xQueueCreateMutex                                                                                                                                                                                                                                                                
00003335  xQueueGenericCreate                                                                                                                                                                                                                                                              
00003281  xQueueGenericReset                                                                                                                                                                                                                                                               
00003491  xQueueGenericSend                                                                                                                                                                                                                                                                
00003625  xQueueGenericSendFromISR                                                                                                                                                                                                                                                         
00003729  xQueueGiveFromISR                                                                                                                                                                                                                                                                
000040c7  xQueueIsQueueEmptyFromISR                                                                                                                                                                                                                                                        
00004121  xQueueIsQueueFullFromISR                                                                                                                                                                                                                                                         
00003b19  xQueuePeek                                                                                                                                                                                                                                                                       
00003d49  xQueuePeekFromISR                                                                                                                                                                                                                                                                
0000381d  xQueueReceive                                                                                                                                                                                                                                                                    
00003c71  xQueueReceiveFromISR                                                                                                                                                                                                                                                             
20004540  xQueueRegistry                                                                                                                                                                                                                                                                   
0000396f  xQueueSemaphoreTake                                                                                                                                                                                                                                                              
0000128d  xTaskCheckForTimeOut                                                                                                                                                                                                                                                             
0000026d  xTaskCreate                                                                                                                                                                                                                                                                      
00001bc9  xTaskGenericNotify                                                                                                                                                                                                                                                               
00001d09  xTaskGenericNotifyFromISR                                                                                                                                                                                                                                                        
00001615  xTaskGetCurrentTaskHandle                                                                                                                                                                                                                                                        
00000d1f  xTaskGetTickCount                                                                                                                                                                                                                                                                
00000d2f  xTaskGetTickCountFromISR                                                                                                                                                                                                                                                         
00000e7d  xTaskIncrementTick                                                                                                                                                                                                                                                               
00001f51  xTaskNotifyStateClear                                                                                                                                                                                                                                                            
00001b13  xTaskNotifyWait                                                                                                                                                                                                                                                                  
00001727  xTaskPriorityDisinherit                                                                                                                                                                                                                                                          
0000164d  xTaskPriorityInherit                                                                                                                                                                                                                                                             
00001105  xTaskRemoveFromEventList                                                                                                                                                                                                                                                         
00000c1d  xTaskResumeAll                                                                                                                                                                                                                                                                   
00000add  xTaskResumeFromISR                                                                                                                                                                                                                                                               


GLOBAL SYMBOLS: SORTED BY Symbol Address 

address   name                                                                                                                                                                                                                                                                             
-------   ----                                                                                                                                                                                                                                                                             
00000000  __TI_static_base__                                                                                                                                                                                                                                                               
00000000  g_pfnVectors                                                                                                                                                                                                                                                                     
00000010  __SYSMEM_SIZE                                                                                                                                                                                                                                                                    
0000026d  xTaskCreate                                                                                                                                                                                                                                                                      
0000048f  vTaskDelete                                                                                                                                                                                                                                                                      
00000559  vTaskDelayUntil                                                                                                                                                                                                                                                                  
0000063d  vTaskDelay                                                                                                                                                                                                                                                                       
000006a5  eTaskGetState                                                                                                                                                                                                                                                                    
0000075b  uxTaskPriorityGet                                                                                                                                                                                                                                                                
0000078d  uxTaskPriorityGetFromISR                                                                                                                                                                                                                                                         
000007d1  vTaskPrioritySet                                                                                                                                                                                                                                                                 
00000800  __STACK_SIZE                                                                                                                                                                                                                                                                     
00000905  vTaskSuspend                                                                                                                                                                                                                                                                     
00000a49  vTaskResume                                                                                                                                                                                                                                                                      
00000add  xTaskResumeFromISR                                                                                                                                                                                                                                                               
00000b81  vTaskStartScheduler                                                                                                                                                                                                                                                              
00000be9  vTaskEndScheduler                                                                                                                                                                                                                                                                
00000c05  vTaskSuspendAll                                                                                                                                                                                                                                                                  
00000c1d  xTaskResumeAll                                                                                                                                                                                                                                                                   
00000d1f  xTaskGetTickCount                                                                                                                                                                                                                                                                
00000d2f  xTaskGetTickCountFromISR                                                                                                                                                                                                                                                         
00000d43  uxTaskGetNumberOfTasks                                                                                                                                                                                                                                                           
00000d49  pcTaskGetName                                                                                                                                                                                                                                                                    
00000d91  uxTaskGetSystemState                                                                                                                                                                                                                                                             
00000e7d  xTaskIncrementTick                                                                                                                                                                                                                                                               
00000f99  vTaskSwitchContext                                                                                                                                                                                                                                                               
0000105f  vTaskPlaceOnEventList                                                                                                                                                                                                                                                            
000010a1  vTaskPlaceOnUnorderedEventList                                                                                                                                                                                                                                                   
00001105  xTaskRemoveFromEventList                                                                                                                                                                                                                                                         
000011a9  vTaskRemoveFromUnorderedEventList                                                                                                                                                                                                                                                
00001241  vTaskSetTimeOutState                                                                                                                                                                                                                                                             
00001273  vTaskInternalSetTimeOutState                                                                                                                                                                                                                                                     
0000128d  xTaskCheckForTimeOut                                                                                                                                                                                                                                                             
00001333  vTaskMissedYield                                                                                                                                                                                                                                                                 
0000133b  uxTaskGetTaskNumber                                                                                                                                                                                                                                                              
0000135b  vTaskSetTaskNumber                                                                                                                                                                                                                                                               
00001441  vTaskGetInfo                                                                                                                                                                                                                                                                     
00001615  xTaskGetCurrentTaskHandle                                                                                                                                                                                                                                                        
0000164d  xTaskPriorityInherit                                                                                                                                                                                                                                                             
00001727  xTaskPriorityDisinherit                                                                                                                                                                                                                                                          
000017fd  vTaskPriorityDisinheritAfterTimeout                                                                                                                                                                                                                                              
00001951  vTaskList                                                                                                                                                                                                                                                                        
00001a63  uxTaskResetEventItemValue                                                                                                                                                                                                                                                        
00001a85  pvTaskIncrementMutexHeldCount                                                                                                                                                                                                                                                    
00001a9d  ulTaskNotifyTake                                                                                                                                                                                                                                                                 
00001b13  xTaskNotifyWait                                                                                                                                                                                                                                                                  
00001bc9  xTaskGenericNotify                                                                                                                                                                                                                                                               
00001d09  xTaskGenericNotifyFromISR                                                                                                                                                                                                                                                        
00001e69  vTaskNotifyGiveFromISR                                                                                                                                                                                                                                                           
00001f51  xTaskNotifyStateClear                                                                                                                                                                                                                                                            
00002049  _Z19set_i2c_clock_speedj                                                                                                                                                                                                                                                         
000020cf  _ZN6I2cMsgC1E14i2c_msg_type_t                                                                                                                                                                                                                                                    
000020cf  _ZN6I2cMsgC2E14i2c_msg_type_t                                                                                                                                                                                                                                                    
0000213d  _ZN7I2cTaskC1EP12i2c_config_t                                                                                                                                                                                                                                                    
0000213d  _ZN7I2cTaskC2EP12i2c_config_t                                                                                                                                                                                                                                                    
00002343  _ZN7I2cTask10get_vectorEv                                                                                                                                                                                                                                                        
00002389  _ZN7I2cTask11add_i2c_msgEP6I2cMsg                                                                                                                                                                                                                                                
000023a7  _ZN7I2cTask19reset_monitor_indexEv                                                                                                                                                                                                                                               
00002435  _ZN7I2cTask4taskEPS_                                                                                                                                                                                                                                                             
00002907  _ZN7I2cTask14taskfunwrapperEPv                                                                                                                                                                                                                                                   
00002915  _ZN7I2cTask10log_errorsEPS_                                                                                                                                                                                                                                                      
000029a5  _ZN7I2cTask12print_errorsEPS_                                                                                                                                                                                                                                                    
00002a81  _ZN7I2cTask9draw_pageEv                                                                                                                                                                                                                                                          
00002a8d  _ZN7I2cTask9draw_dataEv                                                                                                                                                                                                                                                          
00002d09  _ZN7I2cTask10draw_inputEi                                                                                                                                                                                                                                                        
00003183  _ZN7I2cTask10draw_resetEv                                                                                                                                                                                                                                                        
000031a7  _ZN7I2cTask9draw_helpEv                                                                                                                                                                                                                                                          
00003281  xQueueGenericReset                                                                                                                                                                                                                                                               
00003335  xQueueGenericCreate                                                                                                                                                                                                                                                              
0000340d  xQueueCreateMutex                                                                                                                                                                                                                                                                
00003439  xQueueCreateCountingSemaphore                                                                                                                                                                                                                                                    
00003491  xQueueGenericSend                                                                                                                                                                                                                                                                
00003625  xQueueGenericSendFromISR                                                                                                                                                                                                                                                         
00003729  xQueueGiveFromISR                                                                                                                                                                                                                                                                
0000381d  xQueueReceive                                                                                                                                                                                                                                                                    
0000396f  xQueueSemaphoreTake                                                                                                                                                                                                                                                              
00003b19  xQueuePeek                                                                                                                                                                                                                                                                       
00003c71  xQueueReceiveFromISR                                                                                                                                                                                                                                                             
00003d49  xQueuePeekFromISR                                                                                                                                                                                                                                                                
00003df5  uxQueueMessagesWaiting                                                                                                                                                                                                                                                           
00003e25  uxQueueSpacesAvailable                                                                                                                                                                                                                                                           
00003e59  uxQueueMessagesWaitingFromISR                                                                                                                                                                                                                                                    
00003e83  vQueueDelete                                                                                                                                                                                                                                                                     
00003ead  uxQueueGetQueueNumber                                                                                                                                                                                                                                                            
00003ebb  vQueueSetQueueNumber                                                                                                                                                                                                                                                             
00003ecd  ucQueueGetQueueType                                                                                                                                                                                                                                                              
000040c7  xQueueIsQueueEmptyFromISR                                                                                                                                                                                                                                                        
00004121  xQueueIsQueueFullFromISR                                                                                                                                                                                                                                                         
0000415b  vQueueAddToRegistry                                                                                                                                                                                                                                                              
0000419d  pcQueueGetName                                                                                                                                                                                                                                                                   
000041dd  vQueueUnregisterQueue                                                                                                                                                                                                                                                            
000042e9  SysCtlSRAMSizeGet                                                                                                                                                                                                                                                                
000042f3  SysCtlFlashSizeGet                                                                                                                                                                                                                                                               
0000431f  SysCtlFlashSectorSizeGet                                                                                                                                                                                                                                                         
00004345  SysCtlPeripheralPresent                                                                                                                                                                                                                                                          
00004385  SysCtlPeripheralReady                                                                                                                                                                                                                                                            
000043c5  SysCtlPeripheralPowerOn                                                                                                                                                                                                                                                          
00004401  SysCtlPeripheralPowerOff                                                                                                                                                                                                                                                         
0000443d  SysCtlPeripheralReset                                                                                                                                                                                                                                                            
000044c5  SysCtlPeripheralEnable                                                                                                                                                                                                                                                           
00004501  SysCtlPeripheralDisable                                                                                                                                                                                                                                                          
00004545  SysCtlPeripheralSleepEnable                                                                                                                                                                                                                                                      
00004589  SysCtlPeripheralSleepDisable                                                                                                                                                                                                                                                     
000045c5  SysCtlPeripheralDeepSleepEnable                                                                                                                                                                                                                                                  
00004615  SysCtlPeripheralDeepSleepDisable                                                                                                                                                                                                                                                 
0000465d  SysCtlPeripheralClockGating                                                                                                                                                                                                                                                      
000046b1  SysCtlIntRegister                                                                                                                                                                                                                                                                
000046c9  SysCtlIntUnregister                                                                                                                                                                                                                                                              
000046d9  SysCtlIntEnable                                                                                                                                                                                                                                                                  
000046ed  SysCtlIntDisable                                                                                                                                                                                                                                                                 
00004705  SysCtlIntClear                                                                                                                                                                                                                                                                   
00004715  SysCtlIntStatus                                                                                                                                                                                                                                                                  
00004731  SysCtlLDOSleepSet                                                                                                                                                                                                                                                                
00004741  SysCtlLDOSleepGet                                                                                                                                                                                                                                                                
00004747  SysCtlLDODeepSleepSet                                                                                                                                                                                                                                                            
00004757  SysCtlLDODeepSleepGet                                                                                                                                                                                                                                                            
0000475d  SysCtlSleepPowerSet                                                                                                                                                                                                                                                              
00004771  SysCtlDeepSleepPowerSet                                                                                                                                                                                                                                                          
00004781  SysCtlReset                                                                                                                                                                                                                                                                      
00004789  SysCtlSleep                                                                                                                                                                                                                                                                      
00004791  SysCtlDeepSleep                                                                                                                                                                                                                                                                  
000047ad  SysCtlResetCauseGet                                                                                                                                                                                                                                                              
000047b3  SysCtlResetCauseClear                                                                                                                                                                                                                                                            
000047c7  SysCtlMOSCConfigSet                                                                                                                                                                                                                                                              
000047dd  SysCtlPIOSCCalibrate                                                                                                                                                                                                                                                             
0000482d  SysCtlResetBehaviorSet                                                                                                                                                                                                                                                           
0000483d  SysCtlResetBehaviorGet                                                                                                                                                                                                                                                           
00004891  SysCtlClockFreqSet                                                                                                                                                                                                                                                               
00004ba9  SysCtlClockSet                                                                                                                                                                                                                                                                   
00004d75  SysCtlClockGet                                                                                                                                                                                                                                                                   
00004f23  SysCtlDeepSleepClockSet                                                                                                                                                                                                                                                          
00004f41  SysCtlDeepSleepClockConfigSet                                                                                                                                                                                                                                                    
00004fcb  SysCtlPWMClockSet                                                                                                                                                                                                                                                                
00004fe5  SysCtlPWMClockGet                                                                                                                                                                                                                                                                
00004ffb  SysCtlGPIOAHBEnable                                                                                                                                                                                                                                                              
00005017  SysCtlGPIOAHBDisable                                                                                                                                                                                                                                                             
00005033  SysCtlUSBPLLEnable                                                                                                                                                                                                                                                               
00005045  SysCtlUSBPLLDisable                                                                                                                                                                                                                                                              
00005055  SysCtlVoltageEventConfig                                                                                                                                                                                                                                                         
00005065  SysCtlVoltageEventStatus                                                                                                                                                                                                                                                         
00005071  SysCtlVoltageEventClear                                                                                                                                                                                                                                                          
00005085  SysCtlNMIStatus                                                                                                                                                                                                                                                                  
0000508b  SysCtlNMIClear                                                                                                                                                                                                                                                                   
0000509f  SysCtlClockOutConfig                                                                                                                                                                                                                                                             
000050bb  SysCtlAltClkConfig                                                                                                                                                                                                                                                               
0000517b  GPIODirModeSet                                                                                                                                                                                                                                                                   
000051d7  GPIODirModeGet                                                                                                                                                                                                                                                                   
00005223  GPIOIntTypeSet                                                                                                                                                                                                                                                                   
000052c7  GPIOIntTypeGet                                                                                                                                                                                                                                                                   
0000535d  GPIOPadConfigSet                                                                                                                                                                                                                                                                 
00005597  GPIOPadConfigGet                                                                                                                                                                                                                                                                 
000056e9  GPIOIntEnable                                                                                                                                                                                                                                                                    
00005703  GPIOIntDisable                                                                                                                                                                                                                                                                   
0000571d  GPIOIntStatus                                                                                                                                                                                                                                                                    
0000573f  GPIOIntClear                                                                                                                                                                                                                                                                     
00005753  GPIOIntRegister                                                                                                                                                                                                                                                                  
00005771  GPIOIntUnregister                                                                                                                                                                                                                                                                
0000578b  GPIOPinRead                                                                                                                                                                                                                                                                      
000057a3  GPIOPinWrite                                                                                                                                                                                                                                                                     
000057c3  GPIOPinTypeADC                                                                                                                                                                                                                                                                   
000057e7  GPIOPinTypeCAN                                                                                                                                                                                                                                                                   
0000580b  GPIOPinTypeComparator                                                                                                                                                                                                                                                            
0000582f  GPIOPinTypeEPI                                                                                                                                                                                                                                                                   
00005853  GPIOPinTypeEthernetLED                                                                                                                                                                                                                                                           
00005877  GPIOPinTypeEthernetMII                                                                                                                                                                                                                                                           
0000589b  GPIOPinTypeGPIOInput                                                                                                                                                                                                                                                             
000058bf  GPIOPinTypeGPIOOutput                                                                                                                                                                                                                                                            
000058e3  GPIOPinTypeGPIOOutputOD                                                                                                                                                                                                                                                          
00005907  GPIOPinTypeI2C                                                                                                                                                                                                                                                                   
0000592b  GPIOPinTypeI2CSCL                                                                                                                                                                                                                                                                
0000594f  GPIOPinTypeLCD                                                                                                                                                                                                                                                                   
00005973  GPIOPinTypeLPC                                                                                                                                                                                                                                                                   
00005997  GPIOPinTypePECIRx                                                                                                                                                                                                                                                                
000059bb  GPIOPinTypePECITx                                                                                                                                                                                                                                                                
000059df  GPIOPinTypePWM                                                                                                                                                                                                                                                                   
00005a03  GPIOPinTypeQEI                                                                                                                                                                                                                                                                   
00005a27  GPIOPinTypeSSI                                                                                                                                                                                                                                                                   
00005a4b  GPIOPinTypeTimer                                                                                                                                                                                                                                                                 
00005a6f  GPIOPinTypeUART                                                                                                                                                                                                                                                                  
00005a93  GPIOPinTypeUSBAnalog                                                                                                                                                                                                                                                             
00005ab7  GPIOPinTypeUSBDigital                                                                                                                                                                                                                                                            
00005adb  GPIOPinTypeWakeHigh                                                                                                                                                                                                                                                              
00005b01  GPIOPinTypeWakeLow                                                                                                                                                                                                                                                               
00005b27  GPIOPinTypeKBRow                                                                                                                                                                                                                                                                 
00005b4b  GPIOPinTypeKBColumn                                                                                                                                                                                                                                                              
00005b6f  GPIOPinTypeLEDSeq                                                                                                                                                                                                                                                                
00005b93  GPIOPinTypeCIR                                                                                                                                                                                                                                                                   
00005bb7  GPIOPinWakeStatus                                                                                                                                                                                                                                                                
00005bc7  GPIOPinConfigure                                                                                                                                                                                                                                                                 
00005c25  GPIODMATriggerEnable                                                                                                                                                                                                                                                             
00005c43  GPIODMATriggerDisable                                                                                                                                                                                                                                                            
00005c61  GPIOADCTriggerEnable                                                                                                                                                                                                                                                             
00005c7f  GPIOADCTriggerDisable                                                                                                                                                                                                                                                            
00005cbd  _ZN6SpiMsgC1E14spi_msg_type_e                                                                                                                                                                                                                                                    
00005cbd  _ZN6SpiMsgC2E14spi_msg_type_e                                                                                                                                                                                                                                                    
00005cd5  _ZN10SpiCmdTaskC1Ev                                                                                                                                                                                                                                                              
00005cd5  _ZN10SpiCmdTaskC2Ev                                                                                                                                                                                                                                                              
00005ebd  _ZN10SpiCmdTask11add_spi_msgEP6SpiMsg                                                                                                                                                                                                                                            
00005f09  _ZN10SpiCmdTask4taskEPS_                                                                                                                                                                                                                                                         
000060d1  _ZN10SpiCmdTask14taskfunwrapperEPv                                                                                                                                                                                                                                               
000060df  _ZN10SpiCmdTask10log_errorsEPS_                                                                                                                                                                                                                                                  
00006165  _ZN10SpiCmdTask12ascii_to_hexEh                                                                                                                                                                                                                                                  
00006205  _ZN10SpiCmdTask12print_errorsEPS_                                                                                                                                                                                                                                                
0000625d  _ZN10SpiCmdTask9draw_pageEv                                                                                                                                                                                                                                                      
00006269  _ZN10SpiCmdTask9draw_dataEv                                                                                                                                                                                                                                                      
00006359  _ZN10SpiCmdTask10draw_inputEi                                                                                                                                                                                                                                                    
0000672d  _ZN10SpiCmdTask9draw_helpEv                                                                                                                                                                                                                                                      
00006737  _ZN10SpiCmdTask10draw_resetEv                                                                                                                                                                                                                                                    
0000682b  _ZNSt3__220__vector_base_commonILb1EEC2Ev                                                                                                                                                                                                                                        
0000682d  __TI_printfi                                                                                                                                                                                                                                                                     
0000727b  _ZNSt9type_infoD1Ev                                                                                                                                                                                                                                                              
0000727b  _ZNSt9type_infoD2Ev                                                                                                                                                                                                                                                              
000072d7  ADCIntRegister                                                                                                                                                                                                                                                                   
000072ff  ADCIntUnregister                                                                                                                                                                                                                                                                 
0000731d  ADCIntDisable                                                                                                                                                                                                                                                                    
00007339  ADCIntEnable                                                                                                                                                                                                                                                                     
0000735f  ADCIntStatus                                                                                                                                                                                                                                                                     
000073b7  ADCIntClear                                                                                                                                                                                                                                                                      
000073cd  ADCSequenceEnable                                                                                                                                                                                                                                                                
000073e7  ADCSequenceDisable                                                                                                                                                                                                                                                               
00007401  ADCSequenceConfigure                                                                                                                                                                                                                                                             
00007485  ADCSequenceStepConfigure                                                                                                                                                                                                                                                         
00007579  ADCSequenceOverflow                                                                                                                                                                                                                                                              
00007591  ADCSequenceOverflowClear                                                                                                                                                                                                                                                         
000075a7  ADCSequenceUnderflow                                                                                                                                                                                                                                                             
000075bf  ADCSequenceUnderflowClear                                                                                                                                                                                                                                                        
000075d5  ADCSequenceDataGet                                                                                                                                                                                                                                                               
00007617  ADCProcessorTrigger                                                                                                                                                                                                                                                              
0000763b  ADCSoftwareOversampleConfigure                                                                                                                                                                                                                                                   
00007673  ADCSoftwareOversampleStepConfigure                                                                                                                                                                                                                                               
00007733  ADCSoftwareOversampleDataGet                                                                                                                                                                                                                                                     
000077a1  ADCHardwareOversampleConfigure                                                                                                                                                                                                                                                   
000077d3  ADCComparatorConfigure                                                                                                                                                                                                                                                           
000077ef  ADCComparatorRegionSet                                                                                                                                                                                                                                                           
00007813  ADCComparatorReset                                                                                                                                                                                                                                                               
00007859  ADCComparatorIntDisable                                                                                                                                                                                                                                                          
00007877  ADCComparatorIntEnable                                                                                                                                                                                                                                                           
00007895  ADCComparatorIntStatus                                                                                                                                                                                                                                                           
000078a3  ADCComparatorIntClear                                                                                                                                                                                                                                                            
000078b5  ADCIntDisableEx                                                                                                                                                                                                                                                                  
000078cd  ADCIntEnableEx                                                                                                                                                                                                                                                                   
000078e9  ADCIntStatusEx                                                                                                                                                                                                                                                                   
0000791b  ADCIntClearEx                                                                                                                                                                                                                                                                    
00007933  ADCReferenceSet                                                                                                                                                                                                                                                                  
0000794f  ADCReferenceGet                                                                                                                                                                                                                                                                  
00007961  ADCPhaseDelaySet                                                                                                                                                                                                                                                                 
00007973  ADCPhaseDelayGet                                                                                                                                                                                                                                                                 
00007981  ADCSequenceDMAEnable                                                                                                                                                                                                                                                             
0000799d  ADCSequenceDMADisable                                                                                                                                                                                                                                                            
000079b9  ADCBusy                                                                                                                                                                                                                                                                          
000079d7  ADCClockConfigSet                                                                                                                                                                                                                                                                
00007a01  ADCClockConfigGet                                                                                                                                                                                                                                                                
00007a3f  _nop                                                                                                                                                                                                                                                                             
00007a41  PWMGenConfigure                                                                                                                                                                                                                                                                  
00007a8b  PWMGenPeriodSet                                                                                                                                                                                                                                                                  
00007abb  PWMGenPeriodGet                                                                                                                                                                                                                                                                  
00007ae5  PWMGenEnable                                                                                                                                                                                                                                                                     
00007aff  PWMGenDisable                                                                                                                                                                                                                                                                    
00007b19  PWMPulseWidthSet                                                                                                                                                                                                                                                                 
00007b63  PWMPulseWidthGet                                                                                                                                                                                                                                                                 
00007bad  PWMDeadBandEnable                                                                                                                                                                                                                                                                
00007be5  PWMDeadBandDisable                                                                                                                                                                                                                                                               
00007c01  PWMSyncUpdate                                                                                                                                                                                                                                                                    
00007c13  PWMSyncTimeBase                                                                                                                                                                                                                                                                  
00007c25  PWMOutputState                                                                                                                                                                                                                                                                   
00007c57  PWMOutputInvert                                                                                                                                                                                                                                                                  
00007c89  PWMOutputFaultLevel                                                                                                                                                                                                                                                              
00007cbb  PWMOutputFault                                                                                                                                                                                                                                                                   
00007ded  PWMGenIntRegister                                                                                                                                                                                                                                                                
00007e15  PWMGenIntUnregister                                                                                                                                                                                                                                                              
00007e7b  PWMFaultIntRegister                                                                                                                                                                                                                                                              
00007e99  PWMFaultIntUnregister                                                                                                                                                                                                                                                            
00007eb3  PWMGenIntTrigEnable                                                                                                                                                                                                                                                              
00007ed1  PWMGenIntTrigDisable                                                                                                                                                                                                                                                             
00007eef  PWMGenIntStatus                                                                                                                                                                                                                                                                  
00007f19  PWMGenIntClear                                                                                                                                                                                                                                                                   
00007f31  PWMIntEnable                                                                                                                                                                                                                                                                     
00007f49  PWMIntDisable                                                                                                                                                                                                                                                                    
00007f61  PWMFaultIntClear                                                                                                                                                                                                                                                                 
00007f73  PWMIntStatus                                                                                                                                                                                                                                                                     
00007f93  PWMFaultIntClearExt                                                                                                                                                                                                                                                              
00007fb1  PWMGenFaultConfigure                                                                                                                                                                                                                                                             
00007fe1  PWMGenFaultTriggerSet                                                                                                                                                                                                                                                            
0000800b  PWMGenFaultTriggerGet                                                                                                                                                                                                                                                            
0000802f  PWMGenFaultStatus                                                                                                                                                                                                                                                                
00008065  PWMGenFaultClear                                                                                                                                                                                                                                                                 
0000809b  PWMClockSet                                                                                                                                                                                                                                                                      
000080bb  PWMClockGet                                                                                                                                                                                                                                                                      
000080e5  PWMOutputUpdateMode                                                                                                                                                                                                                                                              
000081b7  I2CMasterInitExpClk                                                                                                                                                                                                                                                              
00008229  I2CSlaveInit                                                                                                                                                                                                                                                                     
00008243  I2CSlaveAddressSet                                                                                                                                                                                                                                                               
00008281  I2CMasterEnable                                                                                                                                                                                                                                                                  
00008297  I2CSlaveEnable                                                                                                                                                                                                                                                                   
000082b5  I2CMasterDisable                                                                                                                                                                                                                                                                 
000082cb  I2CSlaveDisable                                                                                                                                                                                                                                                                  
000082e9  I2CIntRegister                                                                                                                                                                                                                                                                   
00008307  I2CIntUnregister                                                                                                                                                                                                                                                                 
00008321  I2CMasterIntEnable                                                                                                                                                                                                                                                               
00008331  I2CMasterIntEnableEx                                                                                                                                                                                                                                                             
00008349  I2CSlaveIntEnable                                                                                                                                                                                                                                                                
00008361  I2CSlaveIntEnableEx                                                                                                                                                                                                                                                              
0000837b  I2CMasterIntDisable                                                                                                                                                                                                                                                              
0000838b  I2CMasterIntDisableEx                                                                                                                                                                                                                                                            
000083a3  I2CSlaveIntDisable                                                                                                                                                                                                                                                               
000083bb  I2CSlaveIntDisableEx                                                                                                                                                                                                                                                             
000083d5  I2CMasterIntStatus                                                                                                                                                                                                                                                               
00008419  I2CMasterIntStatusEx                                                                                                                                                                                                                                                             
00008445  I2CSlaveIntStatus                                                                                                                                                                                                                                                                
0000848d  I2CSlaveIntStatusEx                                                                                                                                                                                                                                                              
000084af  I2CMasterIntClear                                                                                                                                                                                                                                                                
000084cd  I2CMasterIntClearEx                                                                                                                                                                                                                                                              
000084df  I2CSlaveIntClear                                                                                                                                                                                                                                                                 
000084f1  I2CSlaveIntClearEx                                                                                                                                                                                                                                                               
00008505  I2CMasterSlaveAddrSet                                                                                                                                                                                                                                                            
00008527  I2CMasterLineStateGet                                                                                                                                                                                                                                                            
00008535  I2CMasterBusy                                                                                                                                                                                                                                                                    
0000854d  I2CMasterBusBusy                                                                                                                                                                                                                                                                 
00008565  I2CMasterControl                                                                                                                                                                                                                                                                 
00008577  I2CMasterErr                                                                                                                                                                                                                                                                     
000085a3  I2CMasterDataPut                                                                                                                                                                                                                                                                 
000085b9  I2CMasterDataGet                                                                                                                                                                                                                                                                 
000085c7  I2CMasterTimeoutSet                                                                                                                                                                                                                                                              
000085d9  I2CSlaveACKOverride                                                                                                                                                                                                                                                              
0000860b  I2CSlaveACKValueSet                                                                                                                                                                                                                                                              
0000863d  I2CSlaveStatus                                                                                                                                                                                                                                                                   
0000864d  I2CSlaveDataPut                                                                                                                                                                                                                                                                  
00008665  I2CSlaveDataGet                                                                                                                                                                                                                                                                  
00008675  I2CTxFIFOConfigSet                                                                                                                                                                                                                                                               
0000869d  I2CTxFIFOFlush                                                                                                                                                                                                                                                                   
000086b5  I2CRxFIFOConfigSet                                                                                                                                                                                                                                                               
000086dd  I2CRxFIFOFlush                                                                                                                                                                                                                                                                   
000086f5  I2CFIFOStatus                                                                                                                                                                                                                                                                    
00008705  I2CFIFODataPut                                                                                                                                                                                                                                                                   
00008727  I2CFIFODataPutNonBlocking                                                                                                                                                                                                                                                        
0000874f  I2CFIFODataGet                                                                                                                                                                                                                                                                   
00008769  I2CFIFODataGetNonBlocking                                                                                                                                                                                                                                                        
0000878f  I2CMasterBurstLengthSet                                                                                                                                                                                                                                                          
000087a5  I2CMasterBurstCountGet                                                                                                                                                                                                                                                           
000087b3  I2CMasterGlitchFilterConfigSet                                                                                                                                                                                                                                                   
000087cb  I2CSlaveFIFOEnable                                                                                                                                                                                                                                                               
000087e3  I2CSlaveFIFODisable                                                                                                                                                                                                                                                              
000087f5  _ZN11ConsolePageC1EPKcjb                                                                                                                                                                                                                                                         
000087f5  _ZN11ConsolePageC2EPKcjb                                                                                                                                                                                                                                                         
00008829  _ZN11ConsoleTaskC1EP15QueueDefinition                                                                                                                                                                                                                                            
00008829  _ZN11ConsoleTaskC2EP15QueueDefinition                                                                                                                                                                                                                                            
0000889b  _ZN11ConsoleTask8add_pageEP11ConsolePage                                                                                                                                                                                                                                         
000088b7  _ZN11ConsoleTask14taskfunwrapperEPv                                                                                                                                                                                                                                              
000089b9  _ZN11ConsoleTask4taskEPS_                                                                                                                                                                                                                                                        
00008d0b  _ZN11ConsoleTask15start_draw_menuEPS_                                                                                                                                                                                                                                            
00008dcd  _ZN11ConsoleTask9draw_pageEv                                                                                                                                                                                                                                                     
00008e15  _ZN11ConsoleTask9draw_dataEv                                                                                                                                                                                                                                                     
00008e1f  _ZN11ConsoleTask10draw_inputEi                                                                                                                                                                                                                                                   
00008e2b  _ZN11ConsoleTask9draw_helpEv                                                                                                                                                                                                                                                     
00008e35  _ZN11ConsoleTask10draw_resetEv                                                                                                                                                                                                                                                   
00008e57  __aeabi_idiv0                                                                                                                                                                                                                                                                    
00008e57  __aeabi_ldiv0                                                                                                                                                                                                                                                                    
00008ecb  TimerEnable                                                                                                                                                                                                                                                                      
00008ee9  TimerDisable                                                                                                                                                                                                                                                                     
00008f07  TimerConfigure                                                                                                                                                                                                                                                                   
00008f83  TimerControlLevel                                                                                                                                                                                                                                                                
00008fb9  TimerControlTrigger                                                                                                                                                                                                                                                              
00009027  TimerControlEvent                                                                                                                                                                                                                                                                
00009051  TimerControlStall                                                                                                                                                                                                                                                                
00009087  TimerControlWaitOnTrigger                                                                                                                                                                                                                                                        
000090e7  TimerRTCEnable                                                                                                                                                                                                                                                                   
000090fd  TimerRTCDisable                                                                                                                                                                                                                                                                  
00009113  TimerClockSourceSet                                                                                                                                                                                                                                                              
0000913d  TimerClockSourceGet                                                                                                                                                                                                                                                              
0000914d  TimerPrescaleSet                                                                                                                                                                                                                                                                 
00009177  TimerPrescaleGet                                                                                                                                                                                                                                                                 
00009193  TimerPrescaleMatchSet                                                                                                                                                                                                                                                            
000091c1  TimerPrescaleMatchGet                                                                                                                                                                                                                                                            
000091dd  TimerLoadSet                                                                                                                                                                                                                                                                     
00009207  TimerLoadGet                                                                                                                                                                                                                                                                     
00009223  TimerLoadSet64                                                                                                                                                                                                                                                                   
0000923d  TimerLoadGet64                                                                                                                                                                                                                                                                   
0000926f  TimerValueGet                                                                                                                                                                                                                                                                    
0000928b  TimerValueGet64                                                                                                                                                                                                                                                                  
000092bd  TimerMatchSet                                                                                                                                                                                                                                                                    
000092e7  TimerMatchGet                                                                                                                                                                                                                                                                    
00009303  TimerMatchSet64                                                                                                                                                                                                                                                                  
0000931d  TimerMatchGet64                                                                                                                                                                                                                                                                  
0000934f  TimerIntRegister                                                                                                                                                                                                                                                                 
00009377  TimerIntUnregister                                                                                                                                                                                                                                                               
00009395  TimerIntEnable                                                                                                                                                                                                                                                                   
000093ad  TimerIntDisable                                                                                                                                                                                                                                                                  
000093c5  TimerIntStatus                                                                                                                                                                                                                                                                   
000093e3  TimerIntClear                                                                                                                                                                                                                                                                    
000093f5  TimerSynchronize                                                                                                                                                                                                                                                                 
00009407  TimerADCEventSet                                                                                                                                                                                                                                                                 
00009419  TimerADCEventGet                                                                                                                                                                                                                                                                 
00009427  TimerDMAEventSet                                                                                                                                                                                                                                                                 
00009439  TimerDMAEventGet                                                                                                                                                                                                                                                                 
00009447  TimerUpdateMode                                                                                                                                                                                                                                                                  
000094fb  UARTParityModeSet                                                                                                                                                                                                                                                                
00009517  UARTParityModeGet                                                                                                                                                                                                                                                                
00009529  UARTFIFOLevelSet                                                                                                                                                                                                                                                                 
00009541  UARTFIFOLevelGet                                                                                                                                                                                                                                                                 
00009569  UARTConfigSetExpClk                                                                                                                                                                                                                                                              
000095df  UARTConfigGetExpClk                                                                                                                                                                                                                                                              
0000962b  UARTEnable                                                                                                                                                                                                                                                                       
0000964f  UARTDisable                                                                                                                                                                                                                                                                      
00009679  UARTFIFOEnable                                                                                                                                                                                                                                                                   
0000968f  UARTFIFODisable                                                                                                                                                                                                                                                                  
000096a5  UARTEnableSIR                                                                                                                                                                                                                                                                    
000096d3  UARTDisableSIR                                                                                                                                                                                                                                                                   
000096e9  UARTSmartCardEnable                                                                                                                                                                                                                                                              
0000971b  UARTSmartCardDisable                                                                                                                                                                                                                                                             
00009731  UARTModemControlSet                                                                                                                                                                                                                                                              
00009769  UARTModemControlClear                                                                                                                                                                                                                                                            
0000978d  UARTModemControlGet                                                                                                                                                                                                                                                              
0000979f  UARTModemStatusGet                                                                                                                                                                                                                                                               
000097b3  UARTFlowControlSet                                                                                                                                                                                                                                                               
000097cf  UARTFlowControlGet                                                                                                                                                                                                                                                               
000097e1  UARTTxIntModeSet                                                                                                                                                                                                                                                                 
000097fd  UARTTxIntModeGet                                                                                                                                                                                                                                                                 
0000980f  UARTCharsAvail                                                                                                                                                                                                                                                                   
0000982d  UARTSpaceAvail                                                                                                                                                                                                                                                                   
0000984b  UARTCharGetNonBlocking                                                                                                                                                                                                                                                           
00009867  UARTCharGet                                                                                                                                                                                                                                                                      
0000987d  UARTCharPutNonBlocking                                                                                                                                                                                                                                                           
000098a1  UARTCharPut                                                                                                                                                                                                                                                                      
000098bf  UARTBreakCtl                                                                                                                                                                                                                                                                     
000098e9  UARTBusy                                                                                                                                                                                                                                                                         
00009907  UARTIntRegister                                                                                                                                                                                                                                                                  
00009925  UARTIntUnregister                                                                                                                                                                                                                                                                
00009945  UARTIntEnable                                                                                                                                                                                                                                                                    
0000995d  UARTIntDisable                                                                                                                                                                                                                                                                   
00009975  UARTIntStatus                                                                                                                                                                                                                                                                    
00009993  UARTIntClear                                                                                                                                                                                                                                                                     
000099a5  UARTDMAEnable                                                                                                                                                                                                                                                                    
000099bd  UARTDMADisable                                                                                                                                                                                                                                                                   
000099d5  UARTRxErrorGet                                                                                                                                                                                                                                                                   
000099e7  UARTRxErrorClear                                                                                                                                                                                                                                                                 
000099f7  UARTClockSourceSet                                                                                                                                                                                                                                                               
00009a0b  UARTClockSourceGet                                                                                                                                                                                                                                                               
00009a1b  UART9BitEnable                                                                                                                                                                                                                                                                   
00009a31  UART9BitDisable                                                                                                                                                                                                                                                                  
00009a47  UART9BitAddrSet                                                                                                                                                                                                                                                                  
00009a6d  UART9BitAddrSend                                                                                                                                                                                                                                                                 
00009ab5  _ZN14I2cMonitorTaskC1EP7I2cTaskRNSt3__26vectorIP6I2cMsgNS2_9allocatorIS5_EEEE                                                                                                                                                                                                    
00009ab5  _ZN14I2cMonitorTaskC2EP7I2cTaskRNSt3__26vectorIP6I2cMsgNS2_9allocatorIS5_EEEE                                                                                                                                                                                                    
00009b3b  _ZN14I2cMonitorTask4taskEPS_                                                                                                                                                                                                                                                     
00009b8f  _ZN14I2cMonitorTask14taskfunwrapperEPv                                                                                                                                                                                                                                           
00009b9d  _ZN14I2cMonitorTask16print_format_rowEj                                                                                                                                                                                                                                          
00009c55  _ZN14I2cMonitorTask10print_dataEjj                                                                                                                                                                                                                                               
00009d85  _ZN14I2cMonitorTask9draw_pageEv                                                                                                                                                                                                                                                  
00009e21  _ZN14I2cMonitorTask9draw_dataEv                                                                                                                                                                                                                                                  
00009ec1  _ZN14I2cMonitorTask10draw_inputEi                                                                                                                                                                                                                                                
00009ff7  _ZN14I2cMonitorTask9draw_helpEv                                                                                                                                                                                                                                                  
0000a001  _ZN14I2cMonitorTask10draw_resetEv                                                                                                                                                                                                                                                
0000a095  _ZN15I2cScripterTaskC1EP7I2cTask                                                                                                                                                                                                                                                 
0000a095  _ZN15I2cScripterTaskC2EP7I2cTask                                                                                                                                                                                                                                                 
0000a11d  _ZN15I2cScripterTask4taskEPS_                                                                                                                                                                                                                                                    
0000a171  _ZN15I2cScripterTask14taskfunwrapperEPv                                                                                                                                                                                                                                          
0000a17f  _ZN15I2cScripterTask12ascii_to_hexEPc                                                                                                                                                                                                                                            
0000a1d5  _ZN15I2cScripterTask13print_messageEP6I2cMsg                                                                                                                                                                                                                                     
0000a241  _ZN15I2cScripterTask9draw_pageEv                                                                                                                                                                                                                                                 
0000a25b  _ZN15I2cScripterTask9draw_dataEv                                                                                                                                                                                                                                                 
0000a281  _ZN15I2cScripterTask10draw_inputEi                                                                                                                                                                                                                                               
0000a409  _ZN15I2cScripterTask9draw_helpEv                                                                                                                                                                                                                                                 
0000a5ad  _ZN15I2cScripterTask10draw_resetEv                                                                                                                                                                                                                                               
0000a639  UARTStdioConfig                                                                                                                                                                                                                                                                  
0000a67f  UARTwrite                                                                                                                                                                                                                                                                        
0000a6cf  UARTgets                                                                                                                                                                                                                                                                         
0000a789  UARTgetc                                                                                                                                                                                                                                                                         
0000a7b1  UARTvprintf                                                                                                                                                                                                                                                                      
0000aaab  UARTprintf                                                                                                                                                                                                                                                                       
0000aae1  _ZN7PWMpageC1Ev                                                                                                                                                                                                                                                                  
0000aae1  _ZN7PWMpageC2Ev                                                                                                                                                                                                                                                                  
0000abd9  _ZN7PWMpage15set_pulse_widthEjjjb                                                                                                                                                                                                                                                
0000acbb  _ZN7PWMpage9draw_pageEv                                                                                                                                                                                                                                                          
0000accf  _ZN7PWMpage9draw_dataEv                                                                                                                                                                                                                                                          
0000aced  _ZN7PWMpage10draw_inputEi                                                                                                                                                                                                                                                        
0000aeb1  _ZN7PWMpage10draw_resetEv                                                                                                                                                                                                                                                        
0000aedd  _ZN7PWMpage9draw_helpEv                                                                                                                                                                                                                                                          
0000af4d  pvPortMalloc                                                                                                                                                                                                                                                                     
0000b0df  vPortFree                                                                                                                                                                                                                                                                        
0000b179  xPortGetFreeHeapSize                                                                                                                                                                                                                                                             
0000b17f  xPortGetMinimumEverFreeHeapSize                                                                                                                                                                                                                                                  
0000b185  vPortInitialiseBlocks                                                                                                                                                                                                                                                            
0000b2e1  vPortGetHeapStats                                                                                                                                                                                                                                                                
0000b3a1  _ZN7MenuRowC1EjPFvjEPPKcS3_                                                                                                                                                                                                                                                      
0000b3a1  _ZN7MenuRowC2EjPFvjEPPKcS3_                                                                                                                                                                                                                                                      
0000b3d1  _ZN11MenuOptionsC1Ev                                                                                                                                                                                                                                                             
0000b3d1  _ZN11MenuOptionsC2Ev                                                                                                                                                                                                                                                             
0000b3fb  _ZN11MenuOptions12add_menu_rowEP7MenuRow                                                                                                                                                                                                                                         
0000b40d  _ZN11MenuOptions9print_rowEj                                                                                                                                                                                                                                                     
0000b4eb  _ZN11MenuOptions9draw_pageEv                                                                                                                                                                                                                                                     
0000b601  _ZN11MenuOptions9draw_dataEv                                                                                                                                                                                                                                                     
0000b625  _ZN11MenuOptions10draw_inputEi                                                                                                                                                                                                                                                   
0000b78f  _ZN11MenuOptions9draw_helpEv                                                                                                                                                                                                                                                     
0000b799  _ZN11MenuOptions10draw_resetEv                                                                                                                                                                                                                                                   
0000b7a7  IntMasterEnable                                                                                                                                                                                                                                                                  
0000b7b7  IntMasterDisable                                                                                                                                                                                                                                                                 
0000b7c7  IntRegister                                                                                                                                                                                                                                                                      
0000b819  IntUnregister                                                                                                                                                                                                                                                                    
0000b82d  IntPriorityGroupingSet                                                                                                                                                                                                                                                           
0000b847  IntPriorityGroupingGet                                                                                                                                                                                                                                                           
0000b87f  IntPrioritySet                                                                                                                                                                                                                                                                   
0000b8cf  IntPriorityGet                                                                                                                                                                                                                                                                   
0000b8f3  IntEnable                                                                                                                                                                                                                                                                        
0000b965  IntDisable                                                                                                                                                                                                                                                                       
0000b9d7  IntIsEnabled                                                                                                                                                                                                                                                                     
0000ba5d  IntPendSet                                                                                                                                                                                                                                                                       
0000bacd  IntPendClear                                                                                                                                                                                                                                                                     
0000bb1b  IntPriorityMaskSet                                                                                                                                                                                                                                                               
0000bb27  IntPriorityMaskGet                                                                                                                                                                                                                                                               
0000bb2f  IntTrigger                                                                                                                                                                                                                                                                       
0000bb65  _ZN9IoCtlPageC1EP6GpoObjP6GpiObjP7AdcTask                                                                                                                                                                                                                                        
0000bb65  _ZN9IoCtlPageC2EP6GpoObjP6GpiObjP7AdcTask                                                                                                                                                                                                                                        
0000bbc3  _ZN9IoCtlPage9draw_pageEv                                                                                                                                                                                                                                                        
0000bcf7  _ZN9IoCtlPage9draw_dataEv                                                                                                                                                                                                                                                        
0000be49  _ZN9IoCtlPage10draw_inputEi                                                                                                                                                                                                                                                      
0000bef1  _ZN9IoCtlPage9draw_helpEv                                                                                                                                                                                                                                                        
0000befb  _ZN9IoCtlPage10draw_resetEv                                                                                                                                                                                                                                                      
0000bf77  SSIConfigSetExpClk                                                                                                                                                                                                                                                               
0000c003  SSIEnable                                                                                                                                                                                                                                                                        
0000c019  SSIDisable                                                                                                                                                                                                                                                                       
0000c02f  SSIIntRegister                                                                                                                                                                                                                                                                   
0000c04d  SSIIntUnregister                                                                                                                                                                                                                                                                 
0000c067  SSIIntEnable                                                                                                                                                                                                                                                                     
0000c07f  SSIIntDisable                                                                                                                                                                                                                                                                    
0000c097  SSIIntStatus                                                                                                                                                                                                                                                                     
0000c0b5  SSIIntClear                                                                                                                                                                                                                                                                      
0000c0c7  SSIDataPut                                                                                                                                                                                                                                                                       
0000c0e1  SSIDataPutNonBlocking                                                                                                                                                                                                                                                            
0000c101  SSIDataGet                                                                                                                                                                                                                                                                       
0000c11d  SSIDataGetNonBlocking                                                                                                                                                                                                                                                            
0000c13f  SSIDMAEnable                                                                                                                                                                                                                                                                     
0000c157  SSIDMADisable                                                                                                                                                                                                                                                                    
0000c16f  SSIBusy                                                                                                                                                                                                                                                                          
0000c18d  SSIClockSourceSet                                                                                                                                                                                                                                                                
0000c1a1  SSIClockSourceGet                                                                                                                                                                                                                                                                
0000c1c5  SSIAdvModeSet                                                                                                                                                                                                                                                                    
0000c1e1  SSIAdvDataPutFrameEnd                                                                                                                                                                                                                                                            
0000c207  SSIAdvDataPutFrameEndNonBlocking                                                                                                                                                                                                                                                 
0000c233  SSIAdvFrameHoldEnable                                                                                                                                                                                                                                                            
0000c249  SSIAdvFrameHoldDisable                                                                                                                                                                                                                                                           
0000c261  _ZN11TaskManagerC1Ev                                                                                                                                                                                                                                                             
0000c261  _ZN11TaskManagerC2Ev                                                                                                                                                                                                                                                             
0000c285  _ZN11TaskManager9draw_pageEv                                                                                                                                                                                                                                                     
0000c407  _ZN11TaskManager9draw_dataEv                                                                                                                                                                                                                                                     
0000c411  _ZN11TaskManager10draw_inputEi                                                                                                                                                                                                                                                   
0000c41d  _ZN11TaskManager10draw_resetEv                                                                                                                                                                                                                                                   
0000c427  _ZN11TaskManager9draw_helpEv                                                                                                                                                                                                                                                     
0000c505  _ZN11ErrorLogger12get_instanceEv                                                                                                                                                                                                                                                 
0000c52f  _ZN11ErrorLogger12create_errorEPKcS1_                                                                                                                                                                                                                                            
0000c591  _ZN11ErrorLogger9set_errorEP7error_t                                                                                                                                                                                                                                             
0000c5a5  _ZN11ErrorLoggerC1Ev                                                                                                                                                                                                                                                             
0000c5a5  _ZN11ErrorLoggerC2Ev                                                                                                                                                                                                                                                             
0000c5bf  _ZN11ErrorLogger9draw_pageEv                                                                                                                                                                                                                                                     
0000c609  _ZN11ErrorLogger9draw_dataEv                                                                                                                                                                                                                                                     
0000c6a5  _ZN11ErrorLogger10draw_inputEi                                                                                                                                                                                                                                                   
0000c6eb  _ZN11ErrorLogger9draw_helpEv                                                                                                                                                                                                                                                     
0000c6f5  _ZN11ErrorLogger10draw_resetEv                                                                                                                                                                                                                                                   
0000c7a5  _ZN14I2cSnifferTaskC1EP7I2cTask                                                                                                                                                                                                                                                  
0000c7a5  _ZN14I2cSnifferTaskC2EP7I2cTask                                                                                                                                                                                                                                                  
0000c80f  _ZN14I2cSnifferTask4taskEPS_                                                                                                                                                                                                                                                     
0000c913  _ZN14I2cSnifferTask14taskfunwrapperEPv                                                                                                                                                                                                                                           
0000c921  _ZN14I2cSnifferTask9draw_pageEv                                                                                                                                                                                                                                                  
0000c92d  _ZN14I2cSnifferTask9draw_dataEv                                                                                                                                                                                                                                                  
0000c937  _ZN14I2cSnifferTask10draw_inputEi                                                                                                                                                                                                                                                
0000c953  _ZN14I2cSnifferTask10draw_resetEv                                                                                                                                                                                                                                                
0000c95d  _ZN14I2cSnifferTask9draw_helpEv                                                                                                                                                                                                                                                  
0000ca75  _ZN7AdcTaskC1Ev                                                                                                                                                                                                                                                                  
0000ca75  _ZN7AdcTaskC2Ev                                                                                                                                                                                                                                                                  
0000cbbf  _ZN7AdcTask14get_adc_configEPKc                                                                                                                                                                                                                                                  
0000cc05  _ZN7AdcTask11get_adc_valEP9adc_pin_tPS_                                                                                                                                                                                                                                          
0000cc1f  _ZN7AdcTask14get_adc_structEv                                                                                                                                                                                                                                                    
0000cc2b  _ZN7AdcTask4taskEPS_                                                                                                                                                                                                                                                             
0000cc61  _ZN7AdcTask14taskfunwrapperEPv                                                                                                                                                                                                                                                   
0000cccd  pxPortInitialiseStack                                                                                                                                                                                                                                                            
0000cd59  xPortStartScheduler                                                                                                                                                                                                                                                              
0000cded  vPortEndScheduler                                                                                                                                                                                                                                                                
0000ce11  vPortEnterCritical                                                                                                                                                                                                                                                               
0000ce53  vPortExitCritical                                                                                                                                                                                                                                                                
0000ce7f  xPortSysTickHandler                                                                                                                                                                                                                                                              
0000cea5  vPortSetupTimerInterrupt                                                                                                                                                                                                                                                         
0000cec1  vPortValidateInterruptPriority                                                                                                                                                                                                                                                   
0000cf59  _ZN13NoBoosterPackC1Ev                                                                                                                                                                                                                                                           
0000cf59  _ZN13NoBoosterPackC2Ev                                                                                                                                                                                                                                                           
0000d44d  _ZN6GpiObjC1Ev                                                                                                                                                                                                                                                                   
0000d44d  _ZN6GpiObjC2Ev                                                                                                                                                                                                                                                                   
0000d579  _ZN6GpiObj10get_configEPKc                                                                                                                                                                                                                                                       
0000d5c5  _ZN6GpiObj3getEP10gpio_pin_t                                                                                                                                                                                                                                                     
0000d5e1  _ZN6GpiObj10get_structEv                                                                                                                                                                                                                                                         
0000d661  _ZN6GpoObjC1Ev                                                                                                                                                                                                                                                                   
0000d661  _ZN6GpoObjC2Ev                                                                                                                                                                                                                                                                   
0000d755  _ZN6GpoObj10get_configEPKc                                                                                                                                                                                                                                                       
0000d7a1  _ZN6GpoObj3setEP10gpio_pin_tj                                                                                                                                                                                                                                                    
0000d7cf  _ZN6GpoObj3getEP10gpio_pin_t                                                                                                                                                                                                                                                     
0000d7eb  _ZN6GpoObj10get_structEv                                                                                                                                                                                                                                                         
0000da05  __aeabi_dsub                                                                                                                                                                                                                                                                     
0000da0f  __aeabi_dadd                                                                                                                                                                                                                                                                     
0000dcf9  __aeabi_ddiv                                                                                                                                                                                                                                                                     
0000de2f  vListInitialise                                                                                                                                                                                                                                                                  
0000de5f  vListInitialiseItem                                                                                                                                                                                                                                                              
0000de6f  vListInsertEnd                                                                                                                                                                                                                                                                   
0000deab  vListInsert                                                                                                                                                                                                                                                                      
0000df11  uxListRemove                                                                                                                                                                                                                                                                     
0000e07d  fputs                                                                                                                                                                                                                                                                            
0000e191  ldexp                                                                                                                                                                                                                                                                            
0000e191  ldexpl                                                                                                                                                                                                                                                                           
0000e191  scalbn                                                                                                                                                                                                                                                                           
0000e191  scalbnl                                                                                                                                                                                                                                                                          
0000e2a1  aligned_alloc                                                                                                                                                                                                                                                                    
0000e2a1  memalign                                                                                                                                                                                                                                                                         
0000e3a1  _Z8get_charv                                                                                                                                                                                                                                                                     
0000e40b  _ZN8UartTaskC1EP15QueueDefinition                                                                                                                                                                                                                                                
0000e40b  _ZN8UartTaskC2EP15QueueDefinition                                                                                                                                                                                                                                                
0000e49d  __aeabi_dmul                                                                                                                                                                                                                                                                     
0000e599  _ZN8TestTaskC1Ev                                                                                                                                                                                                                                                                 
0000e599  _ZN8TestTaskC2Ev                                                                                                                                                                                                                                                                 
0000e5c9  _ZN8TestTask4taskEPS_                                                                                                                                                                                                                                                            
0000e5df  _ZN8TestTask14taskfunwrapperEPv                                                                                                                                                                                                                                                  
0000e5ed  _ZN8TestTask9draw_pageEv                                                                                                                                                                                                                                                         
0000e605  _ZN8TestTask9draw_dataEv                                                                                                                                                                                                                                                         
0000e60f  _ZN8TestTask10draw_inputEi                                                                                                                                                                                                                                                       
0000e623  _ZN8TestTask9draw_helpEv                                                                                                                                                                                                                                                         
0000e62f  _ZN8TestTask10draw_resetEv                                                                                                                                                                                                                                                       
0000e68d  free                                                                                                                                                                                                                                                                             
0000e771  setvbuf                                                                                                                                                                                                                                                                          
0000e85d  ulPortGetIPSR                                                                                                                                                                                                                                                                    
0000e875  xPortPendSVHandler                                                                                                                                                                                                                                                               
0000e8d5  vPortSVCHandler                                                                                                                                                                                                                                                                  
0000e8f5  vPortStartFirstTask                                                                                                                                                                                                                                                              
0000e919  vPortEnableVFP                                                                                                                                                                                                                                                                   
0000e929  _ZN7TextCtl13set_text_modeEj                                                                                                                                                                                                                                                     
0000e937  _ZN7TextCtl10text_colorEj                                                                                                                                                                                                                                                        
0000e945  _ZN7TextCtl15bold_text_colorEj                                                                                                                                                                                                                                                   
0000e953  _ZN7TextCtl9bgd_colorEj                                                                                                                                                                                                                                                          
0000e961  _ZN7TextCtl10cursor_posEjj                                                                                                                                                                                                                                                       
0000e973  _ZN7TextCtl15save_cursor_posEv                                                                                                                                                                                                                                                   
0000e97d  _ZN7TextCtl18restore_cursor_posEv                                                                                                                                                                                                                                                
0000e987  _ZN7TextCtl14clear_terminalEv                                                                                                                                                                                                                                                    
0000e991  _ZN7TextCtl10clear_lineEv                                                                                                                                                                                                                                                        
0000e99b  _ZN7TextCtl13clear_in_lineEv                                                                                                                                                                                                                                                     
0000e9a5  _ZN7TextCtl16clear_below_lineEv                                                                                                                                                                                                                                                  
0000e9fd  FPUEnable                                                                                                                                                                                                                                                                        
0000ea0f  FPUDisable                                                                                                                                                                                                                                                                       
0000ea1d  FPUStackingEnable                                                                                                                                                                                                                                                                
0000ea2f  FPULazyStackingEnable                                                                                                                                                                                                                                                            
0000ea3b  FPUStackingDisable                                                                                                                                                                                                                                                               
0000ea47  FPUHalfPrecisionModeSet                                                                                                                                                                                                                                                          
0000ea61  FPUNaNModeSet                                                                                                                                                                                                                                                                    
0000ea7b  FPUFlushToZeroModeSet                                                                                                                                                                                                                                                            
0000ea95  FPURoundingModeSet                                                                                                                                                                                                                                                               
0000eb6f  _ZNSt3__26vectorIP6I2cMsgNS_9allocatorIS2_EEE6assignIPS2_EENS_9enable_ifIXaasr3std3__221__is_forward_iteratorIT_EE5valuesr3std3__216is_constructibleIS2_JNS_15iterator_traitsIS9_E9referenceEEEE5valueEvE4typeES9_S9_                                                            
0000ec1f  __aeabi_memcpy                                                                                                                                                                                                                                                                   
0000ec1f  __aeabi_memcpy4                                                                                                                                                                                                                                                                  
0000ec1f  __aeabi_memcpy8                                                                                                                                                                                                                                                                  
0000ec1f  memcpy                                                                                                                                                                                                                                                                           
0000ecbb  __aeabi_uldivmod                                                                                                                                                                                                                                                                 
0000ed51  __aeabi_cdcmpeq                                                                                                                                                                                                                                                                  
0000ed51  __aeabi_cdcmple                                                                                                                                                                                                                                                                  
0000edd7  __aeabi_cdrcmple                                                                                                                                                                                                                                                                 
0000ee5d  fflush                                                                                                                                                                                                                                                                           
0000eed9  __aeabi_memclr                                                                                                                                                                                                                                                                   
0000eed9  __aeabi_memclr4                                                                                                                                                                                                                                                                  
0000eed9  __aeabi_memclr8                                                                                                                                                                                                                                                                  
0000eedb  __aeabi_memset                                                                                                                                                                                                                                                                   
0000eedb  __aeabi_memset4                                                                                                                                                                                                                                                                  
0000eedb  __aeabi_memset8                                                                                                                                                                                                                                                                  
0000eee1  memset                                                                                                                                                                                                                                                                           
0000ef55  __TI_closefile                                                                                                                                                                                                                                                                   
0000f0a9  HOSTrename                                                                                                                                                                                                                                                                       
0000f115  _ZNSt3__26vectorIP11ConsolePageNS_9allocatorIS2_EEE26__swap_out_circular_bufferERNS_14__split_bufferIS2_RS4_EE                                                                                                                                                                   
0000f181  _ZNSt3__26vectorIP6I2cMsgNS_9allocatorIS2_EEE26__swap_out_circular_bufferERNS_14__split_bufferIS2_RS4_EE                                                                                                                                                                         
0000f1ed  _ZNSt3__26vectorIP6SpiMsgNS_9allocatorIS2_EEE26__swap_out_circular_bufferERNS_14__split_bufferIS2_RS4_EE                                                                                                                                                                         
0000f259  _ZNSt3__26vectorIP7MenuRowNS_9allocatorIS2_EEE26__swap_out_circular_bufferERNS_14__split_bufferIS2_RS4_EE                                                                                                                                                                        
0000f2c5  HOSTlseek                                                                                                                                                                                                                                                                        
0000f32d  __TI_decompress_lzss                                                                                                                                                                                                                                                             
0000f395  _ZNSt3__26vectorIP11ConsolePageNS_9allocatorIS2_EEE21__push_back_slow_pathIRKS2_EEvOT_                                                                                                                                                                                           
0000f3f9  _ZNSt3__26vectorIP6I2cMsgNS_9allocatorIS2_EEE21__push_back_slow_pathIS2_EEvOT_                                                                                                                                                                                                   
0000f45d  _ZNSt3__26vectorIP6SpiMsgNS_9allocatorIS2_EEE21__push_back_slow_pathIS2_EEvOT_                                                                                                                                                                                                   
0000f4c1  _ZNSt3__26vectorIP7MenuRowNS_9allocatorIS2_EEE21__push_back_slow_pathIRKS2_EEvOT_                                                                                                                                                                                                
0000f525  frexp                                                                                                                                                                                                                                                                            
0000f525  frexpl                                                                                                                                                                                                                                                                           
0000f589  fseek                                                                                                                                                                                                                                                                            
0000f5ed  _ZNSt3__26vectorIP6I2cMsgNS_9allocatorIS2_EEE9push_backEOS2_                                                                                                                                                                                                                     
0000f64f  _ZNSt3__26vectorIP6SpiMsgNS_9allocatorIS2_EEE9push_backEOS2_                                                                                                                                                                                                                     
0000f6b1  __TI_wrt_ok                                                                                                                                                                                                                                                                      
0000f715  HOSTopen                                                                                                                                                                                                                                                                         
0000f775  _ZNSt3__214__split_bufferIP11ConsolePageRNS_9allocatorIS2_EEEC1EjjS5_                                                                                                                                                                                                            
0000f7d5  _ZNSt3__214__split_bufferIP6I2cMsgRNS_9allocatorIS2_EEEC1EjjS5_                                                                                                                                                                                                                  
0000f835  _ZNSt3__214__split_bufferIP6SpiMsgRNS_9allocatorIS2_EEEC1EjjS5_                                                                                                                                                                                                                  
0000f895  _ZNSt3__214__split_bufferIP7MenuRowRNS_9allocatorIS2_EEEC1EjjS5_                                                                                                                                                                                                                 
0000f8f5  _Z17int_to_bin_stringjPh                                                                                                                                                                                                                                                         
0000f955  close                                                                                                                                                                                                                                                                            
0000f9b1  HOSTread                                                                                                                                                                                                                                                                         
0000fa09  HOSTwrite                                                                                                                                                                                                                                                                        
0000fa61  _ZNKSt3__26vectorIP11ConsolePageNS_9allocatorIS2_EEE17__annotate_deleteEv                                                                                                                                                                                                        
0000fab7  _ZNKSt3__26vectorIP6I2cMsgNS_9allocatorIS2_EEE17__annotate_deleteEv                                                                                                                                                                                                              
0000fb0d  _ZNKSt3__26vectorIP6SpiMsgNS_9allocatorIS2_EEE17__annotate_deleteEv                                                                                                                                                                                                              
0000fb63  _ZNKSt3__26vectorIP7MenuRowNS_9allocatorIS2_EEE17__annotate_deleteEv                                                                                                                                                                                                             
0000fbb9  _ZNSt3__26vectorIP11ConsolePageNS_9allocatorIS2_EEE9push_backERKS2_                                                                                                                                                                                                              
0000fc0f  _ZNSt3__26vectorIP7MenuRowNS_9allocatorIS2_EEE9push_backERKS2_                                                                                                                                                                                                                   
0000fcbb  _ZNKSt3__26vectorIP11ConsolePageNS_9allocatorIS2_EEE14__annotate_newEj                                                                                                                                                                                                           
0000fd0f  _ZNKSt3__26vectorIP6I2cMsgNS_9allocatorIS2_EEE14__annotate_newEj                                                                                                                                                                                                                 
0000fd63  _ZNKSt3__26vectorIP6SpiMsgNS_9allocatorIS2_EEE14__annotate_newEj                                                                                                                                                                                                                 
0000fdb7  _ZNKSt3__26vectorIP7MenuRowNS_9allocatorIS2_EEE14__annotate_newEj                                                                                                                                                                                                                
0000fe0b  __TI_ltoa                                                                                                                                                                                                                                                                        
0000fe5f  _ZNKSt3__26vectorIP6I2cMsgNS_9allocatorIS2_EEE17__annotate_shrinkEj                                                                                                                                                                                                              
0000ff03  __TI_doflush                                                                                                                                                                                                                                                                     
0000ff51  atoi                                                                                                                                                                                                                                                                             
0000ff9d  _ZNKSt3__26vectorIP11ConsolePageNS_9allocatorIS2_EEE11__recommendEj                                                                                                                                                                                                              
0000ffe7  _ZNKSt3__26vectorIP6I2cMsgNS_9allocatorIS2_EEE11__recommendEj                                                                                                                                                                                                                    
00010031  _ZNKSt3__26vectorIP6SpiMsgNS_9allocatorIS2_EEE11__recommendEj                                                                                                                                                                                                                    
0001007b  _ZNKSt3__26vectorIP7MenuRowNS_9allocatorIS2_EEE11__recommendEj                                                                                                                                                                                                                   
000100c5  _ZNSt3__26vectorIP6I2cMsgNS_9allocatorIS2_EEE8allocateEj                                                                                                                                                                                                                         
0001010d  exit                                                                                                                                                                                                                                                                             
00010155  __aeabi_d2iz                                                                                                                                                                                                                                                                     
0001019d  HOSTclose                                                                                                                                                                                                                                                                        
000101e1  HOSTunlink                                                                                                                                                                                                                                                                       
00010225  __TI_auto_init_nobinit_nopinit                                                                                                                                                                                                                                                   
00010269  getdevice                                                                                                                                                                                                                                                                        
000102ad  __aeabi_d2uiz                                                                                                                                                                                                                                                                    
000102f1  _ZNSt3__213__vector_baseIP6I2cMsgNS_9allocatorIS2_EEE17__destruct_at_endEPS2_                                                                                                                                                                                                    
00010331  _ZNSt3__26vectorIP6I2cMsgNS_9allocatorIS2_EEE10deallocateEv                                                                                                                                                                                                                      
00010371  __aeabi_uidiv                                                                                                                                                                                                                                                                    
00010371  __aeabi_uidivmod                                                                                                                                                                                                                                                                 
000103b1  sprintf                                                                                                                                                                                                                                                                          
0001042f  CPUcpsid                                                                                                                                                                                                                                                                         
0001043b  CPUprimask                                                                                                                                                                                                                                                                       
00010445  CPUcpsie                                                                                                                                                                                                                                                                         
00010451  CPUwfi                                                                                                                                                                                                                                                                           
00010455  CPUbasepriSet                                                                                                                                                                                                                                                                    
00010463  CPUbasepriGet                                                                                                                                                                                                                                                                    
0001046d  _ZNSt3__216allocator_traitsINS_9allocatorIP11ConsolePageEEE20__construct_backwardIS3_EENS_9enable_ifIXaaoosr3std3__27is_sameIS4_NS1_IT_EEEE5valuentsr3std3__215__has_constructIS4_PS8_JS8_EEE5valuesr3std3__231is_trivially_move_constructibleIS8_EE5valueEvE4typeERS4_SA_SA_RSA_
000104a9  _ZNSt3__216allocator_traitsINS_9allocatorIP6I2cMsgEEE20__construct_backwardIS3_EENS_9enable_ifIXaaoosr3std3__27is_sameIS4_NS1_IT_EEEE5valuentsr3std3__215__has_constructIS4_PS8_JS8_EEE5valuesr3std3__231is_trivially_move_constructibleIS8_EE5valueEvE4typeERS4_SA_SA_RSA_      
000104e5  _ZNSt3__216allocator_traitsINS_9allocatorIP6I2cMsgEEE25__construct_range_forwardIS3_EENS_9enable_ifIXaaoosr3std3__27is_sameIS4_NS1_IT_EEEE5valuentsr3std3__215__has_constructIS4_PS8_JS8_EEE5valuesr3std3__231is_trivially_move_constructibleIS8_EE5valueEvE4typeERS4_SA_SA_RSA_ 
00010521  _ZNSt3__216allocator_traitsINS_9allocatorIP6SpiMsgEEE20__construct_backwardIS3_EENS_9enable_ifIXaaoosr3std3__27is_sameIS4_NS1_IT_EEEE5valuentsr3std3__215__has_constructIS4_PS8_JS8_EEE5valuesr3std3__231is_trivially_move_constructibleIS8_EE5valueEvE4typeERS4_SA_SA_RSA_      
0001055d  _ZNSt3__216allocator_traitsINS_9allocatorIP7MenuRowEEE20__construct_backwardIS3_EENS_9enable_ifIXaaoosr3std3__27is_sameIS4_NS1_IT_EEEE5valuentsr3std3__215__has_constructIS4_PS8_JS8_EEE5valuesr3std3__231is_trivially_move_constructibleIS8_EE5valueEvE4typeERS4_SA_SA_RSA_     
00010599  main                                                                                                                                                                                                                                                                             
000105d5  _ZNSt3__26vectorIP6I2cMsgNS_9allocatorIS2_EEE18__construct_at_endIPS2_EENS_9enable_ifIXsr3std3__221__is_forward_iteratorIT_EE5valueEvE4typeES9_S9_j                                                                                                                              
0001060d  __TI_writemsg                                                                                                                                                                                                                                                                    
0001063b  C$$IO$$                                                                                                                                                                                                                                                                          
00010645  _ZNSt3__214__split_bufferIP11ConsolePageRNS_9allocatorIS2_EEE17__destruct_at_endEPS2_NS_17integral_constantIbLb0EEE                                                                                                                                                              
0001067b  _ZNSt3__214__split_bufferIP6I2cMsgRNS_9allocatorIS2_EEE17__destruct_at_endEPS2_NS_17integral_constantIbLb0EEE                                                                                                                                                                    
000106b1  _ZNSt3__214__split_bufferIP6SpiMsgRNS_9allocatorIS2_EEE17__destruct_at_endEPS2_NS_17integral_constantIbLb0EEE                                                                                                                                                                    
000106e7  _ZNSt3__214__split_bufferIP7MenuRowRNS_9allocatorIS2_EEE17__destruct_at_endEPS2_NS_17integral_constantIbLb0EEE                                                                                                                                                                   
0001071d  strncpy                                                                                                                                                                                                                                                                          
00010755  __TI_cleanup                                                                                                                                                                                                                                                                     
00010789  __TI_readmsg                                                                                                                                                                                                                                                                     
000107bd  _c_int00_noargs                                                                                                                                                                                                                                                                  
000107f1  _ZNSt3__26__copyIP6I2cMsgS2_EENS_9enable_ifIXaasr3std3__27is_sameINS_12remove_constIT_E4typeET0_EE5valuesr3std3__228is_trivially_copy_assignableIS8_EE5valueEPS8_E4typeEPS5_SC_S9_                                                                                               
00010825  finddevice                                                                                                                                                                                                                                                                       
00010855  _Znwj                                                                                                                                                                                                                                                                            
00010861  _Znaj                                                                                                                                                                                                                                                                            
0001086d  _ZdlPv                                                                                                                                                                                                                                                                           
00010879  _ZdaPv                                                                                                                                                                                                                                                                           
00010885  _ZNSt3__214__split_bufferIP11ConsolePageRNS_9allocatorIS2_EEED1Ev                                                                                                                                                                                                                
000108b3  _ZNSt3__214__split_bufferIP6I2cMsgRNS_9allocatorIS2_EEED1Ev                                                                                                                                                                                                                      
000108e1  _ZNSt3__214__split_bufferIP6SpiMsgRNS_9allocatorIS2_EEED1Ev                                                                                                                                                                                                                      
0001090f  _ZNSt3__214__split_bufferIP7MenuRowRNS_9allocatorIS2_EEED1Ev                                                                                                                                                                                                                     
0001093d  _ZNSt3__29allocatorIP11ConsolePageE9constructIS2_JRKS2_EEEvPT_DpOT0_                                                                                                                                                                                                             
0001096b  _ZNSt3__29allocatorIP6I2cMsgE9constructIS2_JS2_EEEvPT_DpOT0_                                                                                                                                                                                                                     
00010999  _ZNSt3__29allocatorIP6SpiMsgE9constructIS2_JS2_EEEvPT_DpOT0_                                                                                                                                                                                                                     
000109c7  _ZNSt3__29allocatorIP7MenuRowE9constructIS2_JRKS2_EEEvPT_DpOT0_                                                                                                                                                                                                                  
000109f5  __aeabi_i2d                                                                                                                                                                                                                                                                      
00010a25  remove                                                                                                                                                                                                                                                                           
00010a25  unlink                                                                                                                                                                                                                                                                           
00010a51  _ZNSt3__217__compressed_pairIPP11ConsolePageRNS_9allocatorIS2_EEEC1IDnS6_EEOT_OT0_                                                                                                                                                                                               
00010a7b  _ZNSt3__217__compressed_pairIPP6I2cMsgRNS_9allocatorIS2_EEEC1IDnS6_EEOT_OT0_                                                                                                                                                                                                     
00010aa5  _ZNSt3__217__compressed_pairIPP6SpiMsgRNS_9allocatorIS2_EEEC1IDnS6_EEOT_OT0_                                                                                                                                                                                                     
00010acf  _ZNSt3__217__compressed_pairIPP7MenuRowRNS_9allocatorIS2_EEEC1IDnS6_EEOT_OT0_                                                                                                                                                                                                    
00010af9  _ZNSt3__24copyIPP6I2cMsgS3_EET0_T_S5_S4_                                                                                                                                                                                                                                         
00010b23  _ZNSt3__24swapIPP11ConsolePageEENS_9enable_ifIXaasr3std3__221is_move_constructibleIT_EE5valuesr3std3__218is_move_assignableIS5_EE5valueEvE4typeERS5_S8_                                                                                                                          
00010b4d  _ZNSt3__24swapIPP6I2cMsgEENS_9enable_ifIXaasr3std3__221is_move_constructibleIT_EE5valuesr3std3__218is_move_assignableIS5_EE5valueEvE4typeERS5_S8_                                                                                                                                
00010b77  _ZNSt3__24swapIPP6SpiMsgEENS_9enable_ifIXaasr3std3__221is_move_constructibleIT_EE5valuesr3std3__218is_move_assignableIS5_EE5valueEvE4typeERS5_S8_                                                                                                                                
00010ba1  _ZNSt3__24swapIPP7MenuRowEENS_9enable_ifIXaasr3std3__221is_move_constructibleIT_EE5valuesr3std3__218is_move_assignableIS5_EE5valueEvE4typeERS5_S8_                                                                                                                               
00010bcb  vApplicationMallocFailedHook                                                                                                                                                                                                                                                     
00010bdb  vApplicationIdleHook                                                                                                                                                                                                                                                             
00010bdd  vApplicationStackOverflowHook                                                                                                                                                                                                                                                    
00010bf5  _ZNSt3__213__vector_baseIP11ConsolePageNS_9allocatorIS2_EEEC1Ev                                                                                                                                                                                                                  
00010c1d  _ZNSt3__213__vector_baseIP6I2cMsgNS_9allocatorIS2_EEEC1Ev                                                                                                                                                                                                                        
00010c45  _ZNSt3__213__vector_baseIP6SpiMsgNS_9allocatorIS2_EEEC1Ev                                                                                                                                                                                                                        
00010c6d  _ZNSt3__213__vector_baseIP7MenuRowNS_9allocatorIS2_EEEC1Ev                                                                                                                                                                                                                       
00010c95  _ZNSt3__26vectorIP6I2cMsgNS_9allocatorIS2_EEE17__destruct_at_endEPS2_                                                                                                                                                                                                            
00010cbd  _ZNSt3__26vectorIP6I2cMsgNS_9allocatorIS2_EEEaSERKS5_                                                                                                                                                                                                                            
00010ce5  _ZNSt3__29allocatorIP11ConsolePageE8allocateEjPKv                                                                                                                                                                                                                                
00010d0d  _ZNSt3__29allocatorIP6I2cMsgE8allocateEjPKv                                                                                                                                                                                                                                      
00010d35  _ZNSt3__29allocatorIP6SpiMsgE8allocateEjPKv                                                                                                                                                                                                                                      
00010d5d  _ZNSt3__29allocatorIP7MenuRowE8allocateEjPKv                                                                                                                                                                                                                                     
00010dad  lseek                                                                                                                                                                                                                                                                            
00010dd5  memmove                                                                                                                                                                                                                                                                          
00010dfd  write                                                                                                                                                                                                                                                                            
00010e25  _ZNKSt3__26vectorIP11ConsolePageNS_9allocatorIS2_EEE8max_sizeEv                                                                                                                                                                                                                  
00010e49  _ZNKSt3__26vectorIP6I2cMsgNS_9allocatorIS2_EEE8max_sizeEv                                                                                                                                                                                                                        
00010e6d  _ZNKSt3__26vectorIP6SpiMsgNS_9allocatorIS2_EEE8max_sizeEv                                                                                                                                                                                                                        
00010e91  _ZNKSt3__26vectorIP7MenuRowNS_9allocatorIS2_EEE8max_sizeEv                                                                                                                                                                                                                       
00010eb5  _ZNSt3__216allocator_traitsINS_9allocatorIP11ConsolePageEEE11__constructIS3_JRKS3_EEEvNS_17integral_constantIbLb1EEERS4_PT_DpOT0_                                                                                                                                                
00010ed9  _ZNSt3__216allocator_traitsINS_9allocatorIP11ConsolePageEEE9constructIS3_JRKS3_EEEvRS4_PT_DpOT0_                                                                                                                                                                                 
00010efd  _ZNSt3__216allocator_traitsINS_9allocatorIP6I2cMsgEEE11__constructIS3_JS3_EEEvNS_17integral_constantIbLb1EEERS4_PT_DpOT0_                                                                                                                                                        
00010f21  _ZNSt3__216allocator_traitsINS_9allocatorIP6I2cMsgEEE9constructIS3_JS3_EEEvRS4_PT_DpOT0_                                                                                                                                                                                         
00010f45  _ZNSt3__216allocator_traitsINS_9allocatorIP6SpiMsgEEE11__constructIS3_JS3_EEEvNS_17integral_constantIbLb1EEERS4_PT_DpOT0_                                                                                                                                                        
00010f69  _ZNSt3__216allocator_traitsINS_9allocatorIP6SpiMsgEEE9constructIS3_JS3_EEEvRS4_PT_DpOT0_                                                                                                                                                                                         
00010f8d  _ZNSt3__216allocator_traitsINS_9allocatorIP7MenuRowEEE11__constructIS3_JRKS3_EEEvNS_17integral_constantIbLb1EEERS4_PT_DpOT0_                                                                                                                                                     
00010fb1  _ZNSt3__216allocator_traitsINS_9allocatorIP7MenuRowEEE9constructIS3_JRKS3_EEEvRS4_PT_DpOT0_                                                                                                                                                                                      
00010fd5  _ZNSt3__26vectorIP6I2cMsgNS_9allocatorIS2_EEE5clearEv                                                                                                                                                                                                                            
00010ff7  memchr                                                                                                                                                                                                                                                                           
00011017  __aeabi_ui2d                                                                                                                                                                                                                                                                     
00011037  _ZNKSt3__26__lessIjjEclERKjS3_                                                                                                                                                                                                                                                   
00011055  _ZNSt3__217__compressed_pairIPP11ConsolePageNS_9allocatorIS2_EEEC1IDnLb1EEEOT_                                                                                                                                                                                                   
00011073  _ZNSt3__217__compressed_pairIPP6I2cMsgNS_9allocatorIS2_EEEC1IDnLb1EEEOT_                                                                                                                                                                                                         
00011091  _ZNSt3__217__compressed_pairIPP6SpiMsgNS_9allocatorIS2_EEEC1IDnLb1EEEOT_                                                                                                                                                                                                         
000110af  _ZNSt3__217__compressed_pairIPP7MenuRowNS_9allocatorIS2_EEEC1IDnLb1EEEOT_                                                                                                                                                                                                        
000110cd  _ZNSt3__23maxIjNS_6__lessIjjEEEERKT_S5_S5_T0_                                                                                                                                                                                                                                    
000110eb  _ZNSt3__23minIjNS_6__lessIjjEEEERKT_S5_S5_T0_                                                                                                                                                                                                                                    
00011109  _ZNSt3__29__advanceIPP6I2cMsgEEvRT_NS_15iterator_traitsIS4_E15difference_typeENS_26random_access_iterator_tagE                                                                                                                                                                   
00011125  _abort_msg                                                                                                                                                                                                                                                                       
0001115d  memccpy                                                                                                                                                                                                                                                                          
00011179  copysign                                                                                                                                                                                                                                                                         
00011179  copysignl                                                                                                                                                                                                                                                                        
00011193  _ZNSt3__210__distanceIPP6I2cMsgEENS_15iterator_traitsIT_E15difference_typeES5_S5_NS_26random_access_iterator_tagE                                                                                                                                                                
000111c3  strcmp                                                                                                                                                                                                                                                                           
000111db  _ZNKSt3__213__vector_baseIP11ConsolePageNS_9allocatorIS2_EEE8capacityEv                                                                                                                                                                                                          
000111f1  _ZNKSt3__213__vector_baseIP6I2cMsgNS_9allocatorIS2_EEE8capacityEv                                                                                                                                                                                                                
00011207  _ZNKSt3__213__vector_baseIP6SpiMsgNS_9allocatorIS2_EEE8capacityEv                                                                                                                                                                                                                
0001121d  _ZNKSt3__213__vector_baseIP7MenuRowNS_9allocatorIS2_EEE8capacityEv                                                                                                                                                                                                               
00011233  _ZNKSt3__214__split_bufferIP11ConsolePageRNS_9allocatorIS2_EEE8capacityEv                                                                                                                                                                                                        
00011249  _ZNKSt3__214__split_bufferIP6I2cMsgRNS_9allocatorIS2_EEE8capacityEv                                                                                                                                                                                                              
0001125f  _ZNKSt3__214__split_bufferIP6SpiMsgRNS_9allocatorIS2_EEE8capacityEv                                                                                                                                                                                                              
00011275  _ZNKSt3__214__split_bufferIP7MenuRowRNS_9allocatorIS2_EEE8capacityEv                                                                                                                                                                                                             
0001128b  _ZNKSt3__26vectorIP11ConsolePageNS_9allocatorIS2_EEE4sizeEv                                                                                                                                                                                                                      
000112a1  _ZNKSt3__26vectorIP6I2cMsgNS_9allocatorIS2_EEE4sizeEv                                                                                                                                                                                                                            
000112b7  _ZNKSt3__26vectorIP6SpiMsgNS_9allocatorIS2_EEE4sizeEv                                                                                                                                                                                                                            
000112cd  _ZNKSt3__26vectorIP7MenuRowNS_9allocatorIS2_EEE4sizeEv                                                                                                                                                                                                                           
000112e3  _ZNSt3__222__compressed_pair_elemIPP11ConsolePageLi0ELb0EEC1IDnvEEOT_                                                                                                                                                                                                            
000112f9  _ZNSt3__222__compressed_pair_elemIPP6I2cMsgLi0ELb0EEC1IDnvEEOT_                                                                                                                                                                                                                  
0001130f  _ZNSt3__222__compressed_pair_elemIPP6SpiMsgLi0ELb0EEC1IDnvEEOT_                                                                                                                                                                                                                  
00011325  _ZNSt3__222__compressed_pair_elemIPP7MenuRowLi0ELb0EEC1IDnvEEOT_                                                                                                                                                                                                                 
0001133b  _ZNSt3__26vectorIP11ConsolePageNS_9allocatorIS2_EEEixEj                                                                                                                                                                                                                          
00011351  _ZNSt3__26vectorIP6I2cMsgNS_9allocatorIS2_EEEixEj                                                                                                                                                                                                                                
00011367  _ZNSt3__26vectorIP6SpiMsgNS_9allocatorIS2_EEEixEj                                                                                                                                                                                                                                
0001137d  _ZNSt3__26vectorIP7MenuRowNS_9allocatorIS2_EEEixEj                                                                                                                                                                                                                               
00011393  strchr                                                                                                                                                                                                                                                                           
000113a9  _ZNSt3__213__vector_baseIP6I2cMsgNS_9allocatorIS2_EEE19__copy_assign_allocERKS5_                                                                                                                                                                                                 
000113bd  _ZNSt3__214__split_bufferIP11ConsolePageRNS_9allocatorIS2_EEE17__destruct_at_endEPS2_                                                                                                                                                                                            
000113d1  _ZNSt3__214__split_bufferIP6I2cMsgRNS_9allocatorIS2_EEE17__destruct_at_endEPS2_                                                                                                                                                                                                  
000113e5  _ZNSt3__214__split_bufferIP6SpiMsgRNS_9allocatorIS2_EEE17__destruct_at_endEPS2_                                                                                                                                                                                                  
000113f9  _ZNSt3__214__split_bufferIP7MenuRowRNS_9allocatorIS2_EEE17__destruct_at_endEPS2_                                                                                                                                                                                                 
0001140d  _ZNSt3__216allocator_traitsINS_9allocatorIP11ConsolePageEEE10deallocateERS4_PS3_j                                                                                                                                                                                                
00011421  _ZNSt3__216allocator_traitsINS_9allocatorIP11ConsolePageEEE7destroyIS3_EEvRS4_PT_                                                                                                                                                                                                
00011435  _ZNSt3__216allocator_traitsINS_9allocatorIP11ConsolePageEEE9__destroyIS3_EEvNS_17integral_constantIbLb1EEERS4_PT_                                                                                                                                                                
00011449  _ZNSt3__216allocator_traitsINS_9allocatorIP6I2cMsgEEE10deallocateERS4_PS3_j                                                                                                                                                                                                      
0001145d  _ZNSt3__216allocator_traitsINS_9allocatorIP6I2cMsgEEE7destroyIS3_EEvRS4_PT_                                                                                                                                                                                                      
00011471  _ZNSt3__216allocator_traitsINS_9allocatorIP6I2cMsgEEE9__destroyIS3_EEvNS_17integral_constantIbLb1EEERS4_PT_                                                                                                                                                                      
00011485  _ZNSt3__216allocator_traitsINS_9allocatorIP6SpiMsgEEE10deallocateERS4_PS3_j                                                                                                                                                                                                      
00011499  _ZNSt3__216allocator_traitsINS_9allocatorIP6SpiMsgEEE7destroyIS3_EEvRS4_PT_                                                                                                                                                                                                      
000114ad  _ZNSt3__216allocator_traitsINS_9allocatorIP6SpiMsgEEE9__destroyIS3_EEvNS_17integral_constantIbLb1EEERS4_PT_                                                                                                                                                                      
000114c1  _ZNSt3__216allocator_traitsINS_9allocatorIP7MenuRowEEE10deallocateERS4_PS3_j                                                                                                                                                                                                     
000114d5  _ZNSt3__216allocator_traitsINS_9allocatorIP7MenuRowEEE7destroyIS3_EEvRS4_PT_                                                                                                                                                                                                     
000114e9  _ZNSt3__216allocator_traitsINS_9allocatorIP7MenuRowEEE9__destroyIS3_EEvNS_17integral_constantIbLb1EEERS4_PT_                                                                                                                                                                     
000114fd  _ZNSt3__222__compressed_pair_elemIRNS_9allocatorIP11ConsolePageEELi1ELb0EEC1IS5_vEEOT_                                                                                                                                                                                           
00011511  _ZNSt3__222__compressed_pair_elemIRNS_9allocatorIP6I2cMsgEELi1ELb0EEC1IS5_vEEOT_                                                                                                                                                                                                 
00011525  _ZNSt3__222__compressed_pair_elemIRNS_9allocatorIP6SpiMsgEELi1ELb0EEC1IS5_vEEOT_                                                                                                                                                                                                 
00011539  _ZNSt3__222__compressed_pair_elemIRNS_9allocatorIP7MenuRowEELi1ELb0EEC1IS5_vEEOT_                                                                                                                                                                                                
0001154d  _ZNSt3__23maxIjEERKT_S3_S3_                                                                                                                                                                                                                                                      
00011561  _ZNSt3__23minIjEERKT_S3_S3_                                                                                                                                                                                                                                                      
00011575  _ZNSt3__27advanceIPP6I2cMsgEEvRT_NS_15iterator_traitsIS4_E15difference_typeE                                                                                                                                                                                                     
00011589  _ZNSt3__28distanceIPP6I2cMsgEENS_15iterator_traitsIT_E15difference_typeES5_S5_                                                                                                                                                                                                   
0001159d  strcpy                                                                                                                                                                                                                                                                           
000115b1  strlen                                                                                                                                                                                                                                                                           
000115c5  _ZNSt3__216allocator_traitsINS_9allocatorIP11ConsolePageEEE8allocateERS4_j                                                                                                                                                                                                       
000115d7  _ZNSt3__216allocator_traitsINS_9allocatorIP6I2cMsgEEE8allocateERS4_j                                                                                                                                                                                                             
000115e9  _ZNSt3__216allocator_traitsINS_9allocatorIP6SpiMsgEEE8allocateERS4_j                                                                                                                                                                                                             
000115fb  _ZNSt3__216allocator_traitsINS_9allocatorIP7MenuRowEEE8allocateERS4_j                                                                                                                                                                                                            
0001160d  wcslen                                                                                                                                                                                                                                                                           
0001161f  _ZNKSt3__26vectorIP11ConsolePageNS_9allocatorIS2_EEE31__annotate_contiguous_containerEPKvS7_S7_S7_                                                                                                                                                                               
0001162f  _ZNKSt3__26vectorIP6I2cMsgNS_9allocatorIS2_EEE31__annotate_contiguous_containerEPKvS7_S7_S7_                                                                                                                                                                                     
0001163f  _ZNKSt3__26vectorIP6SpiMsgNS_9allocatorIS2_EEE31__annotate_contiguous_containerEPKvS7_S7_S7_                                                                                                                                                                                     
0001164f  _ZNKSt3__26vectorIP7MenuRowNS_9allocatorIS2_EEE31__annotate_contiguous_containerEPKvS7_S7_S7_                                                                                                                                                                                    
0001165f  _ZNSt3__213__vector_baseIP6I2cMsgNS_9allocatorIS2_EEE19__copy_assign_allocERKS5_NS_17integral_constantIbLb0EEE                                                                                                                                                                   
0001166f  _ZNSt3__213__vector_baseIP6I2cMsgNS_9allocatorIS2_EEE5clearEv                                                                                                                                                                                                                    
0001167f  _ZNSt3__214__split_bufferIP11ConsolePageRNS_9allocatorIS2_EEE5clearEv                                                                                                                                                                                                            
0001168f  _ZNSt3__214__split_bufferIP6I2cMsgRNS_9allocatorIS2_EEE5clearEv                                                                                                                                                                                                                  
0001169f  _ZNSt3__214__split_bufferIP6SpiMsgRNS_9allocatorIS2_EEE5clearEv                                                                                                                                                                                                                  
000116af  _ZNSt3__214__split_bufferIP7MenuRowRNS_9allocatorIS2_EEE5clearEv                                                                                                                                                                                                                 
000116bf  _ZNSt3__216allocator_traitsINS_9allocatorIP11ConsolePageEEE10__max_sizeENS_17integral_constantIbLb1EEERKS4_                                                                                                                                                                      
000116cf  _ZNSt3__216allocator_traitsINS_9allocatorIP11ConsolePageEEE8max_sizeERKS4_                                                                                                                                                                                                       
000116df  _ZNSt3__216allocator_traitsINS_9allocatorIP6I2cMsgEEE10__max_sizeENS_17integral_constantIbLb1EEERKS4_                                                                                                                                                                            
000116ef  _ZNSt3__216allocator_traitsINS_9allocatorIP6I2cMsgEEE8max_sizeERKS4_                                                                                                                                                                                                             
000116ff  _ZNSt3__216allocator_traitsINS_9allocatorIP6SpiMsgEEE10__max_sizeENS_17integral_constantIbLb1EEERKS4_                                                                                                                                                                            
0001170f  _ZNSt3__216allocator_traitsINS_9allocatorIP6SpiMsgEEE8max_sizeERKS4_                                                                                                                                                                                                             
0001171f  _ZNSt3__216allocator_traitsINS_9allocatorIP7MenuRowEEE10__max_sizeENS_17integral_constantIbLb1EEERKS4_                                                                                                                                                                           
0001172f  _ZNSt3__216allocator_traitsINS_9allocatorIP7MenuRowEEE8max_sizeERKS4_                                                                                                                                                                                                            
0001173f  _ZNSt3__222__compressed_pair_elemIPP11ConsolePageLi0ELb0EEC2IDnvEEOT_                                                                                                                                                                                                            
0001174f  _ZNSt3__222__compressed_pair_elemIPP6I2cMsgLi0ELb0EEC2IDnvEEOT_                                                                                                                                                                                                                  
0001175f  _ZNSt3__222__compressed_pair_elemIPP6SpiMsgLi0ELb0EEC2IDnvEEOT_                                                                                                                                                                                                                  
0001176f  _ZNSt3__222__compressed_pair_elemIPP7MenuRowLi0ELb0EEC2IDnvEEOT_                                                                                                                                                                                                                 
0001177f  _ZNSt3__222__compressed_pair_elemIRNS_9allocatorIP11ConsolePageEELi1ELb0EEC2IS5_vEEOT_                                                                                                                                                                                           
0001178f  _ZNSt3__222__compressed_pair_elemIRNS_9allocatorIP6I2cMsgEELi1ELb0EEC2IS5_vEEOT_                                                                                                                                                                                                 
0001179f  _ZNSt3__222__compressed_pair_elemIRNS_9allocatorIP6SpiMsgEELi1ELb0EEC2IS5_vEEOT_                                                                                                                                                                                                 
000117af  _ZNSt3__222__compressed_pair_elemIRNS_9allocatorIP7MenuRowEELi1ELb0EEC2IS5_vEEOT_                                                                                                                                                                                                
000117bf  _ZNSt3__26vectorIP11ConsolePageNS_9allocatorIS2_EEE24__RAII_IncreaseAnnotatorC1ERKS5_j                                                                                                                                                                                           
000117cf  _ZNSt3__26vectorIP6I2cMsgNS_9allocatorIS2_EEE24__RAII_IncreaseAnnotatorC1ERKS5_j                                                                                                                                                                                                 
000117df  _ZNSt3__26vectorIP6SpiMsgNS_9allocatorIS2_EEE24__RAII_IncreaseAnnotatorC1ERKS5_j                                                                                                                                                                                                 
000117ef  _ZNSt3__26vectorIP7MenuRowNS_9allocatorIS2_EEE24__RAII_IncreaseAnnotatorC1ERKS5_j                                                                                                                                                                                                
000117ff  _ZNSt3__29allocatorIP11ConsolePageE10deallocateEPS2_j                                                                                                                                                                                                                            
0001180f  _ZNSt3__29allocatorIP6I2cMsgE10deallocateEPS2_j                                                                                                                                                                                                                                  
0001181f  _ZNSt3__29allocatorIP6SpiMsgE10deallocateEPS2_j                                                                                                                                                                                                                                  
0001182f  _ZNSt3__29allocatorIP7MenuRowE10deallocateEPS2_j                                                                                                                                                                                                                                 
0001183f  _ZN10__cxxabiv117__class_type_infoD0Ev                                                                                                                                                                                                                                           
0001184d  _ZN10__cxxabiv120__si_class_type_infoD0Ev                                                                                                                                                                                                                                        
0001185b  _ZNKSt3__213__vector_baseIP11ConsolePageNS_9allocatorIS2_EEE7__allocEv                                                                                                                                                                                                           
00011869  _ZNKSt3__213__vector_baseIP11ConsolePageNS_9allocatorIS2_EEE9__end_capEv                                                                                                                                                                                                         
00011877  _ZNKSt3__213__vector_baseIP6I2cMsgNS_9allocatorIS2_EEE7__allocEv                                                                                                                                                                                                                 
00011885  _ZNKSt3__213__vector_baseIP6I2cMsgNS_9allocatorIS2_EEE9__end_capEv                                                                                                                                                                                                               
00011893  _ZNKSt3__213__vector_baseIP6SpiMsgNS_9allocatorIS2_EEE7__allocEv                                                                                                                                                                                                                 
000118a1  _ZNKSt3__213__vector_baseIP6SpiMsgNS_9allocatorIS2_EEE9__end_capEv                                                                                                                                                                                                               
000118af  _ZNKSt3__213__vector_baseIP7MenuRowNS_9allocatorIS2_EEE7__allocEv                                                                                                                                                                                                                
000118bd  _ZNKSt3__213__vector_baseIP7MenuRowNS_9allocatorIS2_EEE9__end_capEv                                                                                                                                                                                                              
000118cb  _ZNKSt3__214__split_bufferIP11ConsolePageRNS_9allocatorIS2_EEE9__end_capEv                                                                                                                                                                                                       
000118d9  _ZNKSt3__214__split_bufferIP6I2cMsgRNS_9allocatorIS2_EEE9__end_capEv                                                                                                                                                                                                             
000118e7  _ZNKSt3__214__split_bufferIP6SpiMsgRNS_9allocatorIS2_EEE9__end_capEv                                                                                                                                                                                                             
000118f5  _ZNKSt3__214__split_bufferIP7MenuRowRNS_9allocatorIS2_EEE9__end_capEv                                                                                                                                                                                                            
00011903  _ZNKSt3__26vectorIP11ConsolePageNS_9allocatorIS2_EEE4dataEv                                                                                                                                                                                                                      
00011911  _ZNKSt3__26vectorIP6I2cMsgNS_9allocatorIS2_EEE4dataEv                                                                                                                                                                                                                            
0001191f  _ZNKSt3__26vectorIP6SpiMsgNS_9allocatorIS2_EEE4dataEv                                                                                                                                                                                                                            
0001192d  _ZNKSt3__26vectorIP7MenuRowNS_9allocatorIS2_EEE4dataEv                                                                                                                                                                                                                           
0001193b  _ZNKSt3__29allocatorIP11ConsolePageE8max_sizeEv                                                                                                                                                                                                                                  
00011949  _ZNKSt3__29allocatorIP6I2cMsgE8max_sizeEv                                                                                                                                                                                                                                        
00011957  _ZNKSt3__29allocatorIP6SpiMsgE8max_sizeEv                                                                                                                                                                                                                                        
00011965  _ZNKSt3__29allocatorIP7MenuRowE8max_sizeEv                                                                                                                                                                                                                                       
00011973  _ZNSt3__213__vector_baseIP11ConsolePageNS_9allocatorIS2_EEE7__allocEv                                                                                                                                                                                                            
00011981  _ZNSt3__213__vector_baseIP11ConsolePageNS_9allocatorIS2_EEE9__end_capEv                                                                                                                                                                                                          
0001198f  _ZNSt3__213__vector_baseIP6I2cMsgNS_9allocatorIS2_EEE7__allocEv                                                                                                                                                                                                                  
0001199d  _ZNSt3__213__vector_baseIP6I2cMsgNS_9allocatorIS2_EEE9__end_capEv                                                                                                                                                                                                                
000119ab  _ZNSt3__213__vector_baseIP6SpiMsgNS_9allocatorIS2_EEE7__allocEv                                                                                                                                                                                                                  
000119b9  _ZNSt3__213__vector_baseIP6SpiMsgNS_9allocatorIS2_EEE9__end_capEv                                                                                                                                                                                                                
000119c7  _ZNSt3__213__vector_baseIP7MenuRowNS_9allocatorIS2_EEE7__allocEv                                                                                                                                                                                                                 
000119d5  _ZNSt3__213__vector_baseIP7MenuRowNS_9allocatorIS2_EEE9__end_capEv                                                                                                                                                                                                               
000119e3  _ZNSt3__214__split_bufferIP11ConsolePageRNS_9allocatorIS2_EEE7__allocEv                                                                                                                                                                                                          
000119f1  _ZNSt3__214__split_bufferIP11ConsolePageRNS_9allocatorIS2_EEE9__end_capEv                                                                                                                                                                                                        
000119ff  _ZNSt3__214__split_bufferIP6I2cMsgRNS_9allocatorIS2_EEE7__allocEv                                                                                                                                                                                                                
00011a0d  _ZNSt3__214__split_bufferIP6I2cMsgRNS_9allocatorIS2_EEE9__end_capEv                                                                                                                                                                                                              
00011a1b  _ZNSt3__214__split_bufferIP6SpiMsgRNS_9allocatorIS2_EEE7__allocEv                                                                                                                                                                                                                
00011a29  _ZNSt3__214__split_bufferIP6SpiMsgRNS_9allocatorIS2_EEE9__end_capEv                                                                                                                                                                                                              
00011a37  _ZNSt3__214__split_bufferIP7MenuRowRNS_9allocatorIS2_EEE7__allocEv                                                                                                                                                                                                               
00011a45  _ZNSt3__214__split_bufferIP7MenuRowRNS_9allocatorIS2_EEE9__end_capEv                                                                                                                                                                                                             
00011a53  _ZNSt3__217__compressed_pairIPP11ConsolePageRNS_9allocatorIS2_EEE6secondEv                                                                                                                                                                                                       
00011a61  _ZNSt3__217__compressed_pairIPP6I2cMsgRNS_9allocatorIS2_EEE6secondEv                                                                                                                                                                                                             
00011a6f  _ZNSt3__217__compressed_pairIPP6SpiMsgRNS_9allocatorIS2_EEE6secondEv                                                                                                                                                                                                             
00011a7d  _ZNSt3__217__compressed_pairIPP7MenuRowRNS_9allocatorIS2_EEE6secondEv                                                                                                                                                                                                            
00011a8b  _ZNSt3__222__compressed_pair_elemINS_9allocatorIP11ConsolePageEELi1ELb1EEC1Ev                                                                                                                                                                                                    
00011a99  _ZNSt3__222__compressed_pair_elemINS_9allocatorIP6I2cMsgEELi1ELb1EEC1Ev                                                                                                                                                                                                          
00011aa7  _ZNSt3__222__compressed_pair_elemINS_9allocatorIP6SpiMsgEELi1ELb1EEC1Ev                                                                                                                                                                                                          
00011ab5  _ZNSt3__222__compressed_pair_elemINS_9allocatorIP7MenuRowEELi1ELb1EEC1Ev                                                                                                                                                                                                         
00011ac3  _ZNSt3__222__compressed_pair_elemIRNS_9allocatorIP11ConsolePageEELi1ELb0EE5__getEv                                                                                                                                                                                               
00011ad1  _ZNSt3__222__compressed_pair_elemIRNS_9allocatorIP6I2cMsgEELi1ELb0EE5__getEv                                                                                                                                                                                                     
00011adf  _ZNSt3__222__compressed_pair_elemIRNS_9allocatorIP6SpiMsgEELi1ELb0EE5__getEv                                                                                                                                                                                                     
00011aed  _ZNSt3__222__compressed_pair_elemIRNS_9allocatorIP7MenuRowEELi1ELb0EE5__getEv                                                                                                                                                                                                    
00011afb  _ZNSt3__26vectorIP11ConsolePageNS_9allocatorIS2_EEEC1Ev                                                                                                                                                                                                                          
00011b09  _ZNSt3__26vectorIP6I2cMsgNS_9allocatorIS2_EEEC1Ev                                                                                                                                                                                                                                
00011b17  _ZNSt3__26vectorIP6SpiMsgNS_9allocatorIS2_EEEC1Ev                                                                                                                                                                                                                                
00011b25  _ZNSt3__26vectorIP7MenuRowNS_9allocatorIS2_EEEC1Ev                                                                                                                                                                                                                               
00011b33  _ZnwjPv                                                                                                                                                                                                                                                                          
00011b41  __TI_decompress_none                                                                                                                                                                                                                                                             
00011b4f  _ZNKSt3__217__compressed_pairIPP11ConsolePageNS_9allocatorIS2_EEE5firstEv                                                                                                                                                                                                        
00011b5b  _ZNKSt3__217__compressed_pairIPP11ConsolePageNS_9allocatorIS2_EEE6secondEv                                                                                                                                                                                                       
00011b67  _ZNKSt3__217__compressed_pairIPP11ConsolePageRNS_9allocatorIS2_EEE5firstEv                                                                                                                                                                                                       
00011b73  _ZNKSt3__217__compressed_pairIPP6I2cMsgNS_9allocatorIS2_EEE5firstEv                                                                                                                                                                                                              
00011b7f  _ZNKSt3__217__compressed_pairIPP6I2cMsgNS_9allocatorIS2_EEE6secondEv                                                                                                                                                                                                             
00011b8b  _ZNKSt3__217__compressed_pairIPP6I2cMsgRNS_9allocatorIS2_EEE5firstEv                                                                                                                                                                                                             
00011b97  _ZNKSt3__217__compressed_pairIPP6SpiMsgNS_9allocatorIS2_EEE5firstEv                                                                                                                                                                                                              
00011ba3  _ZNKSt3__217__compressed_pairIPP6SpiMsgNS_9allocatorIS2_EEE6secondEv                                                                                                                                                                                                             
00011baf  _ZNKSt3__217__compressed_pairIPP6SpiMsgRNS_9allocatorIS2_EEE5firstEv                                                                                                                                                                                                             
00011bbb  _ZNKSt3__217__compressed_pairIPP7MenuRowNS_9allocatorIS2_EEE5firstEv                                                                                                                                                                                                             
00011bc7  _ZNKSt3__217__compressed_pairIPP7MenuRowNS_9allocatorIS2_EEE6secondEv                                                                                                                                                                                                            
00011bd3  _ZNKSt3__217__compressed_pairIPP7MenuRowRNS_9allocatorIS2_EEE5firstEv                                                                                                                                                                                                            
00011be1  _ZNKSt3__220__vector_base_commonILb1EE20__throw_length_errorEv                                                                                                                                                                                                                   
00011bed  _ZNKSt3__222__compressed_pair_elemINS_9allocatorIP11ConsolePageEELi1ELb1EE5__getEv                                                                                                                                                                                               
00011bf9  _ZNKSt3__222__compressed_pair_elemINS_9allocatorIP6I2cMsgEELi1ELb1EE5__getEv                                                                                                                                                                                                     
00011c05  _ZNKSt3__222__compressed_pair_elemINS_9allocatorIP6SpiMsgEELi1ELb1EE5__getEv                                                                                                                                                                                                     
00011c11  _ZNKSt3__222__compressed_pair_elemINS_9allocatorIP7MenuRowEELi1ELb1EE5__getEv                                                                                                                                                                                                    
00011c1d  _ZNKSt3__222__compressed_pair_elemIPP11ConsolePageLi0ELb0EE5__getEv                                                                                                                                                                                                              
00011c29  _ZNKSt3__222__compressed_pair_elemIPP6I2cMsgLi0ELb0EE5__getEv                                                                                                                                                                                                                    
00011c35  _ZNKSt3__222__compressed_pair_elemIPP6SpiMsgLi0ELb0EE5__getEv                                                                                                                                                                                                                    
00011c41  _ZNKSt3__222__compressed_pair_elemIPP7MenuRowLi0ELb0EE5__getEv                                                                                                                                                                                                                   
00011c4d  _ZNKSt3__26vectorIP11ConsolePageNS_9allocatorIS2_EEE8capacityEv                                                                                                                                                                                                                  
00011c59  _ZNKSt3__26vectorIP6I2cMsgNS_9allocatorIS2_EEE8capacityEv                                                                                                                                                                                                                        
00011c65  _ZNKSt3__26vectorIP6SpiMsgNS_9allocatorIS2_EEE8capacityEv                                                                                                                                                                                                                        
00011c71  _ZNKSt3__26vectorIP7MenuRowNS_9allocatorIS2_EEE8capacityEv                                                                                                                                                                                                                       
00011c7d  _ZNSt3__210__allocateEj                                                                                                                                                                                                                                                          
00011c89  _ZNSt3__213__unwrap_iterIPP6I2cMsgEET_S4_                                                                                                                                                                                                                                        
00011c95  _ZNSt3__213__vector_baseIP11ConsolePageNS_9allocatorIS2_EEEC2Ev                                                                                                                                                                                                                  
00011ca1  _ZNSt3__213__vector_baseIP6I2cMsgNS_9allocatorIS2_EEEC2Ev                                                                                                                                                                                                                        
00011cad  _ZNSt3__213__vector_baseIP6SpiMsgNS_9allocatorIS2_EEEC2Ev                                                                                                                                                                                                                        
00011cb9  _ZNSt3__213__vector_baseIP7MenuRowNS_9allocatorIS2_EEEC2Ev                                                                                                                                                                                                                       
00011cc5  _ZNSt3__216__to_raw_pointerIP11ConsolePageEEPT_S4_                                                                                                                                                                                                                               
00011cd1  _ZNSt3__216__to_raw_pointerIP6I2cMsgEEPT_S4_                                                                                                                                                                                                                                     
00011cdd  _ZNSt3__216__to_raw_pointerIP6SpiMsgEEPT_S4_                                                                                                                                                                                                                                     
00011ce9  _ZNSt3__216__to_raw_pointerIP7MenuRowEEPT_S4_                                                                                                                                                                                                                                    
00011cf5  _ZNSt3__217__compressed_pairIPP11ConsolePageNS_9allocatorIS2_EEE5firstEv                                                                                                                                                                                                         
00011d01  _ZNSt3__217__compressed_pairIPP11ConsolePageNS_9allocatorIS2_EEE6secondEv                                                                                                                                                                                                        
00011d0d  _ZNSt3__217__compressed_pairIPP11ConsolePageRNS_9allocatorIS2_EEE5firstEv                                                                                                                                                                                                        
00011d19  _ZNSt3__217__compressed_pairIPP6I2cMsgNS_9allocatorIS2_EEE5firstEv                                                                                                                                                                                                               
00011d25  _ZNSt3__217__compressed_pairIPP6I2cMsgNS_9allocatorIS2_EEE6secondEv                                                                                                                                                                                                              
00011d31  _ZNSt3__217__compressed_pairIPP6I2cMsgRNS_9allocatorIS2_EEE5firstEv                                                                                                                                                                                                              
00011d3d  _ZNSt3__217__compressed_pairIPP6SpiMsgNS_9allocatorIS2_EEE5firstEv                                                                                                                                                                                                               
00011d49  _ZNSt3__217__compressed_pairIPP6SpiMsgNS_9allocatorIS2_EEE6secondEv                                                                                                                                                                                                              
00011d55  _ZNSt3__217__compressed_pairIPP6SpiMsgRNS_9allocatorIS2_EEE5firstEv                                                                                                                                                                                                              
00011d61  _ZNSt3__217__compressed_pairIPP7MenuRowNS_9allocatorIS2_EEE5firstEv                                                                                                                                                                                                              
00011d6d  _ZNSt3__217__compressed_pairIPP7MenuRowNS_9allocatorIS2_EEE6secondEv                                                                                                                                                                                                             
00011d79  _ZNSt3__217__compressed_pairIPP7MenuRowRNS_9allocatorIS2_EEE5firstEv                                                                                                                                                                                                             
00011d85  _ZNSt3__219__libcpp_deallocateEPv                                                                                                                                                                                                                                                
00011d91  _ZNSt3__222__compressed_pair_elemINS_9allocatorIP11ConsolePageEELi1ELb1EE5__getEv                                                                                                                                                                                                
00011d9d  _ZNSt3__222__compressed_pair_elemINS_9allocatorIP11ConsolePageEELi1ELb1EEC2Ev                                                                                                                                                                                                    
00011da9  _ZNSt3__222__compressed_pair_elemINS_9allocatorIP6I2cMsgEELi1ELb1EE5__getEv                                                                                                                                                                                                      
00011db5  _ZNSt3__222__compressed_pair_elemINS_9allocatorIP6I2cMsgEELi1ELb1EEC2Ev                                                                                                                                                                                                          
00011dc1  _ZNSt3__222__compressed_pair_elemINS_9allocatorIP6SpiMsgEELi1ELb1EE5__getEv                                                                                                                                                                                                      
00011dcd  _ZNSt3__222__compressed_pair_elemINS_9allocatorIP6SpiMsgEELi1ELb1EEC2Ev                                                                                                                                                                                                          
00011dd9  _ZNSt3__222__compressed_pair_elemINS_9allocatorIP7MenuRowEELi1ELb1EE5__getEv                                                                                                                                                                                                     
00011de5  _ZNSt3__222__compressed_pair_elemINS_9allocatorIP7MenuRowEELi1ELb1EEC2Ev                                                                                                                                                                                                         
00011df1  _ZNSt3__222__compressed_pair_elemIPP11ConsolePageLi0ELb0EE5__getEv                                                                                                                                                                                                               
00011dfd  _ZNSt3__222__compressed_pair_elemIPP6I2cMsgLi0ELb0EE5__getEv                                                                                                                                                                                                                     
00011e09  _ZNSt3__222__compressed_pair_elemIPP6SpiMsgLi0ELb0EE5__getEv                                                                                                                                                                                                                     
00011e15  _ZNSt3__222__compressed_pair_elemIPP7MenuRowLi0ELb0EE5__getEv                                                                                                                                                                                                                    
00011e21  _ZNSt3__24moveIRP6I2cMsgEEONS_16remove_referenceIT_E4typeEOS5_                                                                                                                                                                                                                   
00011e2d  _ZNSt3__24moveIRP6SpiMsgEEONS_16remove_referenceIT_E4typeEOS5_                                                                                                                                                                                                                   
00011e39  _ZNSt3__24moveIRPP11ConsolePageEEONS_16remove_referenceIT_E4typeEOS6_                                                                                                                                                                                                            
00011e45  _ZNSt3__24moveIRPP6I2cMsgEEONS_16remove_referenceIT_E4typeEOS6_                                                                                                                                                                                                                  
00011e51  _ZNSt3__24moveIRPP6SpiMsgEEONS_16remove_referenceIT_E4typeEOS6_                                                                                                                                                                                                                  
00011e5d  _ZNSt3__24moveIRPP7MenuRowEEONS_16remove_referenceIT_E4typeEOS6_                                                                                                                                                                                                                 
00011e69  _ZNSt3__26vectorIP6I2cMsgNS_9allocatorIS2_EEE27__invalidate_iterators_pastEPS2_                                                                                                                                                                                                  
00011e75  _ZNSt3__27forwardIDnEEOT_RNS_16remove_referenceIS1_E4typeE                                                                                                                                                                                                                       
00011e81  _ZNSt3__27forwardIP6I2cMsgEEOT_RNS_16remove_referenceIS3_E4typeE                                                                                                                                                                                                                 
00011e8d  _ZNSt3__27forwardIP6SpiMsgEEOT_RNS_16remove_referenceIS3_E4typeE                                                                                                                                                                                                                 
00011e99  _ZNSt3__27forwardIRKP11ConsolePageEEOT_RNS_16remove_referenceIS5_E4typeE                                                                                                                                                                                                         
00011ea5  _ZNSt3__27forwardIRKP7MenuRowEEOT_RNS_16remove_referenceIS5_E4typeE                                                                                                                                                                                                              
00011eb1  _ZNSt3__27forwardIRNS_9allocatorIP11ConsolePageEEEEOT_RNS_16remove_referenceIS6_E4typeE                                                                                                                                                                                          
00011ebd  _ZNSt3__27forwardIRNS_9allocatorIP6I2cMsgEEEEOT_RNS_16remove_referenceIS6_E4typeE                                                                                                                                                                                                
00011ec9  _ZNSt3__27forwardIRNS_9allocatorIP6SpiMsgEEEEOT_RNS_16remove_referenceIS6_E4typeE                                                                                                                                                                                                
00011ed5  _ZNSt3__27forwardIRNS_9allocatorIP7MenuRowEEEEOT_RNS_16remove_referenceIS6_E4typeE                                                                                                                                                                                               
00011ee1  _ZNSt3__29allocatorIP11ConsolePageE7destroyEPS2_                                                                                                                                                                                                                                 
00011eed  _ZNSt3__29allocatorIP11ConsolePageEC1Ev                                                                                                                                                                                                                                          
00011ef9  _ZNSt3__29allocatorIP11ConsolePageEC2Ev                                                                                                                                                                                                                                          
00011f05  _ZNSt3__29allocatorIP6I2cMsgE7destroyEPS2_                                                                                                                                                                                                                                       
00011f11  _ZNSt3__29allocatorIP6I2cMsgEC1Ev                                                                                                                                                                                                                                                
00011f1d  _ZNSt3__29allocatorIP6I2cMsgEC2Ev                                                                                                                                                                                                                                                
00011f29  _ZNSt3__29allocatorIP6SpiMsgE7destroyEPS2_                                                                                                                                                                                                                                       
00011f35  _ZNSt3__29allocatorIP6SpiMsgEC1Ev                                                                                                                                                                                                                                                
00011f41  _ZNSt3__29allocatorIP6SpiMsgEC2Ev                                                                                                                                                                                                                                                
00011f4d  _ZNSt3__29allocatorIP7MenuRowE7destroyEPS2_                                                                                                                                                                                                                                      
00011f59  _ZNSt3__29allocatorIP7MenuRowEC1Ev                                                                                                                                                                                                                                               
00011f65  _ZNSt3__29allocatorIP7MenuRowEC2Ev                                                                                                                                                                                                                                               
00011f71  __TI_zero_init                                                                                                                                                                                                                                                                   
00011f7d  ResetISR                                                                                                                                                                                                                                                                         
00011f89  _ZNSt3__220__throw_length_errorEPKc                                                                                                                                                                                                                                              
00011f93  _ZNSt3__26vectorIP11ConsolePageNS_9allocatorIS2_EEE24__RAII_IncreaseAnnotator6__doneEv                                                                                                                                                                                           
00011f9d  _ZNSt3__26vectorIP11ConsolePageNS_9allocatorIS2_EEE26__invalidate_all_iteratorsEv                                                                                                                                                                                                
00011fa7  _ZNSt3__26vectorIP6I2cMsgNS_9allocatorIS2_EEE24__RAII_IncreaseAnnotator6__doneEv                                                                                                                                                                                                 
00011fb1  _ZNSt3__26vectorIP6I2cMsgNS_9allocatorIS2_EEE26__invalidate_all_iteratorsEv                                                                                                                                                                                                      
00011fbb  _ZNSt3__26vectorIP6SpiMsgNS_9allocatorIS2_EEE24__RAII_IncreaseAnnotator6__doneEv                                                                                                                                                                                                 
00011fc5  _ZNSt3__26vectorIP6SpiMsgNS_9allocatorIS2_EEE26__invalidate_all_iteratorsEv                                                                                                                                                                                                      
00011fcf  _ZNSt3__26vectorIP7MenuRowNS_9allocatorIS2_EEE24__RAII_IncreaseAnnotator6__doneEv                                                                                                                                                                                                
00011fd9  _ZNSt3__26vectorIP7MenuRowNS_9allocatorIS2_EEE26__invalidate_all_iteratorsEv                                                                                                                                                                                                     
00011fed  __aeabi_errno_addr                                                                                                                                                                                                                                                               
00011ff5  malloc                                                                                                                                                                                                                                                                           
00011ffd  SysCtlDelay                                                                                                                                                                                                                                                                      
00012003  __cxa_pure_virtual                                                                                                                                                                                                                                                               
00012009  _ZN10__cxxabiv117__class_type_infoD1Ev                                                                                                                                                                                                                                           
00012009  _ZN10__cxxabiv117__class_type_infoD2Ev                                                                                                                                                                                                                                           
0001200d  _ZN10__cxxabiv120__si_class_type_infoD1Ev                                                                                                                                                                                                                                        
0001200d  _ZN10__cxxabiv120__si_class_type_infoD2Ev                                                                                                                                                                                                                                        
00012011  _ZdlPvj                                                                                                                                                                                                                                                                          
00012015  __abort_execution                                                                                                                                                                                                                                                                
00012019  _system_pre_init                                                                                                                                                                                                                                                                 
0001201d  C$$EXIT                                                                                                                                                                                                                                                                          
0001201d  _ZSt17__throw_bad_allocv                                                                                                                                                                                                                                                         
0001201d  abort                                                                                                                                                                                                                                                                            
00012140  _ctypes_                                                                                                                                                                                                                                                                         
0001260c  _ZZNSt3__29allocatorIP11ConsolePageE8allocateEjPKvEs                                                                                                                                                                                                                             
00012650  _ZZNSt3__29allocatorIP6I2cMsgE8allocateEjPKvEs                                                                                                                                                                                                                                   
00012694  _ZZNSt3__29allocatorIP6SpiMsgE8allocateEjPKvEs                                                                                                                                                                                                                                   
000126d8  _ZZNSt3__29allocatorIP7MenuRowE8allocateEjPKvEs                                                                                                                                                                                                                                  
0001283c  _ZTSN10__cxxabiv120__si_class_type_infoE                                                                                                                                                                                                                                         
000128aa  _ZTSN10__cxxabiv117__class_type_infoE                                                                                                                                                                                                                                            
0001292c  _ZTV10SpiCmdTask                                                                                                                                                                                                                                                                 
00012948  _ZTV11ConsolePage                                                                                                                                                                                                                                                                
00012964  _ZTV11ConsoleTask                                                                                                                                                                                                                                                                
00012980  _ZTV11ErrorLogger                                                                                                                                                                                                                                                                
0001299c  _ZTV11MenuOptions                                                                                                                                                                                                                                                                
000129b8  _ZTV11TaskManager                                                                                                                                                                                                                                                                
000129d4  _ZTV14I2cMonitorTask                                                                                                                                                                                                                                                             
000129f0  _ZTV14I2cSnifferTask                                                                                                                                                                                                                                                             
00012a0c  _ZTV15I2cScripterTask                                                                                                                                                                                                                                                            
00012a28  _ZTV7I2cTask                                                                                                                                                                                                                                                                     
00012a44  _ZTV7PWMpage                                                                                                                                                                                                                                                                     
00012a60  _ZTV8TestTask                                                                                                                                                                                                                                                                    
00012a7c  _ZTV9IoCtlPage                                                                                                                                                                                                                                                                   
00012b12  _ZTS15I2cScripterTask                                                                                                                                                                                                                                                            
00012b24  _ZTS14I2cMonitorTask                                                                                                                                                                                                                                                             
00012b35  _ZTS14I2cSnifferTask                                                                                                                                                                                                                                                             
00012b48  _ZTVN10__cxxabiv117__class_type_infoE                                                                                                                                                                                                                                            
00012b58  _ZTVN10__cxxabiv120__si_class_type_infoE                                                                                                                                                                                                                                         
00012b86  _ZTS11ConsolePage                                                                                                                                                                                                                                                                
00012b94  _ZTS11ConsoleTask                                                                                                                                                                                                                                                                
00012ba2  _ZTS11ErrorLogger                                                                                                                                                                                                                                                                
00012bb0  _ZTS11MenuOptions                                                                                                                                                                                                                                                                
00012bbe  _ZTS11TaskManager                                                                                                                                                                                                                                                                
00012bcc  _ZTS10SpiCmdTask                                                                                                                                                                                                                                                                 
00012bd9  _ZTSSt9type_info                                                                                                                                                                                                                                                                 
00012be8  _ZTI10SpiCmdTask                                                                                                                                                                                                                                                                 
00012bf4  _ZTI11ConsoleTask                                                                                                                                                                                                                                                                
00012c00  _ZTI11ErrorLogger                                                                                                                                                                                                                                                                
00012c0c  _ZTI11MenuOptions                                                                                                                                                                                                                                                                
00012c18  _ZTI11TaskManager                                                                                                                                                                                                                                                                
00012c24  _ZTI14I2cMonitorTask                                                                                                                                                                                                                                                             
00012c30  _ZTI14I2cSnifferTask                                                                                                                                                                                                                                                             
00012c3c  _ZTI15I2cScripterTask                                                                                                                                                                                                                                                            
00012c48  _ZTI7I2cTask                                                                                                                                                                                                                                                                     
00012c54  _ZTI7PWMpage                                                                                                                                                                                                                                                                     
00012c60  _ZTI8TestTask                                                                                                                                                                                                                                                                    
00012c6c  _ZTI9IoCtlPage                                                                                                                                                                                                                                                                   
00012c78  _ZTIN10__cxxabiv117__class_type_infoE                                                                                                                                                                                                                                            
00012c84  _ZTIN10__cxxabiv120__si_class_type_infoE                                                                                                                                                                                                                                         
00012ca8  _ZTS9IoCtlPage                                                                                                                                                                                                                                                                   
00012cb3  _ZTS8TestTask                                                                                                                                                                                                                                                                    
00012cbd  _ZTS7I2cTask                                                                                                                                                                                                                                                                     
00012cc6  _ZTS7PWMpage                                                                                                                                                                                                                                                                     
00012cd0  _ZTI11ConsolePage                                                                                                                                                                                                                                                                
00012cd8  _ZTISt9type_info                                                                                                                                                                                                                                                                 
00012ce8  ulMaxSyscallInterruptPriority                                                                                                                                                                                                                                                    
00012cf0  _ZZNKSt3__220__vector_base_commonILb1EE20__throw_length_errorEvEs                                                                                                                                                                                                                
00012e54  __TI_Handler_Table_Base                                                                                                                                                                                                                                                          
00012e60  __TI_Handler_Table_Limit                                                                                                                                                                                                                                                         
00012e70  __TI_CINIT_Base                                                                                                                                                                                                                                                                  
00012e88  __TI_CINIT_Limit                                                                                                                                                                                                                                                                 
20000000  __start___llvm_prf_cnts                                                                                                                                                                                                                                                          
20000000  __stop___llvm_prf_cnts                                                                                                                                                                                                                                                           
20000000  g_pfnRAMVectors                                                                                                                                                                                                                                                                  
2000026c  ucHeap                                                                                                                                                                                                                                                                           
2000431c  __CIOBUF_                                                                                                                                                                                                                                                                        
2000443c  __TI_tmpnams                                                                                                                                                                                                                                                                     
20004540  xQueueRegistry                                                                                                                                                                                                                                                                   
200045e4  bin_string                                                                                                                                                                                                                                                                       
20004600  parmbuf                                                                                                                                                                                                                                                                          
20004610  __stack                                                                                                                                                                                                                                                                          
20004810  __STACK_TOP                                                                                                                                                                                                                                                                      
20004e10  __STACK_END                                                                                                                                                                                                                                                                      
20004e10  _ftable                                                                                                                                                                                                                                                                          
20004f00  _device                                                                                                                                                                                                                                                                          
20004f78  _stream                                                                                                                                                                                                                                                                          
20004fc8  pxCurrentTCB                                                                                                                                                                                                                                                                     
20005128  __TI_ft_end                                                                                                                                                                                                                                                                      
2000512c  __aeabi_stdin                                                                                                                                                                                                                                                                    
20005130  __aeabi_stdout                                                                                                                                                                                                                                                                   
20005134  __aeabi_stderr                                                                                                                                                                                                                                                                   
20005138  __TI_cleanup_ptr                                                                                                                                                                                                                                                                 
2000513c  __TI_dtors_ptr                                                                                                                                                                                                                                                                   
20005140  __TI_enable_exit_profile_output                                                                                                                                                                                                                                                  
2000515c  _lock                                                                                                                                                                                                                                                                            
20005160  _unlock                                                                                                                                                                                                                                                                          
2000516c  adc_pin_struct                                                                                                                                                                                                                                                                   
2000517c  board_gpi_info                                                                                                                                                                                                                                                                   
2000518c  board_gpo_info                                                                                                                                                                                                                                                                   
20005194  board_pwm_info                                                                                                                                                                                                                                                                   
200051a0  _ZN11ErrorLogger3objE                                                                                                                                                                                                                                                            
200051a4  i2c_speed_menu                                                                                                                                                                                                                                                                   
200051bc  i2c_speed_name                                                                                                                                                                                                                                                                   
200051c4  errno                                                                                                                                                                                                                                                                            
200051c8  _sys_memory                                                                                                                                                                                                                                                                      
ffffffff  __TI_pprof_out_hndl                                                                                                                                                                                                                                                              
ffffffff  __TI_prof_data_size                                                                                                                                                                                                                                                              
ffffffff  __TI_prof_data_start                                                                                                                                                                                                                                                             
ffffffff  __binit__                                                                                                                                                                                                                                                                        
ffffffff  __c_args__                                                                                                                                                                                                                                                                       
ffffffff  binit                                                                                                                                                                                                                                                                            
UNDEFED   __mpu_init                                                                                                                                                                                                                                                                       
UNDEFED   _system_post_cinit                                                                                                                                                                                                                                                               

[1174 symbols]
